
02 PID-Line Follower.elf:     file format elf32-avr

Sections:
Idx Name          Size      VMA       LMA       File off  Algn
  0 .data         00000016  00800100  00003790  00003824  2**0
                  CONTENTS, ALLOC, LOAD, DATA
  1 .text         00003790  00000000  00000000  00000094  2**1
                  CONTENTS, ALLOC, LOAD, READONLY, CODE
  2 .bss          000000ed  00800116  00800116  0000383a  2**0
                  ALLOC
  3 .comment      0000005c  00000000  00000000  0000383a  2**0
                  CONTENTS, READONLY
  4 .note.gnu.avr.deviceinfo 00000040  00000000  00000000  00003898  2**2
                  CONTENTS, READONLY
  5 .debug_aranges 00000320  00000000  00000000  000038d8  2**0
                  CONTENTS, READONLY, DEBUGGING
  6 .debug_info   00003cee  00000000  00000000  00003bf8  2**0
                  CONTENTS, READONLY, DEBUGGING
  7 .debug_abbrev 000014d5  00000000  00000000  000078e6  2**0
                  CONTENTS, READONLY, DEBUGGING
  8 .debug_line   0000211c  00000000  00000000  00008dbb  2**0
                  CONTENTS, READONLY, DEBUGGING
  9 .debug_frame  00000b44  00000000  00000000  0000aed8  2**2
                  CONTENTS, READONLY, DEBUGGING
 10 .debug_str    00000e06  00000000  00000000  0000ba1c  2**0
                  CONTENTS, READONLY, DEBUGGING
 11 .debug_loc    0000181c  00000000  00000000  0000c822  2**0
                  CONTENTS, READONLY, DEBUGGING
 12 .debug_ranges 000002a8  00000000  00000000  0000e03e  2**0
                  CONTENTS, READONLY, DEBUGGING

Disassembly of section .text:

00000000 <__vectors>:
       0:	0c 94 ac 01 	jmp	0x358	; 0x358 <__ctors_end>
       4:	0c 94 20 13 	jmp	0x2640	; 0x2640 <__vector_1>
       8:	0c 94 59 13 	jmp	0x26b2	; 0x26b2 <__vector_2>
       c:	0c 94 c9 01 	jmp	0x392	; 0x392 <__bad_interrupt>
      10:	0c 94 c9 01 	jmp	0x392	; 0x392 <__bad_interrupt>
      14:	0c 94 c9 01 	jmp	0x392	; 0x392 <__bad_interrupt>
      18:	0c 94 c9 01 	jmp	0x392	; 0x392 <__bad_interrupt>
      1c:	0c 94 c9 01 	jmp	0x392	; 0x392 <__bad_interrupt>
      20:	0c 94 c9 01 	jmp	0x392	; 0x392 <__bad_interrupt>
      24:	0c 94 c9 01 	jmp	0x392	; 0x392 <__bad_interrupt>
      28:	0c 94 c9 01 	jmp	0x392	; 0x392 <__bad_interrupt>
      2c:	0c 94 c9 01 	jmp	0x392	; 0x392 <__bad_interrupt>
      30:	0c 94 c9 01 	jmp	0x392	; 0x392 <__bad_interrupt>
      34:	0c 94 c9 01 	jmp	0x392	; 0x392 <__bad_interrupt>
      38:	0c 94 c9 01 	jmp	0x392	; 0x392 <__bad_interrupt>
      3c:	0c 94 c9 01 	jmp	0x392	; 0x392 <__bad_interrupt>
      40:	0c 94 45 0f 	jmp	0x1e8a	; 0x1e8a <__vector_16>
      44:	0c 94 c9 01 	jmp	0x392	; 0x392 <__bad_interrupt>
      48:	0c 94 c9 01 	jmp	0x392	; 0x392 <__bad_interrupt>
      4c:	0c 94 c9 01 	jmp	0x392	; 0x392 <__bad_interrupt>
      50:	0c 94 04 11 	jmp	0x2208	; 0x2208 <__vector_20>
      54:	0c 94 52 11 	jmp	0x22a4	; 0x22a4 <__vector_21>
      58:	0c 94 c9 01 	jmp	0x392	; 0x392 <__bad_interrupt>
      5c:	0c 94 c9 01 	jmp	0x392	; 0x392 <__bad_interrupt>
      60:	0c 94 c9 01 	jmp	0x392	; 0x392 <__bad_interrupt>
      64:	0c 94 c9 01 	jmp	0x392	; 0x392 <__bad_interrupt>
      68:	0c 94 c9 01 	jmp	0x392	; 0x392 <__bad_interrupt>
      6c:	0c 94 c9 01 	jmp	0x392	; 0x392 <__bad_interrupt>
      70:	0c 94 74 12 	jmp	0x24e8	; 0x24e8 <__vector_28>
      74:	0c 94 c2 12 	jmp	0x2584	; 0x2584 <__vector_29>
      78:	0c 94 c9 01 	jmp	0x392	; 0x392 <__bad_interrupt>

0000007c <__trampolines_end>:
      7c:	4e 41       	sbci	r20, 0x1E	; 30
      7e:	4e 49       	Address 0x0000007e is out of bounds.
.word	0xffff	; ????

0000007f <pstr_inity>:
      7f:	49 4e 49 54 59                                      INITY

00000084 <pstr_inf>:
      84:	49 4e 46                                            INF

00000087 <pwr_m10>:
      87:	cd cc cc 3d 0a d7 23 3c 17 b7 d1 38 77 cc 2b 32     ...=..#<...8w.+2
      97:	95 95 e6 24 1f b1 4f 0a                             ...$..O.

0000009f <pwr_p10>:
      9f:	00 00 20 41 00 00 c8 42 00 40 1c 46 20 bc be 4c     .. A...B.@.F ..L
      af:	ca 1b 0e 5a ae c5 9d 74 00 40 7a 10 f3 5a 00 a0     ...Z...t.@z..Z..
      bf:	72 4e 18 09 00 10 a5 d4 e8 00 00 e8 76 48 17 00     rN..........vH..
      cf:	00 e4 0b 54 02 00 00 ca 9a 3b 00 00 00 e1 f5 05     ...T.....;......
      df:	00 00 80 96 98 00 00 00 40 42 0f 00 00 00 a0 86     ........@B......
      ef:	01 00 00 00 10 27 00 00 00 00 e8 03 00 00 00 00     .....'..........
      ff:	64 00 00 00 00 00 0a 00 00 00 00 00 01 00 00 00     d...............
     10f:	00 00 2c 76 d8 88 dc 67 4f 08 23 df c1 df ae 59     ..,v...gO.#....Y
     11f:	e1 b1 b7 96 e5 e3 e4 53 c6 3a e6 51 99 76 96 e8     .......S.:.Q.v..
     12f:	e6 c2 84 26 eb 89 8c 9b 62 ed 40 7c 6f fc ef bc     ...&....b.@|o...
     13f:	9c 9f 40 f2 ba a5 6f a5 f4 90 05 5a 2a f7 5c 93     ..@...o....Z*.\.
     14f:	6b 6c f9 67 6d c1 1b fc e0 e4 0d 47 fe f5 20 e6     kl.gm......G.. .
     15f:	b5 00 d0 ed 90 2e 03 00 94 35 77 05 00 80 84 1e     .........5w.....
     16f:	08 00 00 20 4e 0a 00 00 00 c8 0c 33 33 33 33 0f     ... N......3333.
     17f:	98 6e 12 83 11 41 ef 8d 21 14 89 3b e6 55 16 cf     .n...A..!..;.U..
     18f:	fe e6 db 18 d1 84 4b 38 1b f7 7c 1d 90 1d a4 bb     ......K8..|.....
     19f:	e4 24 20 32 84 72 5e 22 81 00 c9 f1 24 ec a1 e5     .$ 2.r^"....$...
     1af:	3d 27                                               ='

000001b1 <__c.2697>:
     1b1:	0a 42 6f 74 20 53 74 6f 70 2e 00                    .Bot Stop..

000001bc <__c.2692>:
     1bc:	0a 53 65 74 20 53 70 65 65 64 3a 00                 .Set Speed:.

000001c8 <__c.2689>:
     1c8:	0a 42 6f 74 20 53 74 61 72 74 2e 00                 .Bot Start..

000001d4 <__c.2687>:
     1d4:	0a 42 6f 74 20 53 74 6f 70 2e 00                    .Bot Stop..

000001df <__c.2677>:
     1df:	41 6b 6b 75 3a 25 69 00                             Akku:%i.

000001e7 <__c.2675>:
     1e7:	50 49 44 2d 4f 75 74 3a 25 69 00                    PID-Out:%i.

000001f2 <__c.2673>:
     1f2:	4c 69 6e 65 2d 52 65 66 3a 25 69 00                 Line-Ref:%i.

000001fe <__c.2671>:
     1fe:	4d 6f 74 6f 72 20 4c 65 66 74 3a 25 69 20 52 69     Motor Left:%i Ri
     20e:	67 68 74 3a 25 69 00                                ght:%i.

00000215 <__c.2669>:
     215:	0a 4c 69 6e 65 20 69 73 20 6c 6f 73 74 21 0a 42     .Line is lost!.B
     225:	6f 74 20 73 74 6f 70 70 65 64 2e 0a 00              ot stopped...

00000232 <__c.2655>:
     232:	0a 52 65 67 65 6c 70 61 72 61 6d 65 74 65 72 20     .Regelparameter 
     242:	75 65 62 65 72 6e 6f 6d 6d 65 6e 2e 00              uebernommen..

0000024f <__c.2653>:
     24f:	0a 53 65 74 20 4b 44 3a 20 00                       .Set KD: .

00000259 <__c.2651>:
     259:	0a 53 65 74 20 4b 49 3a 20 00                       .Set KI: .

00000263 <__c.2649>:
     263:	0a 53 65 74 20 4b 50 3a 20 00                       .Set KP: .

0000026d <__c.2647>:
     26d:	0a 50 49 44 2d 52 65 67 6c 65 72 70 61 72 61 6d     .PID-Reglerparam
     27d:	65 74 65 72 20 65 69 6e 73 74 65 6c 6c 65 6e 2e     eter einstellen.
	...

0000028e <__c.2631>:
     28e:	0a 42 61 74 74 65 72 79 3a 20 00                    .Battery: .

00000299 <__c.2629>:
     299:	0a 53 70 65 65 64 3a 00                             .Speed:.

000002a1 <__c.2627>:
     2a1:	0a 4b 44 3a 00                                      .KD:.

000002a6 <__c.2625>:
     2a6:	0a 4b 49 3a 00                                      .KI:.

000002ab <__c.2623>:
     2ab:	0a 4b 50 3a 20 00                                   .KP: .

000002b1 <__c.2621>:
     2b1:	0a 43 75 72 72 65 6e 74 20 76 61 6c 75 65 73 00     .Current values.

000002c1 <__c.2619>:
     2c1:	0a 27 74 27 20 2d 20 53 65 28 74 29 20 53 70 65     .'t' - Se(t) Spe
     2d1:	65 64 00                                            ed.

000002d4 <__c.2617>:
     2d4:	0a 27 67 27 20 2d 20 28 47 29 6f 20 44 72 69 76     .'g' - (G)o Driv
     2e4:	65 00                                               e.

000002e6 <__c.2615>:
     2e6:	0a 27 73 27 20 2d 20 28 53 29 74 6f 70 20 52 6f     .'s' - (S)top Ro
     2f6:	62 6f 74 00                                         bot.

000002fa <__c.2613>:
     2fa:	0a 27 70 27 20 2d 20 53 65 74 20 28 50 29 61 72     .'p' - Set (P)ar
     30a:	61 6d 65 74 65 72 2e 00                             ameter..

00000312 <__c.2611>:
     312:	0a 0a 50 72 6f 67 72 61 6d 6d 20 50 49 44 2d 52     ..Programm PID-R
     322:	65 67 6c 65 72 20 4c 69 6e 69 65 6e 66 6f 6c 67     egler Linienfolg
     332:	65 72 2e 00                                         er..

00000336 <debug_str>:
     336:	2d 44 45 42 55 47 2d 20 00                          -DEBUG- .

0000033f <error_str>:
     33f:	2d 45 52 52 4f 52 2d 20 00                          -ERROR- .

00000348 <__c.2695>:
     348:	4c 6f 77 20 42 61 74 74 65 72 79 3a 25 69 00 00     Low Battery:%i..

00000358 <__ctors_end>:
     358:	11 24       	eor	r1, r1
     35a:	1f be       	out	0x3f, r1	; 63
     35c:	cf ef       	ldi	r28, 0xFF	; 255
     35e:	d0 e1       	ldi	r29, 0x10	; 16
     360:	de bf       	out	0x3e, r29	; 62
     362:	cd bf       	out	0x3d, r28	; 61

00000364 <__do_copy_data>:
     364:	11 e0       	ldi	r17, 0x01	; 1
     366:	a0 e0       	ldi	r26, 0x00	; 0
     368:	b1 e0       	ldi	r27, 0x01	; 1
     36a:	e0 e9       	ldi	r30, 0x90	; 144
     36c:	f7 e3       	ldi	r31, 0x37	; 55
     36e:	02 c0       	rjmp	.+4      	; 0x374 <__do_copy_data+0x10>
     370:	05 90       	lpm	r0, Z+
     372:	0d 92       	st	X+, r0
     374:	a6 31       	cpi	r26, 0x16	; 22
     376:	b1 07       	cpc	r27, r17
     378:	d9 f7       	brne	.-10     	; 0x370 <__do_copy_data+0xc>

0000037a <__do_clear_bss>:
     37a:	22 e0       	ldi	r18, 0x02	; 2
     37c:	a6 e1       	ldi	r26, 0x16	; 22
     37e:	b1 e0       	ldi	r27, 0x01	; 1
     380:	01 c0       	rjmp	.+2      	; 0x384 <.do_clear_bss_start>

00000382 <.do_clear_bss_loop>:
     382:	1d 92       	st	X+, r1

00000384 <.do_clear_bss_start>:
     384:	a3 30       	cpi	r26, 0x03	; 3
     386:	b2 07       	cpc	r27, r18
     388:	e1 f7       	brne	.-8      	; 0x382 <.do_clear_bss_loop>
     38a:	0e 94 54 04 	call	0x8a8	; 0x8a8 <main>
     38e:	0c 94 c6 1b 	jmp	0x378c	; 0x378c <_exit>

00000392 <__bad_interrupt>:
     392:	0c 94 00 00 	jmp	0	; 0x0 <__vectors>

00000396 <driveHandler>:
	uart_puts_P("\nRegelparameter uebernommen.");
}


void driveHandler(void)
{
     396:	cf 93       	push	r28
     398:	df 93       	push	r29
	int16_t pidOutput;
	int16_t left, right;
	static bool lineLost = false;
	
	if (drive == true)
     39a:	80 91 17 01 	lds	r24, 0x0117	; 0x800117 <drive>
     39e:	88 23       	and	r24, r24
     3a0:	09 f4       	brne	.+2      	; 0x3a4 <driveHandler+0xe>
     3a2:	ab c0       	rjmp	.+342    	; 0x4fa <__LOCK_REGION_LENGTH__+0xfa>
	{
		startStopwatch1();	// Ausführungszyklus
     3a4:	ea ee       	ldi	r30, 0xEA	; 234
     3a6:	f1 e0       	ldi	r31, 0x01	; 1
     3a8:	80 81       	ld	r24, Z
     3aa:	81 60       	ori	r24, 0x01	; 1
     3ac:	80 83       	st	Z, r24
		startStopwatch2();	// Debugausgaben
     3ae:	80 81       	ld	r24, Z
     3b0:	82 60       	ori	r24, 0x02	; 2
     3b2:	80 83       	st	Z, r24
		startStopwatch3();	// Linie verloren Timer
     3b4:	80 81       	ld	r24, Z
     3b6:	84 60       	ori	r24, 0x04	; 4
     3b8:	80 83       	st	Z, r24
		
		if (getStopwatch(STOPWATCH1) >= TA)
     3ba:	81 e0       	ldi	r24, 0x01	; 1
     3bc:	0e 94 8a 10 	call	0x2114	; 0x2114 <getStopwatch>
     3c0:	44 97       	sbiw	r24, 0x14	; 20
     3c2:	08 f4       	brcc	.+2      	; 0x3c6 <driveHandler+0x30>
     3c4:	a5 c0       	rjmp	.+330    	; 0x510 <__LOCK_REGION_LENGTH__+0x110>
		{
			lineRead();
     3c6:	0e 94 a5 06 	call	0xd4a	; 0xd4a <lineRead>
			lineReference = followTrack();
     3ca:	0e 94 0e 07 	call	0xe1c	; 0xe1c <followTrack>
     3ce:	90 93 bc 01 	sts	0x01BC, r25	; 0x8001bc <lineReference+0x1>
     3d2:	80 93 bb 01 	sts	0x01BB, r24	; 0x8001bb <lineReference>
			//lineReference = lineReference >> 1;
			setStopwatch(STOPWATCH1, 0);
     3d6:	60 e0       	ldi	r22, 0x00	; 0
     3d8:	70 e0       	ldi	r23, 0x00	; 0
     3da:	81 e0       	ldi	r24, 0x01	; 1
     3dc:	90 e0       	ldi	r25, 0x00	; 0
     3de:	0e 94 0e 10 	call	0x201c	; 0x201c <setStopwatch>
			pidOutput = pid_Controller(0, lineReference, &pidLineData);
     3e2:	60 91 bb 01 	lds	r22, 0x01BB	; 0x8001bb <lineReference>
     3e6:	70 91 bc 01 	lds	r23, 0x01BC	; 0x8001bc <lineReference+0x1>
     3ea:	48 ed       	ldi	r20, 0xD8	; 216
     3ec:	51 e0       	ldi	r21, 0x01	; 1
     3ee:	80 e0       	ldi	r24, 0x00	; 0
     3f0:	90 e0       	ldi	r25, 0x00	; 0
     3f2:	0e 94 29 09 	call	0x1252	; 0x1252 <pid_Controller>
     3f6:	ec 01       	movw	r28, r24
			
			left = baseSpeed + pidOutput;
     3f8:	80 91 00 01 	lds	r24, 0x0100	; 0x800100 <__data_start>
     3fc:	90 91 01 01 	lds	r25, 0x0101	; 0x800101 <__data_start+0x1>
			right = baseSpeed - pidOutput;
			
			motor_speed(left, right);
     400:	bc 01       	movw	r22, r24
     402:	6c 1b       	sub	r22, r28
     404:	7d 0b       	sbc	r23, r29
     406:	8c 0f       	add	r24, r28
     408:	9d 1f       	adc	r25, r29
     40a:	0e 94 20 08 	call	0x1040	; 0x1040 <motor_speed>
     40e:	e3 ed       	ldi	r30, 0xD3	; 211
     410:	f1 e0       	ldi	r31, 0x01	; 1
     412:	28 ed       	ldi	r18, 0xD8	; 216
     414:	31 e0       	ldi	r19, 0x01	; 1
			
			bool lineLost_temp = true; // Temporär setzen
     416:	91 e0       	ldi	r25, 0x01	; 1
			for (uint8_t i=0; i<5; i++)
			{
				if (lineSensors.digitalData[i] == 1)  lineLost_temp = false;
     418:	40 e0       	ldi	r20, 0x00	; 0
     41a:	81 91       	ld	r24, Z+
     41c:	81 11       	cpse	r24, r1
     41e:	94 2f       	mov	r25, r20
			right = baseSpeed - pidOutput;
			
			motor_speed(left, right);
			
			bool lineLost_temp = true; // Temporär setzen
			for (uint8_t i=0; i<5; i++)
     420:	e2 17       	cp	r30, r18
     422:	f3 07       	cpc	r31, r19
     424:	d1 f7       	brne	.-12     	; 0x41a <__LOCK_REGION_LENGTH__+0x1a>
			{
				if (lineSensors.digitalData[i] == 1)  lineLost_temp = false;
			}
			
			if (lineLost_temp == true) lineLost_num++;
     426:	99 23       	and	r25, r25
     428:	29 f0       	breq	.+10     	; 0x434 <__LOCK_REGION_LENGTH__+0x34>
     42a:	80 91 16 01 	lds	r24, 0x0116	; 0x800116 <__data_end>
     42e:	8f 5f       	subi	r24, 0xFF	; 255
     430:	80 93 16 01 	sts	0x0116, r24	; 0x800116 <__data_end>
		
			if (lineLost_num >= LINE_LOST_NUM)
     434:	80 91 16 01 	lds	r24, 0x0116	; 0x800116 <__data_end>
     438:	8a 30       	cpi	r24, 0x0A	; 10
     43a:	68 f0       	brcs	.+26     	; 0x456 <__LOCK_REGION_LENGTH__+0x56>
			{
				drive = false;
     43c:	10 92 17 01 	sts	0x0117, r1	; 0x800117 <drive>
				motorDirection(MOT_BREAK, MOT_BREAK);
     440:	60 e0       	ldi	r22, 0x00	; 0
     442:	80 e0       	ldi	r24, 0x00	; 0
     444:	0e 94 7e 07 	call	0xefc	; 0xefc <motorDirection>
				setStatusLED(YELLOW);
     448:	83 e0       	ldi	r24, 0x03	; 3
     44a:	0e 94 50 0b 	call	0x16a0	; 0x16a0 <setStatusLED>
				uart_puts_P("\nLine is lost!\nBot stopped.\n");
     44e:	85 e1       	ldi	r24, 0x15	; 21
     450:	92 e0       	ldi	r25, 0x02	; 2
     452:	0e 94 4a 12 	call	0x2494	; 0x2494 <uart_puts_p>
			}
			
			if (getStopwatch(STOPWATCH3) > 400)	
     456:	84 e0       	ldi	r24, 0x04	; 4
     458:	0e 94 8a 10 	call	0x2114	; 0x2114 <getStopwatch>
     45c:	81 39       	cpi	r24, 0x91	; 145
     45e:	91 40       	sbci	r25, 0x01	; 1
     460:	40 f0       	brcs	.+16     	; 0x472 <__LOCK_REGION_LENGTH__+0x72>
			{
				setStopwatch(STOPWATCH3, 0);
     462:	60 e0       	ldi	r22, 0x00	; 0
     464:	70 e0       	ldi	r23, 0x00	; 0
     466:	84 e0       	ldi	r24, 0x04	; 4
     468:	90 e0       	ldi	r25, 0x00	; 0
     46a:	0e 94 0e 10 	call	0x201c	; 0x201c <setStopwatch>
				lineLost_num = 0;
     46e:	10 92 16 01 	sts	0x0116, r1	; 0x800116 <__data_end>
			}
			
			// Monitoring
			if ( getStopwatch(STOPWATCH2) > 100 )
     472:	82 e0       	ldi	r24, 0x02	; 2
     474:	0e 94 8a 10 	call	0x2114	; 0x2114 <getStopwatch>
     478:	85 36       	cpi	r24, 0x65	; 101
     47a:	91 05       	cpc	r25, r1
     47c:	08 f4       	brcc	.+2      	; 0x480 <__LOCK_REGION_LENGTH__+0x80>
     47e:	48 c0       	rjmp	.+144    	; 0x510 <__LOCK_REGION_LENGTH__+0x110>
			{
				LOG_DEBUG("Motor Left:%i Right:%i", motorStatus.speedLeft, motorStatus.speedRight);
     480:	e2 ea       	ldi	r30, 0xA2	; 162
     482:	f1 e0       	ldi	r31, 0x01	; 1
     484:	84 81       	ldd	r24, Z+4	; 0x04
     486:	8f 93       	push	r24
     488:	83 81       	ldd	r24, Z+3	; 0x03
     48a:	8f 93       	push	r24
     48c:	82 81       	ldd	r24, Z+2	; 0x02
     48e:	8f 93       	push	r24
     490:	81 81       	ldd	r24, Z+1	; 0x01
     492:	8f 93       	push	r24
     494:	8e ef       	ldi	r24, 0xFE	; 254
     496:	91 e0       	ldi	r25, 0x01	; 1
     498:	9f 93       	push	r25
     49a:	8f 93       	push	r24
     49c:	0e 94 3c 07 	call	0xe78	; 0xe78 <_log_Debug>
				LOG_DEBUG("Line-Ref:%i", lineReference);
     4a0:	80 91 bc 01 	lds	r24, 0x01BC	; 0x8001bc <lineReference+0x1>
     4a4:	8f 93       	push	r24
     4a6:	80 91 bb 01 	lds	r24, 0x01BB	; 0x8001bb <lineReference>
     4aa:	8f 93       	push	r24
     4ac:	82 ef       	ldi	r24, 0xF2	; 242
     4ae:	91 e0       	ldi	r25, 0x01	; 1
     4b0:	9f 93       	push	r25
     4b2:	8f 93       	push	r24
     4b4:	0e 94 3c 07 	call	0xe78	; 0xe78 <_log_Debug>
				LOG_DEBUG("PID-Out:%i", pidOutput);
     4b8:	df 93       	push	r29
     4ba:	cf 93       	push	r28
     4bc:	87 ee       	ldi	r24, 0xE7	; 231
     4be:	91 e0       	ldi	r25, 0x01	; 1
     4c0:	9f 93       	push	r25
     4c2:	8f 93       	push	r24
     4c4:	0e 94 3c 07 	call	0xe78	; 0xe78 <_log_Debug>
				LOG_DEBUG("Akku:%i", batt_voltage());
     4c8:	0e 94 13 0b 	call	0x1626	; 0x1626 <batt_voltage>
     4cc:	9f 93       	push	r25
     4ce:	8f 93       	push	r24
     4d0:	8f ed       	ldi	r24, 0xDF	; 223
     4d2:	91 e0       	ldi	r25, 0x01	; 1
     4d4:	9f 93       	push	r25
     4d6:	8f 93       	push	r24
     4d8:	0e 94 3c 07 	call	0xe78	; 0xe78 <_log_Debug>
				setStopwatch(STOPWATCH2,0);
     4dc:	60 e0       	ldi	r22, 0x00	; 0
     4de:	70 e0       	ldi	r23, 0x00	; 0
     4e0:	82 e0       	ldi	r24, 0x02	; 2
     4e2:	90 e0       	ldi	r25, 0x00	; 0
     4e4:	0e 94 0e 10 	call	0x201c	; 0x201c <setStopwatch>
     4e8:	8d b7       	in	r24, 0x3d	; 61
     4ea:	9e b7       	in	r25, 0x3e	; 62
     4ec:	42 96       	adiw	r24, 0x12	; 18
     4ee:	0f b6       	in	r0, 0x3f	; 63
     4f0:	f8 94       	cli
     4f2:	9e bf       	out	0x3e, r25	; 62
     4f4:	0f be       	out	0x3f, r0	; 63
     4f6:	8d bf       	out	0x3d, r24	; 61
     4f8:	0b c0       	rjmp	.+22     	; 0x510 <__LOCK_REGION_LENGTH__+0x110>
			}
		}
	}
	else
	{
		stopStopwatch1();
     4fa:	ea ee       	ldi	r30, 0xEA	; 234
     4fc:	f1 e0       	ldi	r31, 0x01	; 1
     4fe:	80 81       	ld	r24, Z
     500:	8e 7f       	andi	r24, 0xFE	; 254
     502:	80 83       	st	Z, r24
		stopStopwatch2();
     504:	80 81       	ld	r24, Z
     506:	8d 7f       	andi	r24, 0xFD	; 253
     508:	80 83       	st	Z, r24
		stopStopwatch3();
     50a:	80 81       	ld	r24, Z
     50c:	8b 7f       	andi	r24, 0xFB	; 251
     50e:	80 83       	st	Z, r24
	}
}
     510:	df 91       	pop	r29
     512:	cf 91       	pop	r28
     514:	08 95       	ret

00000516 <printMenu>:
// TA = 20ms
#define TA 20


void printMenu(void)
{
     516:	0f 93       	push	r16
     518:	1f 93       	push	r17
     51a:	cf 93       	push	r28
     51c:	df 93       	push	r29
     51e:	cd b7       	in	r28, 0x3d	; 61
     520:	de b7       	in	r29, 0x3e	; 62
     522:	2f 97       	sbiw	r28, 0x0f	; 15
     524:	0f b6       	in	r0, 0x3f	; 63
     526:	f8 94       	cli
     528:	de bf       	out	0x3e, r29	; 62
     52a:	0f be       	out	0x3f, r0	; 63
     52c:	cd bf       	out	0x3d, r28	; 61
	char buffer[15];
	uart_puts_P("\n\nProgramm PID-Regler Linienfolger.");
     52e:	82 e1       	ldi	r24, 0x12	; 18
     530:	93 e0       	ldi	r25, 0x03	; 3
     532:	0e 94 4a 12 	call	0x2494	; 0x2494 <uart_puts_p>
	uart_puts_P("\n'p' - Set (P)arameter.");
     536:	8a ef       	ldi	r24, 0xFA	; 250
     538:	92 e0       	ldi	r25, 0x02	; 2
     53a:	0e 94 4a 12 	call	0x2494	; 0x2494 <uart_puts_p>
	uart_puts_P("\n's' - (S)top Robot");
     53e:	86 ee       	ldi	r24, 0xE6	; 230
     540:	92 e0       	ldi	r25, 0x02	; 2
     542:	0e 94 4a 12 	call	0x2494	; 0x2494 <uart_puts_p>
	uart_puts_P("\n'g' - (G)o Drive");
     546:	84 ed       	ldi	r24, 0xD4	; 212
     548:	92 e0       	ldi	r25, 0x02	; 2
     54a:	0e 94 4a 12 	call	0x2494	; 0x2494 <uart_puts_p>
	uart_puts_P("\n't' - Se(t) Speed");
     54e:	81 ec       	ldi	r24, 0xC1	; 193
     550:	92 e0       	ldi	r25, 0x02	; 2
     552:	0e 94 4a 12 	call	0x2494	; 0x2494 <uart_puts_p>
	uart_puts_P("\nCurrent values");
     556:	81 eb       	ldi	r24, 0xB1	; 177
     558:	92 e0       	ldi	r25, 0x02	; 2
     55a:	0e 94 4a 12 	call	0x2494	; 0x2494 <uart_puts_p>
	uart_puts_P("\nKP: ");
     55e:	8b ea       	ldi	r24, 0xAB	; 171
     560:	92 e0       	ldi	r25, 0x02	; 2
     562:	0e 94 4a 12 	call	0x2494	; 0x2494 <uart_puts_p>
	uart_puts(dtostrf(k_p, 4, 1, buffer));
     566:	60 91 bd 01 	lds	r22, 0x01BD	; 0x8001bd <k_p>
     56a:	70 91 be 01 	lds	r23, 0x01BE	; 0x8001be <k_p+0x1>
     56e:	80 91 bf 01 	lds	r24, 0x01BF	; 0x8001bf <k_p+0x2>
     572:	90 91 c0 01 	lds	r25, 0x01C0	; 0x8001c0 <k_p+0x3>
     576:	8e 01       	movw	r16, r28
     578:	0f 5f       	subi	r16, 0xFF	; 255
     57a:	1f 4f       	sbci	r17, 0xFF	; 255
     57c:	21 e0       	ldi	r18, 0x01	; 1
     57e:	44 e0       	ldi	r20, 0x04	; 4
     580:	0e 94 c1 14 	call	0x2982	; 0x2982 <dtostrf>
     584:	0e 94 2b 12 	call	0x2456	; 0x2456 <uart_puts>
	uart_puts_P("\nKI:");
     588:	86 ea       	ldi	r24, 0xA6	; 166
     58a:	92 e0       	ldi	r25, 0x02	; 2
     58c:	0e 94 4a 12 	call	0x2494	; 0x2494 <uart_puts_p>
	uart_puts(dtostrf(k_i, 4, 1, buffer));
     590:	60 91 b7 01 	lds	r22, 0x01B7	; 0x8001b7 <k_i>
     594:	70 91 b8 01 	lds	r23, 0x01B8	; 0x8001b8 <k_i+0x1>
     598:	80 91 b9 01 	lds	r24, 0x01B9	; 0x8001b9 <k_i+0x2>
     59c:	90 91 ba 01 	lds	r25, 0x01BA	; 0x8001ba <k_i+0x3>
     5a0:	21 e0       	ldi	r18, 0x01	; 1
     5a2:	44 e0       	ldi	r20, 0x04	; 4
     5a4:	0e 94 c1 14 	call	0x2982	; 0x2982 <dtostrf>
     5a8:	0e 94 2b 12 	call	0x2456	; 0x2456 <uart_puts>
	uart_puts_P("\nKD:");
     5ac:	81 ea       	ldi	r24, 0xA1	; 161
     5ae:	92 e0       	ldi	r25, 0x02	; 2
     5b0:	0e 94 4a 12 	call	0x2494	; 0x2494 <uart_puts_p>
	uart_puts(dtostrf(k_d, 4, 1, buffer));
     5b4:	60 91 b3 01 	lds	r22, 0x01B3	; 0x8001b3 <k_d>
     5b8:	70 91 b4 01 	lds	r23, 0x01B4	; 0x8001b4 <k_d+0x1>
     5bc:	80 91 b5 01 	lds	r24, 0x01B5	; 0x8001b5 <k_d+0x2>
     5c0:	90 91 b6 01 	lds	r25, 0x01B6	; 0x8001b6 <k_d+0x3>
     5c4:	21 e0       	ldi	r18, 0x01	; 1
     5c6:	44 e0       	ldi	r20, 0x04	; 4
     5c8:	0e 94 c1 14 	call	0x2982	; 0x2982 <dtostrf>
     5cc:	0e 94 2b 12 	call	0x2456	; 0x2456 <uart_puts>
	uart_puts_P("\nSpeed:");
     5d0:	89 e9       	ldi	r24, 0x99	; 153
     5d2:	92 e0       	ldi	r25, 0x02	; 2
     5d4:	0e 94 4a 12 	call	0x2494	; 0x2494 <uart_puts_p>
	uart_putInt(baseSpeed);
     5d8:	80 91 00 01 	lds	r24, 0x0100	; 0x800100 <__data_start>
     5dc:	90 91 01 01 	lds	r25, 0x0101	; 0x800101 <__data_start+0x1>
     5e0:	0e 94 7a 0c 	call	0x18f4	; 0x18f4 <uart_putInt>
	setStatusLED(GREEN);
     5e4:	80 e0       	ldi	r24, 0x00	; 0
     5e6:	0e 94 50 0b 	call	0x16a0	; 0x16a0 <setStatusLED>
	uart_puts_P("\nBattery: ");
     5ea:	8e e8       	ldi	r24, 0x8E	; 142
     5ec:	92 e0       	ldi	r25, 0x02	; 2
     5ee:	0e 94 4a 12 	call	0x2494	; 0x2494 <uart_puts_p>
	uart_putInt(systemStatus.battery);
     5f2:	80 91 c2 01 	lds	r24, 0x01C2	; 0x8001c2 <systemStatus+0x1>
     5f6:	90 91 c3 01 	lds	r25, 0x01C3	; 0x8001c3 <systemStatus+0x2>
     5fa:	0e 94 7a 0c 	call	0x18f4	; 0x18f4 <uart_putInt>
}
     5fe:	2f 96       	adiw	r28, 0x0f	; 15
     600:	0f b6       	in	r0, 0x3f	; 63
     602:	f8 94       	cli
     604:	de bf       	out	0x3e, r29	; 62
     606:	0f be       	out	0x3f, r0	; 63
     608:	cd bf       	out	0x3d, r28	; 61
     60a:	df 91       	pop	r29
     60c:	cf 91       	pop	r28
     60e:	1f 91       	pop	r17
     610:	0f 91       	pop	r16
     612:	08 95       	ret

00000614 <receiverNumber>:

void receiverNumber(char *buffer)
{
     614:	0f 93       	push	r16
     616:	1f 93       	push	r17
     618:	cf 93       	push	r28
     61a:	df 93       	push	r29
     61c:	8c 01       	movw	r16, r24
     61e:	c1 e0       	ldi	r28, 0x01	; 1
     620:	df ef       	ldi	r29, 0xFF	; 255
     622:	dc 0f       	add	r29, r28
	uint8_t index = 0;
	bool rxComplete = false;
	
	while (!rxComplete)
	{
		temp = uart_getc();
     624:	0e 94 cc 11 	call	0x2398	; 0x2398 <uart_getc>
		
		if (temp != UART_NO_DATA)
     628:	81 15       	cp	r24, r1
     62a:	21 e0       	ldi	r18, 0x01	; 1
     62c:	92 07       	cpc	r25, r18
     62e:	d1 f3       	breq	.-12     	; 0x624 <receiverNumber+0x10>
		{
			rxChar = (char) temp;
			// Überprüfe ob Trennzeichen vorhanden
			if (rxChar == '\n')
     630:	8a 30       	cpi	r24, 0x0A	; 10
     632:	29 f4       	brne	.+10     	; 0x63e <receiverNumber+0x2a>
			{
				buffer[index++] = '\0';	// String terminieren
     634:	f8 01       	movw	r30, r16
     636:	ed 0f       	add	r30, r29
     638:	f1 1d       	adc	r31, r1
     63a:	10 82       	st	Z, r1
			{
				buffer[index++] = rxChar;	// Neues Zeichen einfügen
			}
		}
	}
}
     63c:	06 c0       	rjmp	.+12     	; 0x64a <receiverNumber+0x36>
				buffer[index++] = '\0';	// String terminieren
				rxComplete = true;		// Zahlen String fertig
			}
			else
			{
				buffer[index++] = rxChar;	// Neues Zeichen einfügen
     63e:	f8 01       	movw	r30, r16
     640:	ed 0f       	add	r30, r29
     642:	f1 1d       	adc	r31, r1
     644:	80 83       	st	Z, r24
     646:	cf 5f       	subi	r28, 0xFF	; 255
     648:	eb cf       	rjmp	.-42     	; 0x620 <receiverNumber+0xc>
			}
		}
	}
}
     64a:	df 91       	pop	r29
     64c:	cf 91       	pop	r28
     64e:	1f 91       	pop	r17
     650:	0f 91       	pop	r16
     652:	08 95       	ret

00000654 <receiveParameters>:

void receiveParameters(void)
{
     654:	cf 93       	push	r28
     656:	df 93       	push	r29
     658:	cd b7       	in	r28, 0x3d	; 61
     65a:	de b7       	in	r29, 0x3e	; 62
     65c:	2a 97       	sbiw	r28, 0x0a	; 10
     65e:	0f b6       	in	r0, 0x3f	; 63
     660:	f8 94       	cli
     662:	de bf       	out	0x3e, r29	; 62
     664:	0f be       	out	0x3f, r0	; 63
     666:	cd bf       	out	0x3d, r28	; 61
	char buffer[10];

	uart_puts_P("\nPID-Reglerparameter einstellen.");
     668:	8d e6       	ldi	r24, 0x6D	; 109
     66a:	92 e0       	ldi	r25, 0x02	; 2
     66c:	0e 94 4a 12 	call	0x2494	; 0x2494 <uart_puts_p>
	uart_puts_P("\nSet KP: ");
     670:	83 e6       	ldi	r24, 0x63	; 99
     672:	92 e0       	ldi	r25, 0x02	; 2
     674:	0e 94 4a 12 	call	0x2494	; 0x2494 <uart_puts_p>
	receiverNumber(buffer);
     678:	ce 01       	movw	r24, r28
     67a:	01 96       	adiw	r24, 0x01	; 1
     67c:	0e 94 0a 03 	call	0x614	; 0x614 <receiverNumber>
	uart_puts(buffer);
     680:	ce 01       	movw	r24, r28
     682:	01 96       	adiw	r24, 0x01	; 1
     684:	0e 94 2b 12 	call	0x2456	; 0x2456 <uart_puts>
	k_p = atof(buffer);
     688:	ce 01       	movw	r24, r28
     68a:	01 96       	adiw	r24, 0x01	; 1
     68c:	0e 94 e1 14 	call	0x29c2	; 0x29c2 <atof>
     690:	60 93 bd 01 	sts	0x01BD, r22	; 0x8001bd <k_p>
     694:	70 93 be 01 	sts	0x01BE, r23	; 0x8001be <k_p+0x1>
     698:	80 93 bf 01 	sts	0x01BF, r24	; 0x8001bf <k_p+0x2>
     69c:	90 93 c0 01 	sts	0x01C0, r25	; 0x8001c0 <k_p+0x3>
	
	uart_puts_P("\nSet KI: ");
     6a0:	89 e5       	ldi	r24, 0x59	; 89
     6a2:	92 e0       	ldi	r25, 0x02	; 2
     6a4:	0e 94 4a 12 	call	0x2494	; 0x2494 <uart_puts_p>
	receiverNumber(buffer);
     6a8:	ce 01       	movw	r24, r28
     6aa:	01 96       	adiw	r24, 0x01	; 1
     6ac:	0e 94 0a 03 	call	0x614	; 0x614 <receiverNumber>
	uart_puts(buffer);
     6b0:	ce 01       	movw	r24, r28
     6b2:	01 96       	adiw	r24, 0x01	; 1
     6b4:	0e 94 2b 12 	call	0x2456	; 0x2456 <uart_puts>
	k_i = atof(buffer);
     6b8:	ce 01       	movw	r24, r28
     6ba:	01 96       	adiw	r24, 0x01	; 1
     6bc:	0e 94 e1 14 	call	0x29c2	; 0x29c2 <atof>
     6c0:	60 93 b7 01 	sts	0x01B7, r22	; 0x8001b7 <k_i>
     6c4:	70 93 b8 01 	sts	0x01B8, r23	; 0x8001b8 <k_i+0x1>
     6c8:	80 93 b9 01 	sts	0x01B9, r24	; 0x8001b9 <k_i+0x2>
     6cc:	90 93 ba 01 	sts	0x01BA, r25	; 0x8001ba <k_i+0x3>

	uart_puts_P("\nSet KD: ");
     6d0:	8f e4       	ldi	r24, 0x4F	; 79
     6d2:	92 e0       	ldi	r25, 0x02	; 2
     6d4:	0e 94 4a 12 	call	0x2494	; 0x2494 <uart_puts_p>
	receiverNumber(buffer);
     6d8:	ce 01       	movw	r24, r28
     6da:	01 96       	adiw	r24, 0x01	; 1
     6dc:	0e 94 0a 03 	call	0x614	; 0x614 <receiverNumber>
	uart_puts(buffer);
     6e0:	ce 01       	movw	r24, r28
     6e2:	01 96       	adiw	r24, 0x01	; 1
     6e4:	0e 94 2b 12 	call	0x2456	; 0x2456 <uart_puts>
	k_d = atof(buffer);
     6e8:	ce 01       	movw	r24, r28
     6ea:	01 96       	adiw	r24, 0x01	; 1
     6ec:	0e 94 e1 14 	call	0x29c2	; 0x29c2 <atof>
     6f0:	60 93 b3 01 	sts	0x01B3, r22	; 0x8001b3 <k_d>
     6f4:	70 93 b4 01 	sts	0x01B4, r23	; 0x8001b4 <k_d+0x1>
     6f8:	80 93 b5 01 	sts	0x01B5, r24	; 0x8001b5 <k_d+0x2>
     6fc:	90 93 b6 01 	sts	0x01B6, r25	; 0x8001b6 <k_d+0x3>
	
	uart_puts_P("\nRegelparameter uebernommen.");
     700:	82 e3       	ldi	r24, 0x32	; 50
     702:	92 e0       	ldi	r25, 0x02	; 2
     704:	0e 94 4a 12 	call	0x2494	; 0x2494 <uart_puts_p>
}
     708:	2a 96       	adiw	r28, 0x0a	; 10
     70a:	0f b6       	in	r0, 0x3f	; 63
     70c:	f8 94       	cli
     70e:	de bf       	out	0x3e, r29	; 62
     710:	0f be       	out	0x3f, r0	; 63
     712:	cd bf       	out	0x3d, r28	; 61
     714:	df 91       	pop	r29
     716:	cf 91       	pop	r28
     718:	08 95       	ret

0000071a <commandProcessor>:
		stopStopwatch3();
	}
}

void commandProcessor(void)
{
     71a:	8f 92       	push	r8
     71c:	9f 92       	push	r9
     71e:	af 92       	push	r10
     720:	bf 92       	push	r11
     722:	cf 92       	push	r12
     724:	df 92       	push	r13
     726:	ef 92       	push	r14
     728:	ff 92       	push	r15
     72a:	1f 93       	push	r17
     72c:	cf 93       	push	r28
     72e:	df 93       	push	r29
     730:	cd b7       	in	r28, 0x3d	; 61
     732:	de b7       	in	r29, 0x3e	; 62
     734:	2a 97       	sbiw	r28, 0x0a	; 10
     736:	0f b6       	in	r0, 0x3f	; 63
     738:	f8 94       	cli
     73a:	de bf       	out	0x3e, r29	; 62
     73c:	0f be       	out	0x3f, r0	; 63
     73e:	cd bf       	out	0x3d, r28	; 61
	uint16_t receive;
	char cmd;
	
	receive = uart_getc();
     740:	0e 94 cc 11 	call	0x2398	; 0x2398 <uart_getc>
	
	if (receive < UART_NO_DATA)
     744:	8f 3f       	cpi	r24, 0xFF	; 255
     746:	91 05       	cpc	r25, r1
     748:	11 f0       	breq	.+4      	; 0x74e <commandProcessor+0x34>
     74a:	08 f0       	brcs	.+2      	; 0x74e <commandProcessor+0x34>
     74c:	9b c0       	rjmp	.+310    	; 0x884 <commandProcessor+0x16a>
	{
		cmd = (char) receive;
     74e:	18 2f       	mov	r17, r24
		
		// Warten auf zweites Zeichen '\n' 
		while(uart_getc() != '\n') {};
     750:	0e 94 cc 11 	call	0x2398	; 0x2398 <uart_getc>
     754:	0a 97       	sbiw	r24, 0x0a	; 10
     756:	e1 f7       	brne	.-8      	; 0x750 <commandProcessor+0x36>
		
		
		if (cmd == CMD_SET_PARA)
     758:	10 37       	cpi	r17, 0x70	; 112
     75a:	09 f0       	breq	.+2      	; 0x75e <commandProcessor+0x44>
     75c:	49 c0       	rjmp	.+146    	; 0x7f0 <commandProcessor+0xd6>
		{
			motorDirection(MOT_BREAK,MOT_BREAK);
     75e:	60 e0       	ldi	r22, 0x00	; 0
     760:	80 e0       	ldi	r24, 0x00	; 0
     762:	0e 94 7e 07 	call	0xefc	; 0xefc <motorDirection>
			setStatusLED(YELLOW);
     766:	83 e0       	ldi	r24, 0x03	; 3
     768:	0e 94 50 0b 	call	0x16a0	; 0x16a0 <setStatusLED>
			receiveParameters();
     76c:	0e 94 2a 03 	call	0x654	; 0x654 <receiveParameters>
			pid_Init(k_p*SCALING_FACTOR, k_i*SCALING_FACTOR, k_d*SCALING_FACTOR, &pidLineData);
     770:	20 e0       	ldi	r18, 0x00	; 0
     772:	30 e0       	ldi	r19, 0x00	; 0
     774:	40 e0       	ldi	r20, 0x00	; 0
     776:	53 e4       	ldi	r21, 0x43	; 67
     778:	60 91 b3 01 	lds	r22, 0x01B3	; 0x8001b3 <k_d>
     77c:	70 91 b4 01 	lds	r23, 0x01B4	; 0x8001b4 <k_d+0x1>
     780:	80 91 b5 01 	lds	r24, 0x01B5	; 0x8001b5 <k_d+0x2>
     784:	90 91 b6 01 	lds	r25, 0x01B6	; 0x8001b6 <k_d+0x3>
     788:	0e 94 01 05 	call	0xa02	; 0xa02 <__mulsf3>
     78c:	0e 94 a2 04 	call	0x944	; 0x944 <__fixsfsi>
     790:	4b 01       	movw	r8, r22
     792:	5c 01       	movw	r10, r24
     794:	20 e0       	ldi	r18, 0x00	; 0
     796:	30 e0       	ldi	r19, 0x00	; 0
     798:	40 e0       	ldi	r20, 0x00	; 0
     79a:	53 e4       	ldi	r21, 0x43	; 67
     79c:	60 91 b7 01 	lds	r22, 0x01B7	; 0x8001b7 <k_i>
     7a0:	70 91 b8 01 	lds	r23, 0x01B8	; 0x8001b8 <k_i+0x1>
     7a4:	80 91 b9 01 	lds	r24, 0x01B9	; 0x8001b9 <k_i+0x2>
     7a8:	90 91 ba 01 	lds	r25, 0x01BA	; 0x8001ba <k_i+0x3>
     7ac:	0e 94 01 05 	call	0xa02	; 0xa02 <__mulsf3>
     7b0:	0e 94 a2 04 	call	0x944	; 0x944 <__fixsfsi>
     7b4:	6b 01       	movw	r12, r22
     7b6:	7c 01       	movw	r14, r24
     7b8:	20 e0       	ldi	r18, 0x00	; 0
     7ba:	30 e0       	ldi	r19, 0x00	; 0
     7bc:	40 e0       	ldi	r20, 0x00	; 0
     7be:	53 e4       	ldi	r21, 0x43	; 67
     7c0:	60 91 bd 01 	lds	r22, 0x01BD	; 0x8001bd <k_p>
     7c4:	70 91 be 01 	lds	r23, 0x01BE	; 0x8001be <k_p+0x1>
     7c8:	80 91 bf 01 	lds	r24, 0x01BF	; 0x8001bf <k_p+0x2>
     7cc:	90 91 c0 01 	lds	r25, 0x01C0	; 0x8001c0 <k_p+0x3>
     7d0:	0e 94 01 05 	call	0xa02	; 0xa02 <__mulsf3>
     7d4:	0e 94 a2 04 	call	0x944	; 0x944 <__fixsfsi>
     7d8:	dc 01       	movw	r26, r24
     7da:	cb 01       	movw	r24, r22
     7dc:	28 ed       	ldi	r18, 0xD8	; 216
     7de:	31 e0       	ldi	r19, 0x01	; 1
     7e0:	a4 01       	movw	r20, r8
     7e2:	b6 01       	movw	r22, r12
     7e4:	0e 94 bf 08 	call	0x117e	; 0x117e <pid_Init>
			setStatusLED(GREEN);
     7e8:	80 e0       	ldi	r24, 0x00	; 0
     7ea:	0e 94 50 0b 	call	0x16a0	; 0x16a0 <setStatusLED>
     7ee:	4a c0       	rjmp	.+148    	; 0x884 <commandProcessor+0x16a>
		}
		else if (cmd == CMD_STOP)
     7f0:	13 37       	cpi	r17, 0x73	; 115
     7f2:	81 f4       	brne	.+32     	; 0x814 <commandProcessor+0xfa>
		{
			uart_puts_P("\nBot Stop.");
     7f4:	84 ed       	ldi	r24, 0xD4	; 212
     7f6:	91 e0       	ldi	r25, 0x01	; 1
     7f8:	0e 94 4a 12 	call	0x2494	; 0x2494 <uart_puts_p>
			motorDirection(MOT_BREAK, MOT_BREAK);
     7fc:	60 e0       	ldi	r22, 0x00	; 0
     7fe:	80 e0       	ldi	r24, 0x00	; 0
     800:	0e 94 7e 07 	call	0xefc	; 0xefc <motorDirection>
			printMenu();
     804:	0e 94 8b 02 	call	0x516	; 0x516 <printMenu>
			setStatusLED(GREEN);
     808:	80 e0       	ldi	r24, 0x00	; 0
     80a:	0e 94 50 0b 	call	0x16a0	; 0x16a0 <setStatusLED>
			drive = false;
     80e:	10 92 17 01 	sts	0x0117, r1	; 0x800117 <drive>
     812:	38 c0       	rjmp	.+112    	; 0x884 <commandProcessor+0x16a>
		}
		else if (cmd == CMD_GO)
     814:	17 36       	cpi	r17, 0x67	; 103
     816:	d1 f4       	brne	.+52     	; 0x84c <commandProcessor+0x132>
		{
			uart_puts_P("\nBot Start.");
     818:	88 ec       	ldi	r24, 0xC8	; 200
     81a:	91 e0       	ldi	r25, 0x01	; 1
     81c:	0e 94 4a 12 	call	0x2494	; 0x2494 <uart_puts_p>
			motorDirection(MOT_FWD, MOT_FWD);
     820:	61 e0       	ldi	r22, 0x01	; 1
     822:	81 e0       	ldi	r24, 0x01	; 1
     824:	0e 94 7e 07 	call	0xefc	; 0xefc <motorDirection>
			motor_speed(baseSpeed, baseSpeed);
     828:	80 91 00 01 	lds	r24, 0x0100	; 0x800100 <__data_start>
     82c:	90 91 01 01 	lds	r25, 0x0101	; 0x800101 <__data_start+0x1>
     830:	bc 01       	movw	r22, r24
     832:	0e 94 20 08 	call	0x1040	; 0x1040 <motor_speed>
			pid_Reset_Integrator(&pidLineData);
     836:	88 ed       	ldi	r24, 0xD8	; 216
     838:	91 e0       	ldi	r25, 0x01	; 1
     83a:	0e 94 81 0a 	call	0x1502	; 0x1502 <pid_Reset_Integrator>
			setStatusLED(RED);
     83e:	81 e0       	ldi	r24, 0x01	; 1
     840:	0e 94 50 0b 	call	0x16a0	; 0x16a0 <setStatusLED>
			drive = true;
     844:	81 e0       	ldi	r24, 0x01	; 1
     846:	80 93 17 01 	sts	0x0117, r24	; 0x800117 <drive>
     84a:	1c c0       	rjmp	.+56     	; 0x884 <commandProcessor+0x16a>
		}
		else if (cmd == CMD_SET_SPEED)
     84c:	14 37       	cpi	r17, 0x74	; 116
     84e:	d1 f4       	brne	.+52     	; 0x884 <commandProcessor+0x16a>
		{
			char buffer[10];
			uart_puts_P("\nSet Speed:");
     850:	8c eb       	ldi	r24, 0xBC	; 188
     852:	91 e0       	ldi	r25, 0x01	; 1
     854:	0e 94 4a 12 	call	0x2494	; 0x2494 <uart_puts_p>
			setStatusLED(YELLOW);
     858:	83 e0       	ldi	r24, 0x03	; 3
     85a:	0e 94 50 0b 	call	0x16a0	; 0x16a0 <setStatusLED>
			receiverNumber(buffer);
     85e:	ce 01       	movw	r24, r28
     860:	01 96       	adiw	r24, 0x01	; 1
     862:	0e 94 0a 03 	call	0x614	; 0x614 <receiverNumber>
			baseSpeed = atoi(buffer);
     866:	ce 01       	movw	r24, r28
     868:	01 96       	adiw	r24, 0x01	; 1
     86a:	0e 94 e5 14 	call	0x29ca	; 0x29ca <atoi>
     86e:	90 93 01 01 	sts	0x0101, r25	; 0x800101 <__data_start+0x1>
     872:	80 93 00 01 	sts	0x0100, r24	; 0x800100 <__data_start>
			uart_puts(buffer);
     876:	ce 01       	movw	r24, r28
     878:	01 96       	adiw	r24, 0x01	; 1
     87a:	0e 94 2b 12 	call	0x2456	; 0x2456 <uart_puts>
			setStatusLED(GREEN);
     87e:	80 e0       	ldi	r24, 0x00	; 0
     880:	0e 94 50 0b 	call	0x16a0	; 0x16a0 <setStatusLED>
		}
	}
}
     884:	2a 96       	adiw	r28, 0x0a	; 10
     886:	0f b6       	in	r0, 0x3f	; 63
     888:	f8 94       	cli
     88a:	de bf       	out	0x3e, r29	; 62
     88c:	0f be       	out	0x3f, r0	; 63
     88e:	cd bf       	out	0x3d, r28	; 61
     890:	df 91       	pop	r29
     892:	cf 91       	pop	r28
     894:	1f 91       	pop	r17
     896:	ff 90       	pop	r15
     898:	ef 90       	pop	r14
     89a:	df 90       	pop	r13
     89c:	cf 90       	pop	r12
     89e:	bf 90       	pop	r11
     8a0:	af 90       	pop	r10
     8a2:	9f 90       	pop	r9
     8a4:	8f 90       	pop	r8
     8a6:	08 95       	ret

000008a8 <main>:

int main(void)
{
    systemInit();
     8a8:	0e 94 9c 0e 	call	0x1d38	; 0x1d38 <systemInit>
	drive_setStateChangedHandler(driveHandler);
     8ac:	8b ec       	ldi	r24, 0xCB	; 203
     8ae:	91 e0       	ldi	r25, 0x01	; 1
     8b0:	0e 94 4a 0e 	call	0x1c94	; 0x1c94 <drive_setStateChangedHandler>

	enableDevice(EN_BLUETOOTH);
     8b4:	81 e0       	ldi	r24, 0x01	; 1
     8b6:	0e 94 8a 0b 	call	0x1714	; 0x1714 <enableDevice>
	
	waitStart();
     8ba:	0e 94 95 0a 	call	0x152a	; 0x152a <waitStart>
	k_p = K_P;
     8be:	80 e0       	ldi	r24, 0x00	; 0
     8c0:	90 e0       	ldi	r25, 0x00	; 0
     8c2:	a0 e0       	ldi	r26, 0x00	; 0
     8c4:	bf e3       	ldi	r27, 0x3F	; 63
     8c6:	80 93 bd 01 	sts	0x01BD, r24	; 0x8001bd <k_p>
     8ca:	90 93 be 01 	sts	0x01BE, r25	; 0x8001be <k_p+0x1>
     8ce:	a0 93 bf 01 	sts	0x01BF, r26	; 0x8001bf <k_p+0x2>
     8d2:	b0 93 c0 01 	sts	0x01C0, r27	; 0x8001c0 <k_p+0x3>
	k_i = K_I;
     8d6:	10 92 b7 01 	sts	0x01B7, r1	; 0x8001b7 <k_i>
     8da:	10 92 b8 01 	sts	0x01B8, r1	; 0x8001b8 <k_i+0x1>
     8de:	10 92 b9 01 	sts	0x01B9, r1	; 0x8001b9 <k_i+0x2>
     8e2:	10 92 ba 01 	sts	0x01BA, r1	; 0x8001ba <k_i+0x3>
	k_d = K_D;
     8e6:	8d ec       	ldi	r24, 0xCD	; 205
     8e8:	9c ec       	ldi	r25, 0xCC	; 204
     8ea:	ac e4       	ldi	r26, 0x4C	; 76
     8ec:	bf e3       	ldi	r27, 0x3F	; 63
     8ee:	80 93 b3 01 	sts	0x01B3, r24	; 0x8001b3 <k_d>
     8f2:	90 93 b4 01 	sts	0x01B4, r25	; 0x8001b4 <k_d+0x1>
     8f6:	a0 93 b5 01 	sts	0x01B5, r26	; 0x8001b5 <k_d+0x2>
     8fa:	b0 93 b6 01 	sts	0x01B6, r27	; 0x8001b6 <k_d+0x3>
	printMenu();
     8fe:	0e 94 8b 02 	call	0x516	; 0x516 <printMenu>
	pid_Init(K_P*SCALING_FACTOR, K_I*SCALING_FACTOR, K_D*SCALING_FACTOR, &pidLineData);
     902:	28 ed       	ldi	r18, 0xD8	; 216
     904:	31 e0       	ldi	r19, 0x01	; 1
     906:	46 e6       	ldi	r20, 0x66	; 102
     908:	50 e0       	ldi	r21, 0x00	; 0
     90a:	60 e0       	ldi	r22, 0x00	; 0
     90c:	70 e0       	ldi	r23, 0x00	; 0
     90e:	80 e4       	ldi	r24, 0x40	; 64
     910:	90 e0       	ldi	r25, 0x00	; 0
     912:	0e 94 bf 08 	call	0x117e	; 0x117e <pid_Init>
	systemStatus.pwrON = true;
     916:	e1 ec       	ldi	r30, 0xC1	; 193
     918:	f1 e0       	ldi	r31, 0x01	; 1
     91a:	80 81       	ld	r24, Z
     91c:	81 60       	ori	r24, 0x01	; 1
     91e:	80 83       	st	Z, r24
	
    while (1) 
    {
		taskSystem();
     920:	0e 94 8e 0e 	call	0x1d1c	; 0x1d1c <taskSystem>
		
		commandProcessor();
     924:	0e 94 8d 03 	call	0x71a	; 0x71a <commandProcessor>
		
		if (userButton())
     928:	1b 99       	sbic	0x03, 3	; 3
     92a:	fa cf       	rjmp	.-12     	; 0x920 <main+0x78>
		{
			uart_puts_P("\nBot Stop.");
     92c:	81 eb       	ldi	r24, 0xB1	; 177
     92e:	91 e0       	ldi	r25, 0x01	; 1
     930:	0e 94 4a 12 	call	0x2494	; 0x2494 <uart_puts_p>
			motorDirection(MOT_BREAK, MOT_BREAK);
     934:	60 e0       	ldi	r22, 0x00	; 0
     936:	80 e0       	ldi	r24, 0x00	; 0
     938:	0e 94 7e 07 	call	0xefc	; 0xefc <motorDirection>
			setStatusLED(GREEN);
     93c:	80 e0       	ldi	r24, 0x00	; 0
     93e:	0e 94 50 0b 	call	0x16a0	; 0x16a0 <setStatusLED>
     942:	ee cf       	rjmp	.-36     	; 0x920 <main+0x78>

00000944 <__fixsfsi>:
     944:	0e 94 a9 04 	call	0x952	; 0x952 <__fixunssfsi>
     948:	68 94       	set
     94a:	b1 11       	cpse	r27, r1
     94c:	0c 94 fb 04 	jmp	0x9f6	; 0x9f6 <__fp_szero>
     950:	08 95       	ret

00000952 <__fixunssfsi>:
     952:	0e 94 e0 04 	call	0x9c0	; 0x9c0 <__fp_splitA>
     956:	88 f0       	brcs	.+34     	; 0x97a <__fixunssfsi+0x28>
     958:	9f 57       	subi	r25, 0x7F	; 127
     95a:	98 f0       	brcs	.+38     	; 0x982 <__fixunssfsi+0x30>
     95c:	b9 2f       	mov	r27, r25
     95e:	99 27       	eor	r25, r25
     960:	b7 51       	subi	r27, 0x17	; 23
     962:	b0 f0       	brcs	.+44     	; 0x990 <__fixunssfsi+0x3e>
     964:	e1 f0       	breq	.+56     	; 0x99e <__fixunssfsi+0x4c>
     966:	66 0f       	add	r22, r22
     968:	77 1f       	adc	r23, r23
     96a:	88 1f       	adc	r24, r24
     96c:	99 1f       	adc	r25, r25
     96e:	1a f0       	brmi	.+6      	; 0x976 <__fixunssfsi+0x24>
     970:	ba 95       	dec	r27
     972:	c9 f7       	brne	.-14     	; 0x966 <__fixunssfsi+0x14>
     974:	14 c0       	rjmp	.+40     	; 0x99e <__fixunssfsi+0x4c>
     976:	b1 30       	cpi	r27, 0x01	; 1
     978:	91 f0       	breq	.+36     	; 0x99e <__fixunssfsi+0x4c>
     97a:	0e 94 fa 04 	call	0x9f4	; 0x9f4 <__fp_zero>
     97e:	b1 e0       	ldi	r27, 0x01	; 1
     980:	08 95       	ret
     982:	0c 94 fa 04 	jmp	0x9f4	; 0x9f4 <__fp_zero>
     986:	67 2f       	mov	r22, r23
     988:	78 2f       	mov	r23, r24
     98a:	88 27       	eor	r24, r24
     98c:	b8 5f       	subi	r27, 0xF8	; 248
     98e:	39 f0       	breq	.+14     	; 0x99e <__fixunssfsi+0x4c>
     990:	b9 3f       	cpi	r27, 0xF9	; 249
     992:	cc f3       	brlt	.-14     	; 0x986 <__fixunssfsi+0x34>
     994:	86 95       	lsr	r24
     996:	77 95       	ror	r23
     998:	67 95       	ror	r22
     99a:	b3 95       	inc	r27
     99c:	d9 f7       	brne	.-10     	; 0x994 <__fixunssfsi+0x42>
     99e:	3e f4       	brtc	.+14     	; 0x9ae <__fixunssfsi+0x5c>
     9a0:	90 95       	com	r25
     9a2:	80 95       	com	r24
     9a4:	70 95       	com	r23
     9a6:	61 95       	neg	r22
     9a8:	7f 4f       	sbci	r23, 0xFF	; 255
     9aa:	8f 4f       	sbci	r24, 0xFF	; 255
     9ac:	9f 4f       	sbci	r25, 0xFF	; 255
     9ae:	08 95       	ret

000009b0 <__fp_split3>:
     9b0:	57 fd       	sbrc	r21, 7
     9b2:	90 58       	subi	r25, 0x80	; 128
     9b4:	44 0f       	add	r20, r20
     9b6:	55 1f       	adc	r21, r21
     9b8:	59 f0       	breq	.+22     	; 0x9d0 <__fp_splitA+0x10>
     9ba:	5f 3f       	cpi	r21, 0xFF	; 255
     9bc:	71 f0       	breq	.+28     	; 0x9da <__fp_splitA+0x1a>
     9be:	47 95       	ror	r20

000009c0 <__fp_splitA>:
     9c0:	88 0f       	add	r24, r24
     9c2:	97 fb       	bst	r25, 7
     9c4:	99 1f       	adc	r25, r25
     9c6:	61 f0       	breq	.+24     	; 0x9e0 <__fp_splitA+0x20>
     9c8:	9f 3f       	cpi	r25, 0xFF	; 255
     9ca:	79 f0       	breq	.+30     	; 0x9ea <__fp_splitA+0x2a>
     9cc:	87 95       	ror	r24
     9ce:	08 95       	ret
     9d0:	12 16       	cp	r1, r18
     9d2:	13 06       	cpc	r1, r19
     9d4:	14 06       	cpc	r1, r20
     9d6:	55 1f       	adc	r21, r21
     9d8:	f2 cf       	rjmp	.-28     	; 0x9be <__fp_split3+0xe>
     9da:	46 95       	lsr	r20
     9dc:	f1 df       	rcall	.-30     	; 0x9c0 <__fp_splitA>
     9de:	08 c0       	rjmp	.+16     	; 0x9f0 <__fp_splitA+0x30>
     9e0:	16 16       	cp	r1, r22
     9e2:	17 06       	cpc	r1, r23
     9e4:	18 06       	cpc	r1, r24
     9e6:	99 1f       	adc	r25, r25
     9e8:	f1 cf       	rjmp	.-30     	; 0x9cc <__fp_splitA+0xc>
     9ea:	86 95       	lsr	r24
     9ec:	71 05       	cpc	r23, r1
     9ee:	61 05       	cpc	r22, r1
     9f0:	08 94       	sec
     9f2:	08 95       	ret

000009f4 <__fp_zero>:
     9f4:	e8 94       	clt

000009f6 <__fp_szero>:
     9f6:	bb 27       	eor	r27, r27
     9f8:	66 27       	eor	r22, r22
     9fa:	77 27       	eor	r23, r23
     9fc:	cb 01       	movw	r24, r22
     9fe:	97 f9       	bld	r25, 7
     a00:	08 95       	ret

00000a02 <__mulsf3>:
     a02:	0e 94 14 05 	call	0xa28	; 0xa28 <__mulsf3x>
     a06:	0c 94 85 05 	jmp	0xb0a	; 0xb0a <__fp_round>
     a0a:	0e 94 77 05 	call	0xaee	; 0xaee <__fp_pscA>
     a0e:	38 f0       	brcs	.+14     	; 0xa1e <__mulsf3+0x1c>
     a10:	0e 94 7e 05 	call	0xafc	; 0xafc <__fp_pscB>
     a14:	20 f0       	brcs	.+8      	; 0xa1e <__mulsf3+0x1c>
     a16:	95 23       	and	r25, r21
     a18:	11 f0       	breq	.+4      	; 0xa1e <__mulsf3+0x1c>
     a1a:	0c 94 6e 05 	jmp	0xadc	; 0xadc <__fp_inf>
     a1e:	0c 94 74 05 	jmp	0xae8	; 0xae8 <__fp_nan>
     a22:	11 24       	eor	r1, r1
     a24:	0c 94 fb 04 	jmp	0x9f6	; 0x9f6 <__fp_szero>

00000a28 <__mulsf3x>:
     a28:	0e 94 d8 04 	call	0x9b0	; 0x9b0 <__fp_split3>
     a2c:	70 f3       	brcs	.-36     	; 0xa0a <__mulsf3+0x8>

00000a2e <__mulsf3_pse>:
     a2e:	95 9f       	mul	r25, r21
     a30:	c1 f3       	breq	.-16     	; 0xa22 <__mulsf3+0x20>
     a32:	95 0f       	add	r25, r21
     a34:	50 e0       	ldi	r21, 0x00	; 0
     a36:	55 1f       	adc	r21, r21
     a38:	62 9f       	mul	r22, r18
     a3a:	f0 01       	movw	r30, r0
     a3c:	72 9f       	mul	r23, r18
     a3e:	bb 27       	eor	r27, r27
     a40:	f0 0d       	add	r31, r0
     a42:	b1 1d       	adc	r27, r1
     a44:	63 9f       	mul	r22, r19
     a46:	aa 27       	eor	r26, r26
     a48:	f0 0d       	add	r31, r0
     a4a:	b1 1d       	adc	r27, r1
     a4c:	aa 1f       	adc	r26, r26
     a4e:	64 9f       	mul	r22, r20
     a50:	66 27       	eor	r22, r22
     a52:	b0 0d       	add	r27, r0
     a54:	a1 1d       	adc	r26, r1
     a56:	66 1f       	adc	r22, r22
     a58:	82 9f       	mul	r24, r18
     a5a:	22 27       	eor	r18, r18
     a5c:	b0 0d       	add	r27, r0
     a5e:	a1 1d       	adc	r26, r1
     a60:	62 1f       	adc	r22, r18
     a62:	73 9f       	mul	r23, r19
     a64:	b0 0d       	add	r27, r0
     a66:	a1 1d       	adc	r26, r1
     a68:	62 1f       	adc	r22, r18
     a6a:	83 9f       	mul	r24, r19
     a6c:	a0 0d       	add	r26, r0
     a6e:	61 1d       	adc	r22, r1
     a70:	22 1f       	adc	r18, r18
     a72:	74 9f       	mul	r23, r20
     a74:	33 27       	eor	r19, r19
     a76:	a0 0d       	add	r26, r0
     a78:	61 1d       	adc	r22, r1
     a7a:	23 1f       	adc	r18, r19
     a7c:	84 9f       	mul	r24, r20
     a7e:	60 0d       	add	r22, r0
     a80:	21 1d       	adc	r18, r1
     a82:	82 2f       	mov	r24, r18
     a84:	76 2f       	mov	r23, r22
     a86:	6a 2f       	mov	r22, r26
     a88:	11 24       	eor	r1, r1
     a8a:	9f 57       	subi	r25, 0x7F	; 127
     a8c:	50 40       	sbci	r21, 0x00	; 0
     a8e:	9a f0       	brmi	.+38     	; 0xab6 <__mulsf3_pse+0x88>
     a90:	f1 f0       	breq	.+60     	; 0xace <__mulsf3_pse+0xa0>
     a92:	88 23       	and	r24, r24
     a94:	4a f0       	brmi	.+18     	; 0xaa8 <__mulsf3_pse+0x7a>
     a96:	ee 0f       	add	r30, r30
     a98:	ff 1f       	adc	r31, r31
     a9a:	bb 1f       	adc	r27, r27
     a9c:	66 1f       	adc	r22, r22
     a9e:	77 1f       	adc	r23, r23
     aa0:	88 1f       	adc	r24, r24
     aa2:	91 50       	subi	r25, 0x01	; 1
     aa4:	50 40       	sbci	r21, 0x00	; 0
     aa6:	a9 f7       	brne	.-22     	; 0xa92 <__mulsf3_pse+0x64>
     aa8:	9e 3f       	cpi	r25, 0xFE	; 254
     aaa:	51 05       	cpc	r21, r1
     aac:	80 f0       	brcs	.+32     	; 0xace <__mulsf3_pse+0xa0>
     aae:	0c 94 6e 05 	jmp	0xadc	; 0xadc <__fp_inf>
     ab2:	0c 94 fb 04 	jmp	0x9f6	; 0x9f6 <__fp_szero>
     ab6:	5f 3f       	cpi	r21, 0xFF	; 255
     ab8:	e4 f3       	brlt	.-8      	; 0xab2 <__mulsf3_pse+0x84>
     aba:	98 3e       	cpi	r25, 0xE8	; 232
     abc:	d4 f3       	brlt	.-12     	; 0xab2 <__mulsf3_pse+0x84>
     abe:	86 95       	lsr	r24
     ac0:	77 95       	ror	r23
     ac2:	67 95       	ror	r22
     ac4:	b7 95       	ror	r27
     ac6:	f7 95       	ror	r31
     ac8:	e7 95       	ror	r30
     aca:	9f 5f       	subi	r25, 0xFF	; 255
     acc:	c1 f7       	brne	.-16     	; 0xabe <__mulsf3_pse+0x90>
     ace:	fe 2b       	or	r31, r30
     ad0:	88 0f       	add	r24, r24
     ad2:	91 1d       	adc	r25, r1
     ad4:	96 95       	lsr	r25
     ad6:	87 95       	ror	r24
     ad8:	97 f9       	bld	r25, 7
     ada:	08 95       	ret

00000adc <__fp_inf>:
     adc:	97 f9       	bld	r25, 7
     ade:	9f 67       	ori	r25, 0x7F	; 127
     ae0:	80 e8       	ldi	r24, 0x80	; 128
     ae2:	70 e0       	ldi	r23, 0x00	; 0
     ae4:	60 e0       	ldi	r22, 0x00	; 0
     ae6:	08 95       	ret

00000ae8 <__fp_nan>:
     ae8:	9f ef       	ldi	r25, 0xFF	; 255
     aea:	80 ec       	ldi	r24, 0xC0	; 192
     aec:	08 95       	ret

00000aee <__fp_pscA>:
     aee:	00 24       	eor	r0, r0
     af0:	0a 94       	dec	r0
     af2:	16 16       	cp	r1, r22
     af4:	17 06       	cpc	r1, r23
     af6:	18 06       	cpc	r1, r24
     af8:	09 06       	cpc	r0, r25
     afa:	08 95       	ret

00000afc <__fp_pscB>:
     afc:	00 24       	eor	r0, r0
     afe:	0a 94       	dec	r0
     b00:	12 16       	cp	r1, r18
     b02:	13 06       	cpc	r1, r19
     b04:	14 06       	cpc	r1, r20
     b06:	05 06       	cpc	r0, r21
     b08:	08 95       	ret

00000b0a <__fp_round>:
     b0a:	09 2e       	mov	r0, r25
     b0c:	03 94       	inc	r0
     b0e:	00 0c       	add	r0, r0
     b10:	11 f4       	brne	.+4      	; 0xb16 <__fp_round+0xc>
     b12:	88 23       	and	r24, r24
     b14:	52 f0       	brmi	.+20     	; 0xb2a <__fp_round+0x20>
     b16:	bb 0f       	add	r27, r27
     b18:	40 f4       	brcc	.+16     	; 0xb2a <__fp_round+0x20>
     b1a:	bf 2b       	or	r27, r31
     b1c:	11 f4       	brne	.+4      	; 0xb22 <__fp_round+0x18>
     b1e:	60 ff       	sbrs	r22, 0
     b20:	04 c0       	rjmp	.+8      	; 0xb2a <__fp_round+0x20>
     b22:	6f 5f       	subi	r22, 0xFF	; 255
     b24:	7f 4f       	sbci	r23, 0xFF	; 255
     b26:	8f 4f       	sbci	r24, 0xFF	; 255
     b28:	9f 4f       	sbci	r25, 0xFF	; 255
     b2a:	08 95       	ret

00000b2c <line_pwr>:
     b2c:	cf 93       	push	r28
     b2e:	df 93       	push	r29
     b30:	cd b7       	in	r28, 0x3d	; 61
     b32:	de b7       	in	r29, 0x3e	; 62
     b34:	a1 97       	sbiw	r28, 0x21	; 33
     b36:	0f b6       	in	r0, 0x3f	; 63
     b38:	f8 94       	cli
     b3a:	de bf       	out	0x3e, r29	; 62
     b3c:	0f be       	out	0x3f, r0	; 63
     b3e:	cd bf       	out	0x3d, r28	; 61
     b40:	89 a3       	std	Y+33, r24	; 0x21
     b42:	89 a1       	ldd	r24, Y+33	; 0x21
     b44:	80 31       	cpi	r24, 0x10	; 16
     b46:	09 f0       	breq	.+2      	; 0xb4a <line_pwr+0x1e>
     b48:	f3 c0       	rjmp	.+486    	; 0xd30 <line_pwr+0x204>
     b4a:	80 e0       	ldi	r24, 0x00	; 0
     b4c:	0e 94 8a 0b 	call	0x1714	; 0x1714 <enableDevice>
     b50:	80 e0       	ldi	r24, 0x00	; 0
     b52:	90 e0       	ldi	r25, 0x00	; 0
     b54:	a8 e4       	ldi	r26, 0x48	; 72
     b56:	b4 e4       	ldi	r27, 0x44	; 68
     b58:	89 83       	std	Y+1, r24	; 0x01
     b5a:	9a 83       	std	Y+2, r25	; 0x02
     b5c:	ab 83       	std	Y+3, r26	; 0x03
     b5e:	bc 83       	std	Y+4, r27	; 0x04
	__builtin_avr_delay_cycles(__ticks_dc);

#else
	uint8_t __ticks;
	double __tmp2 ;
	__tmp = ((F_CPU) / 3e6) * __us;
     b60:	2b ea       	ldi	r18, 0xAB	; 171
     b62:	3a ea       	ldi	r19, 0xAA	; 170
     b64:	4a ea       	ldi	r20, 0xAA	; 170
     b66:	50 e4       	ldi	r21, 0x40	; 64
     b68:	69 81       	ldd	r22, Y+1	; 0x01
     b6a:	7a 81       	ldd	r23, Y+2	; 0x02
     b6c:	8b 81       	ldd	r24, Y+3	; 0x03
     b6e:	9c 81       	ldd	r25, Y+4	; 0x04
     b70:	0e 94 01 05 	call	0xa02	; 0xa02 <__mulsf3>
     b74:	dc 01       	movw	r26, r24
     b76:	cb 01       	movw	r24, r22
     b78:	8d 83       	std	Y+5, r24	; 0x05
     b7a:	9e 83       	std	Y+6, r25	; 0x06
     b7c:	af 83       	std	Y+7, r26	; 0x07
     b7e:	b8 87       	std	Y+8, r27	; 0x08
	__tmp2 = ((F_CPU) / 4e6) * __us;
     b80:	20 e0       	ldi	r18, 0x00	; 0
     b82:	30 e0       	ldi	r19, 0x00	; 0
     b84:	40 e8       	ldi	r20, 0x80	; 128
     b86:	50 e4       	ldi	r21, 0x40	; 64
     b88:	69 81       	ldd	r22, Y+1	; 0x01
     b8a:	7a 81       	ldd	r23, Y+2	; 0x02
     b8c:	8b 81       	ldd	r24, Y+3	; 0x03
     b8e:	9c 81       	ldd	r25, Y+4	; 0x04
     b90:	0e 94 01 05 	call	0xa02	; 0xa02 <__mulsf3>
     b94:	dc 01       	movw	r26, r24
     b96:	cb 01       	movw	r24, r22
     b98:	89 87       	std	Y+9, r24	; 0x09
     b9a:	9a 87       	std	Y+10, r25	; 0x0a
     b9c:	ab 87       	std	Y+11, r26	; 0x0b
     b9e:	bc 87       	std	Y+12, r27	; 0x0c
	if (__tmp < 1.0)
     ba0:	20 e0       	ldi	r18, 0x00	; 0
     ba2:	30 e0       	ldi	r19, 0x00	; 0
     ba4:	40 e8       	ldi	r20, 0x80	; 128
     ba6:	5f e3       	ldi	r21, 0x3F	; 63
     ba8:	6d 81       	ldd	r22, Y+5	; 0x05
     baa:	7e 81       	ldd	r23, Y+6	; 0x06
     bac:	8f 81       	ldd	r24, Y+7	; 0x07
     bae:	98 85       	ldd	r25, Y+8	; 0x08
     bb0:	0e 94 92 13 	call	0x2724	; 0x2724 <__cmpsf2>
     bb4:	88 23       	and	r24, r24
     bb6:	1c f4       	brge	.+6      	; 0xbbe <line_pwr+0x92>
		__ticks = 1;
     bb8:	81 e0       	ldi	r24, 0x01	; 1
     bba:	8d 87       	std	Y+13, r24	; 0x0d
     bbc:	b2 c0       	rjmp	.+356    	; 0xd22 <line_pwr+0x1f6>
	else if (__tmp2 > 65535)
     bbe:	20 e0       	ldi	r18, 0x00	; 0
     bc0:	3f ef       	ldi	r19, 0xFF	; 255
     bc2:	4f e7       	ldi	r20, 0x7F	; 127
     bc4:	57 e4       	ldi	r21, 0x47	; 71
     bc6:	69 85       	ldd	r22, Y+9	; 0x09
     bc8:	7a 85       	ldd	r23, Y+10	; 0x0a
     bca:	8b 85       	ldd	r24, Y+11	; 0x0b
     bcc:	9c 85       	ldd	r25, Y+12	; 0x0c
     bce:	0e 94 6a 14 	call	0x28d4	; 0x28d4 <__gesf2>
     bd2:	18 16       	cp	r1, r24
     bd4:	0c f0       	brlt	.+2      	; 0xbd8 <line_pwr+0xac>
     bd6:	7b c0       	rjmp	.+246    	; 0xcce <line_pwr+0x1a2>
	{
		_delay_ms(__us / 1000.0);
     bd8:	20 e0       	ldi	r18, 0x00	; 0
     bda:	30 e0       	ldi	r19, 0x00	; 0
     bdc:	4a e7       	ldi	r20, 0x7A	; 122
     bde:	54 e4       	ldi	r21, 0x44	; 68
     be0:	69 81       	ldd	r22, Y+1	; 0x01
     be2:	7a 81       	ldd	r23, Y+2	; 0x02
     be4:	8b 81       	ldd	r24, Y+3	; 0x03
     be6:	9c 81       	ldd	r25, Y+4	; 0x04
     be8:	0e 94 97 13 	call	0x272e	; 0x272e <__divsf3>
     bec:	dc 01       	movw	r26, r24
     bee:	cb 01       	movw	r24, r22
     bf0:	8e 87       	std	Y+14, r24	; 0x0e
     bf2:	9f 87       	std	Y+15, r25	; 0x0f
     bf4:	a8 8b       	std	Y+16, r26	; 0x10
     bf6:	b9 8b       	std	Y+17, r27	; 0x11

	__builtin_avr_delay_cycles(__ticks_dc);

#else
	uint16_t __ticks;
	__tmp = ((F_CPU) / 4e3) * __ms;
     bf8:	20 e0       	ldi	r18, 0x00	; 0
     bfa:	30 e0       	ldi	r19, 0x00	; 0
     bfc:	4a e7       	ldi	r20, 0x7A	; 122
     bfe:	55 e4       	ldi	r21, 0x45	; 69
     c00:	6e 85       	ldd	r22, Y+14	; 0x0e
     c02:	7f 85       	ldd	r23, Y+15	; 0x0f
     c04:	88 89       	ldd	r24, Y+16	; 0x10
     c06:	99 89       	ldd	r25, Y+17	; 0x11
     c08:	0e 94 01 05 	call	0xa02	; 0xa02 <__mulsf3>
     c0c:	dc 01       	movw	r26, r24
     c0e:	cb 01       	movw	r24, r22
     c10:	8a 8b       	std	Y+18, r24	; 0x12
     c12:	9b 8b       	std	Y+19, r25	; 0x13
     c14:	ac 8b       	std	Y+20, r26	; 0x14
     c16:	bd 8b       	std	Y+21, r27	; 0x15
	if (__tmp < 1.0)
     c18:	20 e0       	ldi	r18, 0x00	; 0
     c1a:	30 e0       	ldi	r19, 0x00	; 0
     c1c:	40 e8       	ldi	r20, 0x80	; 128
     c1e:	5f e3       	ldi	r21, 0x3F	; 63
     c20:	6a 89       	ldd	r22, Y+18	; 0x12
     c22:	7b 89       	ldd	r23, Y+19	; 0x13
     c24:	8c 89       	ldd	r24, Y+20	; 0x14
     c26:	9d 89       	ldd	r25, Y+21	; 0x15
     c28:	0e 94 92 13 	call	0x2724	; 0x2724 <__cmpsf2>
     c2c:	88 23       	and	r24, r24
     c2e:	2c f4       	brge	.+10     	; 0xc3a <line_pwr+0x10e>
		__ticks = 1;
     c30:	81 e0       	ldi	r24, 0x01	; 1
     c32:	90 e0       	ldi	r25, 0x00	; 0
     c34:	9f 8b       	std	Y+23, r25	; 0x17
     c36:	8e 8b       	std	Y+22, r24	; 0x16
     c38:	3f c0       	rjmp	.+126    	; 0xcb8 <line_pwr+0x18c>
	else if (__tmp > 65535)
     c3a:	20 e0       	ldi	r18, 0x00	; 0
     c3c:	3f ef       	ldi	r19, 0xFF	; 255
     c3e:	4f e7       	ldi	r20, 0x7F	; 127
     c40:	57 e4       	ldi	r21, 0x47	; 71
     c42:	6a 89       	ldd	r22, Y+18	; 0x12
     c44:	7b 89       	ldd	r23, Y+19	; 0x13
     c46:	8c 89       	ldd	r24, Y+20	; 0x14
     c48:	9d 89       	ldd	r25, Y+21	; 0x15
     c4a:	0e 94 6a 14 	call	0x28d4	; 0x28d4 <__gesf2>
     c4e:	18 16       	cp	r1, r24
     c50:	4c f5       	brge	.+82     	; 0xca4 <line_pwr+0x178>
	{
		//	__ticks = requested delay in 1/10 ms
		__ticks = (uint16_t) (__ms * 10.0);
     c52:	20 e0       	ldi	r18, 0x00	; 0
     c54:	30 e0       	ldi	r19, 0x00	; 0
     c56:	40 e2       	ldi	r20, 0x20	; 32
     c58:	51 e4       	ldi	r21, 0x41	; 65
     c5a:	6e 85       	ldd	r22, Y+14	; 0x0e
     c5c:	7f 85       	ldd	r23, Y+15	; 0x0f
     c5e:	88 89       	ldd	r24, Y+16	; 0x10
     c60:	99 89       	ldd	r25, Y+17	; 0x11
     c62:	0e 94 01 05 	call	0xa02	; 0xa02 <__mulsf3>
     c66:	dc 01       	movw	r26, r24
     c68:	cb 01       	movw	r24, r22
     c6a:	bc 01       	movw	r22, r24
     c6c:	cd 01       	movw	r24, r26
     c6e:	0e 94 a9 04 	call	0x952	; 0x952 <__fixunssfsi>
     c72:	dc 01       	movw	r26, r24
     c74:	cb 01       	movw	r24, r22
     c76:	9f 8b       	std	Y+23, r25	; 0x17
     c78:	8e 8b       	std	Y+22, r24	; 0x16
     c7a:	0f c0       	rjmp	.+30     	; 0xc9a <line_pwr+0x16e>
     c7c:	80 e9       	ldi	r24, 0x90	; 144
     c7e:	91 e0       	ldi	r25, 0x01	; 1
     c80:	99 8f       	std	Y+25, r25	; 0x19
     c82:	88 8f       	std	Y+24, r24	; 0x18
    milliseconds can be achieved.
 */
void
_delay_loop_2(uint16_t __count)
{
	__asm__ volatile (
     c84:	88 8d       	ldd	r24, Y+24	; 0x18
     c86:	99 8d       	ldd	r25, Y+25	; 0x19
     c88:	01 97       	sbiw	r24, 0x01	; 1
     c8a:	f1 f7       	brne	.-4      	; 0xc88 <line_pwr+0x15c>
     c8c:	99 8f       	std	Y+25, r25	; 0x19
     c8e:	88 8f       	std	Y+24, r24	; 0x18
		while(__ticks)
		{
			// wait 1/10 ms
			_delay_loop_2(((F_CPU) / 4e3) / 10);
			__ticks --;
     c90:	8e 89       	ldd	r24, Y+22	; 0x16
     c92:	9f 89       	ldd	r25, Y+23	; 0x17
     c94:	01 97       	sbiw	r24, 0x01	; 1
     c96:	9f 8b       	std	Y+23, r25	; 0x17
     c98:	8e 8b       	std	Y+22, r24	; 0x16
		__ticks = 1;
	else if (__tmp > 65535)
	{
		//	__ticks = requested delay in 1/10 ms
		__ticks = (uint16_t) (__ms * 10.0);
		while(__ticks)
     c9a:	8e 89       	ldd	r24, Y+22	; 0x16
     c9c:	9f 89       	ldd	r25, Y+23	; 0x17
     c9e:	89 2b       	or	r24, r25
     ca0:	69 f7       	brne	.-38     	; 0xc7c <line_pwr+0x150>
     ca2:	3f c0       	rjmp	.+126    	; 0xd22 <line_pwr+0x1f6>
			__ticks --;
		}
		return;
	}
	else
		__ticks = (uint16_t)__tmp;
     ca4:	6a 89       	ldd	r22, Y+18	; 0x12
     ca6:	7b 89       	ldd	r23, Y+19	; 0x13
     ca8:	8c 89       	ldd	r24, Y+20	; 0x14
     caa:	9d 89       	ldd	r25, Y+21	; 0x15
     cac:	0e 94 a9 04 	call	0x952	; 0x952 <__fixunssfsi>
     cb0:	dc 01       	movw	r26, r24
     cb2:	cb 01       	movw	r24, r22
     cb4:	9f 8b       	std	Y+23, r25	; 0x17
     cb6:	8e 8b       	std	Y+22, r24	; 0x16
     cb8:	8e 89       	ldd	r24, Y+22	; 0x16
     cba:	9f 89       	ldd	r25, Y+23	; 0x17
     cbc:	9b 8f       	std	Y+27, r25	; 0x1b
     cbe:	8a 8f       	std	Y+26, r24	; 0x1a
     cc0:	8a 8d       	ldd	r24, Y+26	; 0x1a
     cc2:	9b 8d       	ldd	r25, Y+27	; 0x1b
     cc4:	01 97       	sbiw	r24, 0x01	; 1
     cc6:	f1 f7       	brne	.-4      	; 0xcc4 <line_pwr+0x198>
     cc8:	9b 8f       	std	Y+27, r25	; 0x1b
     cca:	8a 8f       	std	Y+26, r24	; 0x1a
     ccc:	2a c0       	rjmp	.+84     	; 0xd22 <line_pwr+0x1f6>
		__ticks = 1;
	else if (__tmp2 > 65535)
	{
		_delay_ms(__us / 1000.0);
	}
	else if (__tmp > 255)
     cce:	20 e0       	ldi	r18, 0x00	; 0
     cd0:	30 e0       	ldi	r19, 0x00	; 0
     cd2:	4f e7       	ldi	r20, 0x7F	; 127
     cd4:	53 e4       	ldi	r21, 0x43	; 67
     cd6:	6d 81       	ldd	r22, Y+5	; 0x05
     cd8:	7e 81       	ldd	r23, Y+6	; 0x06
     cda:	8f 81       	ldd	r24, Y+7	; 0x07
     cdc:	98 85       	ldd	r25, Y+8	; 0x08
     cde:	0e 94 6a 14 	call	0x28d4	; 0x28d4 <__gesf2>
     ce2:	18 16       	cp	r1, r24
     ce4:	ac f4       	brge	.+42     	; 0xd10 <line_pwr+0x1e4>
	{
		uint16_t __ticks=(uint16_t)__tmp2;
     ce6:	69 85       	ldd	r22, Y+9	; 0x09
     ce8:	7a 85       	ldd	r23, Y+10	; 0x0a
     cea:	8b 85       	ldd	r24, Y+11	; 0x0b
     cec:	9c 85       	ldd	r25, Y+12	; 0x0c
     cee:	0e 94 a9 04 	call	0x952	; 0x952 <__fixunssfsi>
     cf2:	dc 01       	movw	r26, r24
     cf4:	cb 01       	movw	r24, r22
     cf6:	9d 8f       	std	Y+29, r25	; 0x1d
     cf8:	8c 8f       	std	Y+28, r24	; 0x1c
     cfa:	8c 8d       	ldd	r24, Y+28	; 0x1c
     cfc:	9d 8d       	ldd	r25, Y+29	; 0x1d
     cfe:	9f 8f       	std	Y+31, r25	; 0x1f
     d00:	8e 8f       	std	Y+30, r24	; 0x1e
     d02:	8e 8d       	ldd	r24, Y+30	; 0x1e
     d04:	9f 8d       	ldd	r25, Y+31	; 0x1f
     d06:	01 97       	sbiw	r24, 0x01	; 1
     d08:	f1 f7       	brne	.-4      	; 0xd06 <line_pwr+0x1da>
     d0a:	9f 8f       	std	Y+31, r25	; 0x1f
     d0c:	8e 8f       	std	Y+30, r24	; 0x1e
     d0e:	13 c0       	rjmp	.+38     	; 0xd36 <line_pwr+0x20a>
		_delay_loop_2(__ticks);
		return;
	}
	else
		__ticks = (uint8_t)__tmp;
     d10:	6d 81       	ldd	r22, Y+5	; 0x05
     d12:	7e 81       	ldd	r23, Y+6	; 0x06
     d14:	8f 81       	ldd	r24, Y+7	; 0x07
     d16:	98 85       	ldd	r25, Y+8	; 0x08
     d18:	0e 94 a9 04 	call	0x952	; 0x952 <__fixunssfsi>
     d1c:	dc 01       	movw	r26, r24
     d1e:	cb 01       	movw	r24, r22
     d20:	8d 87       	std	Y+13, r24	; 0x0d
     d22:	8d 85       	ldd	r24, Y+13	; 0x0d
     d24:	88 a3       	std	Y+32, r24	; 0x20
    can be achieved.
*/
void
_delay_loop_1(uint8_t __count)
{
	__asm__ volatile (
     d26:	88 a1       	ldd	r24, Y+32	; 0x20
     d28:	8a 95       	dec	r24
     d2a:	f1 f7       	brne	.-4      	; 0xd28 <line_pwr+0x1fc>
     d2c:	88 a3       	std	Y+32, r24	; 0x20
     d2e:	03 c0       	rjmp	.+6      	; 0xd36 <line_pwr+0x20a>
     d30:	80 e0       	ldi	r24, 0x00	; 0
     d32:	0e 94 02 0c 	call	0x1804	; 0x1804 <disableDevice>
     d36:	00 00       	nop
     d38:	a1 96       	adiw	r28, 0x21	; 33
     d3a:	0f b6       	in	r0, 0x3f	; 63
     d3c:	f8 94       	cli
     d3e:	de bf       	out	0x3e, r29	; 62
     d40:	0f be       	out	0x3f, r0	; 63
     d42:	cd bf       	out	0x3d, r28	; 61
     d44:	df 91       	pop	r29
     d46:	cf 91       	pop	r28
     d48:	08 95       	ret

00000d4a <lineRead>:
     d4a:	0f 93       	push	r16
     d4c:	1f 93       	push	r17
     d4e:	cf 93       	push	r28
     d50:	df 93       	push	r29
     d52:	00 d0       	rcall	.+0      	; 0xd54 <lineRead+0xa>
     d54:	00 d0       	rcall	.+0      	; 0xd56 <lineRead+0xc>
     d56:	cd b7       	in	r28, 0x3d	; 61
     d58:	de b7       	in	r29, 0x3e	; 62
     d5a:	80 e1       	ldi	r24, 0x10	; 16
     d5c:	0e 94 96 05 	call	0xb2c	; 0xb2c <line_pwr>
     d60:	19 82       	std	Y+1, r1	; 0x01
     d62:	13 c0       	rjmp	.+38     	; 0xd8a <lineRead+0x40>
     d64:	89 81       	ldd	r24, Y+1	; 0x01
     d66:	08 2f       	mov	r16, r24
     d68:	10 e0       	ldi	r17, 0x00	; 0
     d6a:	89 81       	ldd	r24, Y+1	; 0x01
     d6c:	8d 5f       	subi	r24, 0xFD	; 253
     d6e:	0e 94 e3 0a 	call	0x15c6	; 0x15c6 <adc_Read>
     d72:	9c 01       	movw	r18, r24
     d74:	c8 01       	movw	r24, r16
     d76:	88 0f       	add	r24, r24
     d78:	99 1f       	adc	r25, r25
     d7a:	87 53       	subi	r24, 0x37	; 55
     d7c:	9e 4f       	sbci	r25, 0xFE	; 254
     d7e:	fc 01       	movw	r30, r24
     d80:	31 83       	std	Z+1, r19	; 0x01
     d82:	20 83       	st	Z, r18
     d84:	89 81       	ldd	r24, Y+1	; 0x01
     d86:	8f 5f       	subi	r24, 0xFF	; 255
     d88:	89 83       	std	Y+1, r24	; 0x01
     d8a:	89 81       	ldd	r24, Y+1	; 0x01
     d8c:	85 30       	cpi	r24, 0x05	; 5
     d8e:	50 f3       	brcs	.-44     	; 0xd64 <lineRead+0x1a>
     d90:	8a e0       	ldi	r24, 0x0A	; 10
     d92:	0e 94 96 05 	call	0xb2c	; 0xb2c <line_pwr>
     d96:	80 91 d1 01 	lds	r24, 0x01D1	; 0x8001d1 <lineSensors+0x9>
     d9a:	90 91 d2 01 	lds	r25, 0x01D2	; 0x8001d2 <lineSensors+0xa>
     d9e:	9c 83       	std	Y+4, r25	; 0x04
     da0:	8b 83       	std	Y+3, r24	; 0x03
     da2:	80 91 cf 01 	lds	r24, 0x01CF	; 0x8001cf <lineSensors+0x7>
     da6:	90 91 d0 01 	lds	r25, 0x01D0	; 0x8001d0 <lineSensors+0x8>
     daa:	90 93 d2 01 	sts	0x01D2, r25	; 0x8001d2 <lineSensors+0xa>
     dae:	80 93 d1 01 	sts	0x01D1, r24	; 0x8001d1 <lineSensors+0x9>
     db2:	8b 81       	ldd	r24, Y+3	; 0x03
     db4:	9c 81       	ldd	r25, Y+4	; 0x04
     db6:	90 93 d0 01 	sts	0x01D0, r25	; 0x8001d0 <lineSensors+0x8>
     dba:	80 93 cf 01 	sts	0x01CF, r24	; 0x8001cf <lineSensors+0x7>
     dbe:	1a 82       	std	Y+2, r1	; 0x02
     dc0:	20 c0       	rjmp	.+64     	; 0xe02 <lineRead+0xb8>
     dc2:	8a 81       	ldd	r24, Y+2	; 0x02
     dc4:	88 2f       	mov	r24, r24
     dc6:	90 e0       	ldi	r25, 0x00	; 0
     dc8:	88 0f       	add	r24, r24
     dca:	99 1f       	adc	r25, r25
     dcc:	87 53       	subi	r24, 0x37	; 55
     dce:	9e 4f       	sbci	r25, 0xFE	; 254
     dd0:	fc 01       	movw	r30, r24
     dd2:	80 81       	ld	r24, Z
     dd4:	91 81       	ldd	r25, Z+1	; 0x01
     dd6:	81 3a       	cpi	r24, 0xA1	; 161
     dd8:	91 05       	cpc	r25, r1
     dda:	4c f0       	brlt	.+18     	; 0xdee <lineRead+0xa4>
     ddc:	8a 81       	ldd	r24, Y+2	; 0x02
     dde:	88 2f       	mov	r24, r24
     de0:	90 e0       	ldi	r25, 0x00	; 0
     de2:	8d 52       	subi	r24, 0x2D	; 45
     de4:	9e 4f       	sbci	r25, 0xFE	; 254
     de6:	21 e0       	ldi	r18, 0x01	; 1
     de8:	fc 01       	movw	r30, r24
     dea:	20 83       	st	Z, r18
     dec:	07 c0       	rjmp	.+14     	; 0xdfc <lineRead+0xb2>
     dee:	8a 81       	ldd	r24, Y+2	; 0x02
     df0:	88 2f       	mov	r24, r24
     df2:	90 e0       	ldi	r25, 0x00	; 0
     df4:	8d 52       	subi	r24, 0x2D	; 45
     df6:	9e 4f       	sbci	r25, 0xFE	; 254
     df8:	fc 01       	movw	r30, r24
     dfa:	10 82       	st	Z, r1
     dfc:	8a 81       	ldd	r24, Y+2	; 0x02
     dfe:	8f 5f       	subi	r24, 0xFF	; 255
     e00:	8a 83       	std	Y+2, r24	; 0x02
     e02:	8a 81       	ldd	r24, Y+2	; 0x02
     e04:	85 30       	cpi	r24, 0x05	; 5
     e06:	e8 f2       	brcs	.-70     	; 0xdc2 <lineRead+0x78>
     e08:	00 00       	nop
     e0a:	0f 90       	pop	r0
     e0c:	0f 90       	pop	r0
     e0e:	0f 90       	pop	r0
     e10:	0f 90       	pop	r0
     e12:	df 91       	pop	r29
     e14:	cf 91       	pop	r28
     e16:	1f 91       	pop	r17
     e18:	0f 91       	pop	r16
     e1a:	08 95       	ret

00000e1c <followTrack>:
     e1c:	cf 93       	push	r28
     e1e:	df 93       	push	r29
     e20:	00 d0       	rcall	.+0      	; 0xe22 <followTrack+0x6>
     e22:	cd b7       	in	r28, 0x3d	; 61
     e24:	de b7       	in	r29, 0x3e	; 62
     e26:	20 91 c9 01 	lds	r18, 0x01C9	; 0x8001c9 <lineSensors+0x1>
     e2a:	30 91 ca 01 	lds	r19, 0x01CA	; 0x8001ca <lineSensors+0x2>
     e2e:	80 91 cb 01 	lds	r24, 0x01CB	; 0x8001cb <lineSensors+0x3>
     e32:	90 91 cc 01 	lds	r25, 0x01CC	; 0x8001cc <lineSensors+0x4>
     e36:	28 0f       	add	r18, r24
     e38:	39 1f       	adc	r19, r25
     e3a:	80 91 cf 01 	lds	r24, 0x01CF	; 0x8001cf <lineSensors+0x7>
     e3e:	90 91 d0 01 	lds	r25, 0x01D0	; 0x8001d0 <lineSensors+0x8>
     e42:	28 1b       	sub	r18, r24
     e44:	39 0b       	sbc	r19, r25
     e46:	80 91 d1 01 	lds	r24, 0x01D1	; 0x8001d1 <lineSensors+0x9>
     e4a:	90 91 d2 01 	lds	r25, 0x01D2	; 0x8001d2 <lineSensors+0xa>
     e4e:	a9 01       	movw	r20, r18
     e50:	48 1b       	sub	r20, r24
     e52:	59 0b       	sbc	r21, r25
     e54:	ca 01       	movw	r24, r20
     e56:	9a 83       	std	Y+2, r25	; 0x02
     e58:	89 83       	std	Y+1, r24	; 0x01
     e5a:	89 81       	ldd	r24, Y+1	; 0x01
     e5c:	9a 81       	ldd	r25, Y+2	; 0x02
     e5e:	95 95       	asr	r25
     e60:	87 95       	ror	r24
     e62:	95 95       	asr	r25
     e64:	87 95       	ror	r24
     e66:	9a 83       	std	Y+2, r25	; 0x02
     e68:	89 83       	std	Y+1, r24	; 0x01
     e6a:	89 81       	ldd	r24, Y+1	; 0x01
     e6c:	9a 81       	ldd	r25, Y+2	; 0x02
     e6e:	0f 90       	pop	r0
     e70:	0f 90       	pop	r0
     e72:	df 91       	pop	r29
     e74:	cf 91       	pop	r28
     e76:	08 95       	ret

00000e78 <_log_Debug>:
     e78:	cf 93       	push	r28
     e7a:	df 93       	push	r29
     e7c:	00 d0       	rcall	.+0      	; 0xe7e <_log_Debug+0x6>
     e7e:	cd b7       	in	r28, 0x3d	; 61
     e80:	de b7       	in	r29, 0x3e	; 62
     e82:	86 e3       	ldi	r24, 0x36	; 54
     e84:	93 e0       	ldi	r25, 0x03	; 3
     e86:	0e 94 4a 12 	call	0x2494	; 0x2494 <uart_puts_p>
     e8a:	ce 01       	movw	r24, r28
     e8c:	09 96       	adiw	r24, 0x09	; 9
     e8e:	9a 83       	std	Y+2, r25	; 0x02
     e90:	89 83       	std	Y+1, r24	; 0x01
     e92:	49 81       	ldd	r20, Y+1	; 0x01
     e94:	5a 81       	ldd	r21, Y+2	; 0x02
     e96:	80 91 fd 01 	lds	r24, 0x01FD	; 0x8001fd <__iob+0x2>
     e9a:	90 91 fe 01 	lds	r25, 0x01FE	; 0x8001fe <__iob+0x3>
     e9e:	2f 81       	ldd	r18, Y+7	; 0x07
     ea0:	38 85       	ldd	r19, Y+8	; 0x08
     ea2:	b9 01       	movw	r22, r18
     ea4:	0e 94 3b 15 	call	0x2a76	; 0x2a76 <vfprintf_P>
     ea8:	8a e0       	ldi	r24, 0x0A	; 10
     eaa:	0e 94 00 12 	call	0x2400	; 0x2400 <uart_putc>
     eae:	00 00       	nop
     eb0:	0f 90       	pop	r0
     eb2:	0f 90       	pop	r0
     eb4:	df 91       	pop	r29
     eb6:	cf 91       	pop	r28
     eb8:	08 95       	ret

00000eba <_log_Error>:
     eba:	cf 93       	push	r28
     ebc:	df 93       	push	r29
     ebe:	00 d0       	rcall	.+0      	; 0xec0 <_log_Error+0x6>
     ec0:	cd b7       	in	r28, 0x3d	; 61
     ec2:	de b7       	in	r29, 0x3e	; 62
     ec4:	8f e3       	ldi	r24, 0x3F	; 63
     ec6:	93 e0       	ldi	r25, 0x03	; 3
     ec8:	0e 94 4a 12 	call	0x2494	; 0x2494 <uart_puts_p>
     ecc:	ce 01       	movw	r24, r28
     ece:	09 96       	adiw	r24, 0x09	; 9
     ed0:	9a 83       	std	Y+2, r25	; 0x02
     ed2:	89 83       	std	Y+1, r24	; 0x01
     ed4:	49 81       	ldd	r20, Y+1	; 0x01
     ed6:	5a 81       	ldd	r21, Y+2	; 0x02
     ed8:	80 91 fd 01 	lds	r24, 0x01FD	; 0x8001fd <__iob+0x2>
     edc:	90 91 fe 01 	lds	r25, 0x01FE	; 0x8001fe <__iob+0x3>
     ee0:	2f 81       	ldd	r18, Y+7	; 0x07
     ee2:	38 85       	ldd	r19, Y+8	; 0x08
     ee4:	b9 01       	movw	r22, r18
     ee6:	0e 94 3b 15 	call	0x2a76	; 0x2a76 <vfprintf_P>
     eea:	8a e0       	ldi	r24, 0x0A	; 10
     eec:	0e 94 00 12 	call	0x2400	; 0x2400 <uart_putc>
     ef0:	00 00       	nop
     ef2:	0f 90       	pop	r0
     ef4:	0f 90       	pop	r0
     ef6:	df 91       	pop	r29
     ef8:	cf 91       	pop	r28
     efa:	08 95       	ret

00000efc <motorDirection>:
     efc:	cf 93       	push	r28
     efe:	df 93       	push	r29
     f00:	00 d0       	rcall	.+0      	; 0xf02 <motorDirection+0x6>
     f02:	cd b7       	in	r28, 0x3d	; 61
     f04:	de b7       	in	r29, 0x3e	; 62
     f06:	89 83       	std	Y+1, r24	; 0x01
     f08:	6a 83       	std	Y+2, r22	; 0x02
     f0a:	89 81       	ldd	r24, Y+1	; 0x01
     f0c:	81 30       	cpi	r24, 0x01	; 1
     f0e:	c9 f4       	brne	.+50     	; 0xf42 <motorDirection+0x46>
     f10:	88 e2       	ldi	r24, 0x28	; 40
     f12:	90 e0       	ldi	r25, 0x00	; 0
     f14:	28 e2       	ldi	r18, 0x28	; 40
     f16:	30 e0       	ldi	r19, 0x00	; 0
     f18:	f9 01       	movw	r30, r18
     f1a:	20 81       	ld	r18, Z
     f1c:	28 60       	ori	r18, 0x08	; 8
     f1e:	fc 01       	movw	r30, r24
     f20:	20 83       	st	Z, r18
     f22:	88 e2       	ldi	r24, 0x28	; 40
     f24:	90 e0       	ldi	r25, 0x00	; 0
     f26:	28 e2       	ldi	r18, 0x28	; 40
     f28:	30 e0       	ldi	r19, 0x00	; 0
     f2a:	f9 01       	movw	r30, r18
     f2c:	20 81       	ld	r18, Z
     f2e:	2f 7e       	andi	r18, 0xEF	; 239
     f30:	fc 01       	movw	r30, r24
     f32:	20 83       	st	Z, r18
     f34:	80 91 a2 01 	lds	r24, 0x01A2	; 0x8001a2 <motorStatus>
     f38:	8c 7f       	andi	r24, 0xFC	; 252
     f3a:	81 60       	ori	r24, 0x01	; 1
     f3c:	80 93 a2 01 	sts	0x01A2, r24	; 0x8001a2 <motorStatus>
     f40:	2a c0       	rjmp	.+84     	; 0xf96 <motorDirection+0x9a>
     f42:	89 81       	ldd	r24, Y+1	; 0x01
     f44:	82 30       	cpi	r24, 0x02	; 2
     f46:	c9 f4       	brne	.+50     	; 0xf7a <motorDirection+0x7e>
     f48:	88 e2       	ldi	r24, 0x28	; 40
     f4a:	90 e0       	ldi	r25, 0x00	; 0
     f4c:	28 e2       	ldi	r18, 0x28	; 40
     f4e:	30 e0       	ldi	r19, 0x00	; 0
     f50:	f9 01       	movw	r30, r18
     f52:	20 81       	ld	r18, Z
     f54:	20 61       	ori	r18, 0x10	; 16
     f56:	fc 01       	movw	r30, r24
     f58:	20 83       	st	Z, r18
     f5a:	88 e2       	ldi	r24, 0x28	; 40
     f5c:	90 e0       	ldi	r25, 0x00	; 0
     f5e:	28 e2       	ldi	r18, 0x28	; 40
     f60:	30 e0       	ldi	r19, 0x00	; 0
     f62:	f9 01       	movw	r30, r18
     f64:	20 81       	ld	r18, Z
     f66:	27 7f       	andi	r18, 0xF7	; 247
     f68:	fc 01       	movw	r30, r24
     f6a:	20 83       	st	Z, r18
     f6c:	80 91 a2 01 	lds	r24, 0x01A2	; 0x8001a2 <motorStatus>
     f70:	8c 7f       	andi	r24, 0xFC	; 252
     f72:	82 60       	ori	r24, 0x02	; 2
     f74:	80 93 a2 01 	sts	0x01A2, r24	; 0x8001a2 <motorStatus>
     f78:	0e c0       	rjmp	.+28     	; 0xf96 <motorDirection+0x9a>
     f7a:	88 e2       	ldi	r24, 0x28	; 40
     f7c:	90 e0       	ldi	r25, 0x00	; 0
     f7e:	28 e2       	ldi	r18, 0x28	; 40
     f80:	30 e0       	ldi	r19, 0x00	; 0
     f82:	f9 01       	movw	r30, r18
     f84:	20 81       	ld	r18, Z
     f86:	27 7e       	andi	r18, 0xE7	; 231
     f88:	fc 01       	movw	r30, r24
     f8a:	20 83       	st	Z, r18
     f8c:	80 91 a2 01 	lds	r24, 0x01A2	; 0x8001a2 <motorStatus>
     f90:	8c 7f       	andi	r24, 0xFC	; 252
     f92:	80 93 a2 01 	sts	0x01A2, r24	; 0x8001a2 <motorStatus>
     f96:	8a 81       	ldd	r24, Y+2	; 0x02
     f98:	81 30       	cpi	r24, 0x01	; 1
     f9a:	c9 f4       	brne	.+50     	; 0xfce <motorDirection+0xd2>
     f9c:	88 e2       	ldi	r24, 0x28	; 40
     f9e:	90 e0       	ldi	r25, 0x00	; 0
     fa0:	28 e2       	ldi	r18, 0x28	; 40
     fa2:	30 e0       	ldi	r19, 0x00	; 0
     fa4:	f9 01       	movw	r30, r18
     fa6:	20 81       	ld	r18, Z
     fa8:	2b 7f       	andi	r18, 0xFB	; 251
     faa:	fc 01       	movw	r30, r24
     fac:	20 83       	st	Z, r18
     fae:	8b e2       	ldi	r24, 0x2B	; 43
     fb0:	90 e0       	ldi	r25, 0x00	; 0
     fb2:	2b e2       	ldi	r18, 0x2B	; 43
     fb4:	30 e0       	ldi	r19, 0x00	; 0
     fb6:	f9 01       	movw	r30, r18
     fb8:	20 81       	ld	r18, Z
     fba:	20 61       	ori	r18, 0x10	; 16
     fbc:	fc 01       	movw	r30, r24
     fbe:	20 83       	st	Z, r18
     fc0:	80 91 a2 01 	lds	r24, 0x01A2	; 0x8001a2 <motorStatus>
     fc4:	83 7f       	andi	r24, 0xF3	; 243
     fc6:	84 60       	ori	r24, 0x04	; 4
     fc8:	80 93 a2 01 	sts	0x01A2, r24	; 0x8001a2 <motorStatus>
     fcc:	33 c0       	rjmp	.+102    	; 0x1034 <motorDirection+0x138>
     fce:	8a 81       	ldd	r24, Y+2	; 0x02
     fd0:	82 30       	cpi	r24, 0x02	; 2
     fd2:	c9 f4       	brne	.+50     	; 0x1006 <motorDirection+0x10a>
     fd4:	88 e2       	ldi	r24, 0x28	; 40
     fd6:	90 e0       	ldi	r25, 0x00	; 0
     fd8:	28 e2       	ldi	r18, 0x28	; 40
     fda:	30 e0       	ldi	r19, 0x00	; 0
     fdc:	f9 01       	movw	r30, r18
     fde:	20 81       	ld	r18, Z
     fe0:	24 60       	ori	r18, 0x04	; 4
     fe2:	fc 01       	movw	r30, r24
     fe4:	20 83       	st	Z, r18
     fe6:	8b e2       	ldi	r24, 0x2B	; 43
     fe8:	90 e0       	ldi	r25, 0x00	; 0
     fea:	2b e2       	ldi	r18, 0x2B	; 43
     fec:	30 e0       	ldi	r19, 0x00	; 0
     fee:	f9 01       	movw	r30, r18
     ff0:	20 81       	ld	r18, Z
     ff2:	2f 7e       	andi	r18, 0xEF	; 239
     ff4:	fc 01       	movw	r30, r24
     ff6:	20 83       	st	Z, r18
     ff8:	80 91 a2 01 	lds	r24, 0x01A2	; 0x8001a2 <motorStatus>
     ffc:	83 7f       	andi	r24, 0xF3	; 243
     ffe:	88 60       	ori	r24, 0x08	; 8
    1000:	80 93 a2 01 	sts	0x01A2, r24	; 0x8001a2 <motorStatus>
    1004:	17 c0       	rjmp	.+46     	; 0x1034 <motorDirection+0x138>
    1006:	88 e2       	ldi	r24, 0x28	; 40
    1008:	90 e0       	ldi	r25, 0x00	; 0
    100a:	28 e2       	ldi	r18, 0x28	; 40
    100c:	30 e0       	ldi	r19, 0x00	; 0
    100e:	f9 01       	movw	r30, r18
    1010:	20 81       	ld	r18, Z
    1012:	2b 7f       	andi	r18, 0xFB	; 251
    1014:	fc 01       	movw	r30, r24
    1016:	20 83       	st	Z, r18
    1018:	8b e2       	ldi	r24, 0x2B	; 43
    101a:	90 e0       	ldi	r25, 0x00	; 0
    101c:	2b e2       	ldi	r18, 0x2B	; 43
    101e:	30 e0       	ldi	r19, 0x00	; 0
    1020:	f9 01       	movw	r30, r18
    1022:	20 81       	ld	r18, Z
    1024:	2f 7e       	andi	r18, 0xEF	; 239
    1026:	fc 01       	movw	r30, r24
    1028:	20 83       	st	Z, r18
    102a:	80 91 a2 01 	lds	r24, 0x01A2	; 0x8001a2 <motorStatus>
    102e:	83 7f       	andi	r24, 0xF3	; 243
    1030:	80 93 a2 01 	sts	0x01A2, r24	; 0x8001a2 <motorStatus>
    1034:	00 00       	nop
    1036:	0f 90       	pop	r0
    1038:	0f 90       	pop	r0
    103a:	df 91       	pop	r29
    103c:	cf 91       	pop	r28
    103e:	08 95       	ret

00001040 <motor_speed>:
    1040:	cf 93       	push	r28
    1042:	df 93       	push	r29
    1044:	00 d0       	rcall	.+0      	; 0x1046 <motor_speed+0x6>
    1046:	00 d0       	rcall	.+0      	; 0x1048 <motor_speed+0x8>
    1048:	cd b7       	in	r28, 0x3d	; 61
    104a:	de b7       	in	r29, 0x3e	; 62
    104c:	9a 83       	std	Y+2, r25	; 0x02
    104e:	89 83       	std	Y+1, r24	; 0x01
    1050:	7c 83       	std	Y+4, r23	; 0x04
    1052:	6b 83       	std	Y+3, r22	; 0x03
    1054:	8b 81       	ldd	r24, Y+3	; 0x03
    1056:	9c 81       	ldd	r25, Y+4	; 0x04
    1058:	90 93 a6 01 	sts	0x01A6, r25	; 0x8001a6 <motorStatus+0x4>
    105c:	80 93 a5 01 	sts	0x01A5, r24	; 0x8001a5 <motorStatus+0x3>
    1060:	80 91 a7 01 	lds	r24, 0x01A7	; 0x8001a7 <motorStatus+0x5>
    1064:	28 2f       	mov	r18, r24
    1066:	88 0f       	add	r24, r24
    1068:	33 0b       	sbc	r19, r19
    106a:	89 81       	ldd	r24, Y+1	; 0x01
    106c:	9a 81       	ldd	r25, Y+2	; 0x02
    106e:	82 0f       	add	r24, r18
    1070:	93 1f       	adc	r25, r19
    1072:	90 93 a4 01 	sts	0x01A4, r25	; 0x8001a4 <motorStatus+0x2>
    1076:	80 93 a3 01 	sts	0x01A3, r24	; 0x8001a3 <motorStatus+0x1>
    107a:	80 91 a3 01 	lds	r24, 0x01A3	; 0x8001a3 <motorStatus+0x1>
    107e:	90 91 a4 01 	lds	r25, 0x01A4	; 0x8001a4 <motorStatus+0x2>
    1082:	8f 3f       	cpi	r24, 0xFF	; 255
    1084:	91 05       	cpc	r25, r1
    1086:	41 f0       	breq	.+16     	; 0x1098 <motor_speed+0x58>
    1088:	3c f0       	brlt	.+14     	; 0x1098 <motor_speed+0x58>
    108a:	8f ef       	ldi	r24, 0xFF	; 255
    108c:	90 e0       	ldi	r25, 0x00	; 0
    108e:	90 93 a4 01 	sts	0x01A4, r25	; 0x8001a4 <motorStatus+0x2>
    1092:	80 93 a3 01 	sts	0x01A3, r24	; 0x8001a3 <motorStatus+0x1>
    1096:	0a c0       	rjmp	.+20     	; 0x10ac <motor_speed+0x6c>
    1098:	80 91 a3 01 	lds	r24, 0x01A3	; 0x8001a3 <motorStatus+0x1>
    109c:	90 91 a4 01 	lds	r25, 0x01A4	; 0x8001a4 <motorStatus+0x2>
    10a0:	99 23       	and	r25, r25
    10a2:	24 f4       	brge	.+8      	; 0x10ac <motor_speed+0x6c>
    10a4:	10 92 a4 01 	sts	0x01A4, r1	; 0x8001a4 <motorStatus+0x2>
    10a8:	10 92 a3 01 	sts	0x01A3, r1	; 0x8001a3 <motorStatus+0x1>
    10ac:	80 91 a5 01 	lds	r24, 0x01A5	; 0x8001a5 <motorStatus+0x3>
    10b0:	90 91 a6 01 	lds	r25, 0x01A6	; 0x8001a6 <motorStatus+0x4>
    10b4:	8f 3f       	cpi	r24, 0xFF	; 255
    10b6:	91 05       	cpc	r25, r1
    10b8:	41 f0       	breq	.+16     	; 0x10ca <motor_speed+0x8a>
    10ba:	3c f0       	brlt	.+14     	; 0x10ca <motor_speed+0x8a>
    10bc:	8f ef       	ldi	r24, 0xFF	; 255
    10be:	90 e0       	ldi	r25, 0x00	; 0
    10c0:	90 93 a6 01 	sts	0x01A6, r25	; 0x8001a6 <motorStatus+0x4>
    10c4:	80 93 a5 01 	sts	0x01A5, r24	; 0x8001a5 <motorStatus+0x3>
    10c8:	0a c0       	rjmp	.+20     	; 0x10de <motor_speed+0x9e>
    10ca:	80 91 a5 01 	lds	r24, 0x01A5	; 0x8001a5 <motorStatus+0x3>
    10ce:	90 91 a6 01 	lds	r25, 0x01A6	; 0x8001a6 <motorStatus+0x4>
    10d2:	99 23       	and	r25, r25
    10d4:	24 f4       	brge	.+8      	; 0x10de <motor_speed+0x9e>
    10d6:	10 92 a6 01 	sts	0x01A6, r1	; 0x8001a6 <motorStatus+0x4>
    10da:	10 92 a5 01 	sts	0x01A5, r1	; 0x8001a5 <motorStatus+0x3>
    10de:	83 eb       	ldi	r24, 0xB3	; 179
    10e0:	90 e0       	ldi	r25, 0x00	; 0
    10e2:	20 91 a3 01 	lds	r18, 0x01A3	; 0x8001a3 <motorStatus+0x1>
    10e6:	30 91 a4 01 	lds	r19, 0x01A4	; 0x8001a4 <motorStatus+0x2>
    10ea:	fc 01       	movw	r30, r24
    10ec:	20 83       	st	Z, r18
    10ee:	84 eb       	ldi	r24, 0xB4	; 180
    10f0:	90 e0       	ldi	r25, 0x00	; 0
    10f2:	20 91 a5 01 	lds	r18, 0x01A5	; 0x8001a5 <motorStatus+0x3>
    10f6:	30 91 a6 01 	lds	r19, 0x01A6	; 0x8001a6 <motorStatus+0x4>
    10fa:	fc 01       	movw	r30, r24
    10fc:	20 83       	st	Z, r18
    10fe:	00 00       	nop
    1100:	0f 90       	pop	r0
    1102:	0f 90       	pop	r0
    1104:	0f 90       	pop	r0
    1106:	0f 90       	pop	r0
    1108:	df 91       	pop	r29
    110a:	cf 91       	pop	r28
    110c:	08 95       	ret

0000110e <motorInit>:
    110e:	cf 93       	push	r28
    1110:	df 93       	push	r29
    1112:	cd b7       	in	r28, 0x3d	; 61
    1114:	de b7       	in	r29, 0x3e	; 62
    1116:	60 e0       	ldi	r22, 0x00	; 0
    1118:	80 e0       	ldi	r24, 0x00	; 0
    111a:	0e 94 7e 07 	call	0xefc	; 0xefc <motorDirection>
    111e:	80 eb       	ldi	r24, 0xB0	; 176
    1120:	90 e0       	ldi	r25, 0x00	; 0
    1122:	20 eb       	ldi	r18, 0xB0	; 176
    1124:	30 e0       	ldi	r19, 0x00	; 0
    1126:	f9 01       	movw	r30, r18
    1128:	20 81       	ld	r18, Z
    112a:	23 6a       	ori	r18, 0xA3	; 163
    112c:	fc 01       	movw	r30, r24
    112e:	20 83       	st	Z, r18
    1130:	81 eb       	ldi	r24, 0xB1	; 177
    1132:	90 e0       	ldi	r25, 0x00	; 0
    1134:	21 eb       	ldi	r18, 0xB1	; 177
    1136:	30 e0       	ldi	r19, 0x00	; 0
    1138:	f9 01       	movw	r30, r18
    113a:	20 81       	ld	r18, Z
    113c:	22 60       	ori	r18, 0x02	; 2
    113e:	fc 01       	movw	r30, r24
    1140:	20 83       	st	Z, r18
    1142:	83 eb       	ldi	r24, 0xB3	; 179
    1144:	90 e0       	ldi	r25, 0x00	; 0
    1146:	fc 01       	movw	r30, r24
    1148:	10 82       	st	Z, r1
    114a:	84 eb       	ldi	r24, 0xB4	; 180
    114c:	90 e0       	ldi	r25, 0x00	; 0
    114e:	fc 01       	movw	r30, r24
    1150:	10 82       	st	Z, r1
    1152:	8d ec       	ldi	r24, 0xCD	; 205
    1154:	9c ec       	ldi	r25, 0xCC	; 204
    1156:	a4 e9       	ldi	r26, 0x94	; 148
    1158:	b0 e4       	ldi	r27, 0x40	; 64
    115a:	80 93 ae 01 	sts	0x01AE, r24	; 0x8001ae <motorStatus+0xc>
    115e:	90 93 af 01 	sts	0x01AF, r25	; 0x8001af <motorStatus+0xd>
    1162:	a0 93 b0 01 	sts	0x01B0, r26	; 0x8001b0 <motorStatus+0xe>
    1166:	b0 93 b1 01 	sts	0x01B1, r27	; 0x8001b1 <motorStatus+0xf>
    116a:	85 e5       	ldi	r24, 0x55	; 85
    116c:	80 93 b2 01 	sts	0x01B2, r24	; 0x8001b2 <motorStatus+0x10>
    1170:	83 ef       	ldi	r24, 0xF3	; 243
    1172:	80 93 a7 01 	sts	0x01A7, r24	; 0x8001a7 <motorStatus+0x5>
    1176:	00 00       	nop
    1178:	df 91       	pop	r29
    117a:	cf 91       	pop	r28
    117c:	08 95       	ret

0000117e <pid_Init>:
    117e:	cf 93       	push	r28
    1180:	df 93       	push	r29
    1182:	cd b7       	in	r28, 0x3d	; 61
    1184:	de b7       	in	r29, 0x3e	; 62
    1186:	28 97       	sbiw	r28, 0x08	; 8
    1188:	0f b6       	in	r0, 0x3f	; 63
    118a:	f8 94       	cli
    118c:	de bf       	out	0x3e, r29	; 62
    118e:	0f be       	out	0x3f, r0	; 63
    1190:	cd bf       	out	0x3d, r28	; 61
    1192:	9a 83       	std	Y+2, r25	; 0x02
    1194:	89 83       	std	Y+1, r24	; 0x01
    1196:	7c 83       	std	Y+4, r23	; 0x04
    1198:	6b 83       	std	Y+3, r22	; 0x03
    119a:	5e 83       	std	Y+6, r21	; 0x06
    119c:	4d 83       	std	Y+5, r20	; 0x05
    119e:	38 87       	std	Y+8, r19	; 0x08
    11a0:	2f 83       	std	Y+7, r18	; 0x07
    11a2:	8f 81       	ldd	r24, Y+7	; 0x07
    11a4:	98 85       	ldd	r25, Y+8	; 0x08
    11a6:	fc 01       	movw	r30, r24
    11a8:	12 82       	std	Z+2, r1	; 0x02
    11aa:	13 82       	std	Z+3, r1	; 0x03
    11ac:	14 82       	std	Z+4, r1	; 0x04
    11ae:	15 82       	std	Z+5, r1	; 0x05
    11b0:	8f 81       	ldd	r24, Y+7	; 0x07
    11b2:	98 85       	ldd	r25, Y+8	; 0x08
    11b4:	fc 01       	movw	r30, r24
    11b6:	11 82       	std	Z+1, r1	; 0x01
    11b8:	10 82       	st	Z, r1
    11ba:	8f 81       	ldd	r24, Y+7	; 0x07
    11bc:	98 85       	ldd	r25, Y+8	; 0x08
    11be:	29 81       	ldd	r18, Y+1	; 0x01
    11c0:	3a 81       	ldd	r19, Y+2	; 0x02
    11c2:	fc 01       	movw	r30, r24
    11c4:	37 83       	std	Z+7, r19	; 0x07
    11c6:	26 83       	std	Z+6, r18	; 0x06
    11c8:	8f 81       	ldd	r24, Y+7	; 0x07
    11ca:	98 85       	ldd	r25, Y+8	; 0x08
    11cc:	2b 81       	ldd	r18, Y+3	; 0x03
    11ce:	3c 81       	ldd	r19, Y+4	; 0x04
    11d0:	fc 01       	movw	r30, r24
    11d2:	31 87       	std	Z+9, r19	; 0x09
    11d4:	20 87       	std	Z+8, r18	; 0x08
    11d6:	8f 81       	ldd	r24, Y+7	; 0x07
    11d8:	98 85       	ldd	r25, Y+8	; 0x08
    11da:	2d 81       	ldd	r18, Y+5	; 0x05
    11dc:	3e 81       	ldd	r19, Y+6	; 0x06
    11de:	fc 01       	movw	r30, r24
    11e0:	33 87       	std	Z+11, r19	; 0x0b
    11e2:	22 87       	std	Z+10, r18	; 0x0a
    11e4:	8f 81       	ldd	r24, Y+7	; 0x07
    11e6:	98 85       	ldd	r25, Y+8	; 0x08
    11e8:	fc 01       	movw	r30, r24
    11ea:	86 81       	ldd	r24, Z+6	; 0x06
    11ec:	97 81       	ldd	r25, Z+7	; 0x07
    11ee:	9c 01       	movw	r18, r24
    11f0:	2f 5f       	subi	r18, 0xFF	; 255
    11f2:	3f 4f       	sbci	r19, 0xFF	; 255
    11f4:	8f ef       	ldi	r24, 0xFF	; 255
    11f6:	9f e7       	ldi	r25, 0x7F	; 127
    11f8:	b9 01       	movw	r22, r18
    11fa:	0e 94 7f 14 	call	0x28fe	; 0x28fe <__divmodhi4>
    11fe:	cb 01       	movw	r24, r22
    1200:	9c 01       	movw	r18, r24
    1202:	8f 81       	ldd	r24, Y+7	; 0x07
    1204:	98 85       	ldd	r25, Y+8	; 0x08
    1206:	fc 01       	movw	r30, r24
    1208:	35 87       	std	Z+13, r19	; 0x0d
    120a:	24 87       	std	Z+12, r18	; 0x0c
    120c:	8f 81       	ldd	r24, Y+7	; 0x07
    120e:	98 85       	ldd	r25, Y+8	; 0x08
    1210:	fc 01       	movw	r30, r24
    1212:	80 85       	ldd	r24, Z+8	; 0x08
    1214:	91 85       	ldd	r25, Z+9	; 0x09
    1216:	9c 01       	movw	r18, r24
    1218:	2f 5f       	subi	r18, 0xFF	; 255
    121a:	3f 4f       	sbci	r19, 0xFF	; 255
    121c:	8f ef       	ldi	r24, 0xFF	; 255
    121e:	9f e3       	ldi	r25, 0x3F	; 63
    1220:	b9 01       	movw	r22, r18
    1222:	0e 94 7f 14 	call	0x28fe	; 0x28fe <__divmodhi4>
    1226:	cb 01       	movw	r24, r22
    1228:	09 2e       	mov	r0, r25
    122a:	00 0c       	add	r0, r0
    122c:	aa 0b       	sbc	r26, r26
    122e:	bb 0b       	sbc	r27, r27
    1230:	2f 81       	ldd	r18, Y+7	; 0x07
    1232:	38 85       	ldd	r19, Y+8	; 0x08
    1234:	f9 01       	movw	r30, r18
    1236:	86 87       	std	Z+14, r24	; 0x0e
    1238:	97 87       	std	Z+15, r25	; 0x0f
    123a:	a0 8b       	std	Z+16, r26	; 0x10
    123c:	b1 8b       	std	Z+17, r27	; 0x11
    123e:	00 00       	nop
    1240:	28 96       	adiw	r28, 0x08	; 8
    1242:	0f b6       	in	r0, 0x3f	; 63
    1244:	f8 94       	cli
    1246:	de bf       	out	0x3e, r29	; 62
    1248:	0f be       	out	0x3f, r0	; 63
    124a:	cd bf       	out	0x3d, r28	; 61
    124c:	df 91       	pop	r29
    124e:	cf 91       	pop	r28
    1250:	08 95       	ret

00001252 <pid_Controller>:
    1252:	cf 93       	push	r28
    1254:	df 93       	push	r29
    1256:	cd b7       	in	r28, 0x3d	; 61
    1258:	de b7       	in	r29, 0x3e	; 62
    125a:	68 97       	sbiw	r28, 0x18	; 24
    125c:	0f b6       	in	r0, 0x3f	; 63
    125e:	f8 94       	cli
    1260:	de bf       	out	0x3e, r29	; 62
    1262:	0f be       	out	0x3f, r0	; 63
    1264:	cd bf       	out	0x3d, r28	; 61
    1266:	9c 8b       	std	Y+20, r25	; 0x14
    1268:	8b 8b       	std	Y+19, r24	; 0x13
    126a:	7e 8b       	std	Y+22, r23	; 0x16
    126c:	6d 8b       	std	Y+21, r22	; 0x15
    126e:	58 8f       	std	Y+24, r21	; 0x18
    1270:	4f 8b       	std	Y+23, r20	; 0x17
    1272:	2b 89       	ldd	r18, Y+19	; 0x13
    1274:	3c 89       	ldd	r19, Y+20	; 0x14
    1276:	8d 89       	ldd	r24, Y+21	; 0x15
    1278:	9e 89       	ldd	r25, Y+22	; 0x16
    127a:	a9 01       	movw	r20, r18
    127c:	48 1b       	sub	r20, r24
    127e:	59 0b       	sbc	r21, r25
    1280:	ca 01       	movw	r24, r20
    1282:	9c 87       	std	Y+12, r25	; 0x0c
    1284:	8b 87       	std	Y+11, r24	; 0x0b
    1286:	8f 89       	ldd	r24, Y+23	; 0x17
    1288:	98 8d       	ldd	r25, Y+24	; 0x18
    128a:	fc 01       	movw	r30, r24
    128c:	24 85       	ldd	r18, Z+12	; 0x0c
    128e:	35 85       	ldd	r19, Z+13	; 0x0d
    1290:	8b 85       	ldd	r24, Y+11	; 0x0b
    1292:	9c 85       	ldd	r25, Y+12	; 0x0c
    1294:	28 17       	cp	r18, r24
    1296:	39 07       	cpc	r19, r25
    1298:	2c f4       	brge	.+10     	; 0x12a4 <pid_Controller+0x52>
    129a:	8f ef       	ldi	r24, 0xFF	; 255
    129c:	9f e7       	ldi	r25, 0x7F	; 127
    129e:	9a 83       	std	Y+2, r25	; 0x02
    12a0:	89 83       	std	Y+1, r24	; 0x01
    12a2:	23 c0       	rjmp	.+70     	; 0x12ea <pid_Controller+0x98>
    12a4:	8f 89       	ldd	r24, Y+23	; 0x17
    12a6:	98 8d       	ldd	r25, Y+24	; 0x18
    12a8:	fc 01       	movw	r30, r24
    12aa:	84 85       	ldd	r24, Z+12	; 0x0c
    12ac:	95 85       	ldd	r25, Z+13	; 0x0d
    12ae:	22 27       	eor	r18, r18
    12b0:	33 27       	eor	r19, r19
    12b2:	28 1b       	sub	r18, r24
    12b4:	39 0b       	sbc	r19, r25
    12b6:	8b 85       	ldd	r24, Y+11	; 0x0b
    12b8:	9c 85       	ldd	r25, Y+12	; 0x0c
    12ba:	82 17       	cp	r24, r18
    12bc:	93 07       	cpc	r25, r19
    12be:	2c f4       	brge	.+10     	; 0x12ca <pid_Controller+0x78>
    12c0:	81 e0       	ldi	r24, 0x01	; 1
    12c2:	90 e8       	ldi	r25, 0x80	; 128
    12c4:	9a 83       	std	Y+2, r25	; 0x02
    12c6:	89 83       	std	Y+1, r24	; 0x01
    12c8:	10 c0       	rjmp	.+32     	; 0x12ea <pid_Controller+0x98>
    12ca:	8f 89       	ldd	r24, Y+23	; 0x17
    12cc:	98 8d       	ldd	r25, Y+24	; 0x18
    12ce:	fc 01       	movw	r30, r24
    12d0:	46 81       	ldd	r20, Z+6	; 0x06
    12d2:	57 81       	ldd	r21, Z+7	; 0x07
    12d4:	2b 85       	ldd	r18, Y+11	; 0x0b
    12d6:	3c 85       	ldd	r19, Y+12	; 0x0c
    12d8:	42 9f       	mul	r20, r18
    12da:	c0 01       	movw	r24, r0
    12dc:	43 9f       	mul	r20, r19
    12de:	90 0d       	add	r25, r0
    12e0:	52 9f       	mul	r21, r18
    12e2:	90 0d       	add	r25, r0
    12e4:	11 24       	eor	r1, r1
    12e6:	9a 83       	std	Y+2, r25	; 0x02
    12e8:	89 83       	std	Y+1, r24	; 0x01
    12ea:	8f 89       	ldd	r24, Y+23	; 0x17
    12ec:	98 8d       	ldd	r25, Y+24	; 0x18
    12ee:	fc 01       	movw	r30, r24
    12f0:	22 81       	ldd	r18, Z+2	; 0x02
    12f2:	33 81       	ldd	r19, Z+3	; 0x03
    12f4:	44 81       	ldd	r20, Z+4	; 0x04
    12f6:	55 81       	ldd	r21, Z+5	; 0x05
    12f8:	8b 85       	ldd	r24, Y+11	; 0x0b
    12fa:	9c 85       	ldd	r25, Y+12	; 0x0c
    12fc:	09 2e       	mov	r0, r25
    12fe:	00 0c       	add	r0, r0
    1300:	aa 0b       	sbc	r26, r26
    1302:	bb 0b       	sbc	r27, r27
    1304:	82 0f       	add	r24, r18
    1306:	93 1f       	adc	r25, r19
    1308:	a4 1f       	adc	r26, r20
    130a:	b5 1f       	adc	r27, r21
    130c:	8d 87       	std	Y+13, r24	; 0x0d
    130e:	9e 87       	std	Y+14, r25	; 0x0e
    1310:	af 87       	std	Y+15, r26	; 0x0f
    1312:	b8 8b       	std	Y+16, r27	; 0x10
    1314:	8f 89       	ldd	r24, Y+23	; 0x17
    1316:	98 8d       	ldd	r25, Y+24	; 0x18
    1318:	fc 01       	movw	r30, r24
    131a:	26 85       	ldd	r18, Z+14	; 0x0e
    131c:	37 85       	ldd	r19, Z+15	; 0x0f
    131e:	40 89       	ldd	r20, Z+16	; 0x10
    1320:	51 89       	ldd	r21, Z+17	; 0x11
    1322:	8d 85       	ldd	r24, Y+13	; 0x0d
    1324:	9e 85       	ldd	r25, Y+14	; 0x0e
    1326:	af 85       	ldd	r26, Y+15	; 0x0f
    1328:	b8 89       	ldd	r27, Y+16	; 0x10
    132a:	28 17       	cp	r18, r24
    132c:	39 07       	cpc	r19, r25
    132e:	4a 07       	cpc	r20, r26
    1330:	5b 07       	cpc	r21, r27
    1332:	bc f4       	brge	.+46     	; 0x1362 <pid_Controller+0x110>
    1334:	8f ef       	ldi	r24, 0xFF	; 255
    1336:	9f e3       	ldi	r25, 0x3F	; 63
    1338:	a0 e0       	ldi	r26, 0x00	; 0
    133a:	b0 e0       	ldi	r27, 0x00	; 0
    133c:	8b 83       	std	Y+3, r24	; 0x03
    133e:	9c 83       	std	Y+4, r25	; 0x04
    1340:	ad 83       	std	Y+5, r26	; 0x05
    1342:	be 83       	std	Y+6, r27	; 0x06
    1344:	8f 89       	ldd	r24, Y+23	; 0x17
    1346:	98 8d       	ldd	r25, Y+24	; 0x18
    1348:	fc 01       	movw	r30, r24
    134a:	86 85       	ldd	r24, Z+14	; 0x0e
    134c:	97 85       	ldd	r25, Z+15	; 0x0f
    134e:	a0 89       	ldd	r26, Z+16	; 0x10
    1350:	b1 89       	ldd	r27, Z+17	; 0x11
    1352:	2f 89       	ldd	r18, Y+23	; 0x17
    1354:	38 8d       	ldd	r19, Y+24	; 0x18
    1356:	f9 01       	movw	r30, r18
    1358:	82 83       	std	Z+2, r24	; 0x02
    135a:	93 83       	std	Z+3, r25	; 0x03
    135c:	a4 83       	std	Z+4, r26	; 0x04
    135e:	b5 83       	std	Z+5, r27	; 0x05
    1360:	5a c0       	rjmp	.+180    	; 0x1416 <pid_Controller+0x1c4>
    1362:	8f 89       	ldd	r24, Y+23	; 0x17
    1364:	98 8d       	ldd	r25, Y+24	; 0x18
    1366:	fc 01       	movw	r30, r24
    1368:	86 85       	ldd	r24, Z+14	; 0x0e
    136a:	97 85       	ldd	r25, Z+15	; 0x0f
    136c:	a0 89       	ldd	r26, Z+16	; 0x10
    136e:	b1 89       	ldd	r27, Z+17	; 0x11
    1370:	22 27       	eor	r18, r18
    1372:	33 27       	eor	r19, r19
    1374:	a9 01       	movw	r20, r18
    1376:	28 1b       	sub	r18, r24
    1378:	39 0b       	sbc	r19, r25
    137a:	4a 0b       	sbc	r20, r26
    137c:	5b 0b       	sbc	r21, r27
    137e:	8d 85       	ldd	r24, Y+13	; 0x0d
    1380:	9e 85       	ldd	r25, Y+14	; 0x0e
    1382:	af 85       	ldd	r26, Y+15	; 0x0f
    1384:	b8 89       	ldd	r27, Y+16	; 0x10
    1386:	82 17       	cp	r24, r18
    1388:	93 07       	cpc	r25, r19
    138a:	a4 07       	cpc	r26, r20
    138c:	b5 07       	cpc	r27, r21
    138e:	f4 f4       	brge	.+60     	; 0x13cc <pid_Controller+0x17a>
    1390:	81 e0       	ldi	r24, 0x01	; 1
    1392:	90 ec       	ldi	r25, 0xC0	; 192
    1394:	af ef       	ldi	r26, 0xFF	; 255
    1396:	bf ef       	ldi	r27, 0xFF	; 255
    1398:	8b 83       	std	Y+3, r24	; 0x03
    139a:	9c 83       	std	Y+4, r25	; 0x04
    139c:	ad 83       	std	Y+5, r26	; 0x05
    139e:	be 83       	std	Y+6, r27	; 0x06
    13a0:	8f 89       	ldd	r24, Y+23	; 0x17
    13a2:	98 8d       	ldd	r25, Y+24	; 0x18
    13a4:	fc 01       	movw	r30, r24
    13a6:	86 85       	ldd	r24, Z+14	; 0x0e
    13a8:	97 85       	ldd	r25, Z+15	; 0x0f
    13aa:	a0 89       	ldd	r26, Z+16	; 0x10
    13ac:	b1 89       	ldd	r27, Z+17	; 0x11
    13ae:	b0 95       	com	r27
    13b0:	a0 95       	com	r26
    13b2:	90 95       	com	r25
    13b4:	81 95       	neg	r24
    13b6:	9f 4f       	sbci	r25, 0xFF	; 255
    13b8:	af 4f       	sbci	r26, 0xFF	; 255
    13ba:	bf 4f       	sbci	r27, 0xFF	; 255
    13bc:	2f 89       	ldd	r18, Y+23	; 0x17
    13be:	38 8d       	ldd	r19, Y+24	; 0x18
    13c0:	f9 01       	movw	r30, r18
    13c2:	82 83       	std	Z+2, r24	; 0x02
    13c4:	93 83       	std	Z+3, r25	; 0x03
    13c6:	a4 83       	std	Z+4, r26	; 0x04
    13c8:	b5 83       	std	Z+5, r27	; 0x05
    13ca:	25 c0       	rjmp	.+74     	; 0x1416 <pid_Controller+0x1c4>
    13cc:	2f 89       	ldd	r18, Y+23	; 0x17
    13ce:	38 8d       	ldd	r19, Y+24	; 0x18
    13d0:	8d 85       	ldd	r24, Y+13	; 0x0d
    13d2:	9e 85       	ldd	r25, Y+14	; 0x0e
    13d4:	af 85       	ldd	r26, Y+15	; 0x0f
    13d6:	b8 89       	ldd	r27, Y+16	; 0x10
    13d8:	f9 01       	movw	r30, r18
    13da:	82 83       	std	Z+2, r24	; 0x02
    13dc:	93 83       	std	Z+3, r25	; 0x03
    13de:	a4 83       	std	Z+4, r26	; 0x04
    13e0:	b5 83       	std	Z+5, r27	; 0x05
    13e2:	8f 89       	ldd	r24, Y+23	; 0x17
    13e4:	98 8d       	ldd	r25, Y+24	; 0x18
    13e6:	fc 01       	movw	r30, r24
    13e8:	80 85       	ldd	r24, Z+8	; 0x08
    13ea:	91 85       	ldd	r25, Z+9	; 0x09
    13ec:	9c 01       	movw	r18, r24
    13ee:	99 0f       	add	r25, r25
    13f0:	44 0b       	sbc	r20, r20
    13f2:	55 0b       	sbc	r21, r21
    13f4:	8f 89       	ldd	r24, Y+23	; 0x17
    13f6:	98 8d       	ldd	r25, Y+24	; 0x18
    13f8:	fc 01       	movw	r30, r24
    13fa:	82 81       	ldd	r24, Z+2	; 0x02
    13fc:	93 81       	ldd	r25, Z+3	; 0x03
    13fe:	a4 81       	ldd	r26, Z+4	; 0x04
    1400:	b5 81       	ldd	r27, Z+5	; 0x05
    1402:	bc 01       	movw	r22, r24
    1404:	cd 01       	movw	r24, r26
    1406:	0e 94 6f 14 	call	0x28de	; 0x28de <__mulsi3>
    140a:	dc 01       	movw	r26, r24
    140c:	cb 01       	movw	r24, r22
    140e:	8b 83       	std	Y+3, r24	; 0x03
    1410:	9c 83       	std	Y+4, r25	; 0x04
    1412:	ad 83       	std	Y+5, r26	; 0x05
    1414:	be 83       	std	Y+6, r27	; 0x06
    1416:	8f 89       	ldd	r24, Y+23	; 0x17
    1418:	98 8d       	ldd	r25, Y+24	; 0x18
    141a:	fc 01       	movw	r30, r24
    141c:	42 85       	ldd	r20, Z+10	; 0x0a
    141e:	53 85       	ldd	r21, Z+11	; 0x0b
    1420:	8f 89       	ldd	r24, Y+23	; 0x17
    1422:	98 8d       	ldd	r25, Y+24	; 0x18
    1424:	fc 01       	movw	r30, r24
    1426:	20 81       	ld	r18, Z
    1428:	31 81       	ldd	r19, Z+1	; 0x01
    142a:	8d 89       	ldd	r24, Y+21	; 0x15
    142c:	9e 89       	ldd	r25, Y+22	; 0x16
    142e:	28 1b       	sub	r18, r24
    1430:	39 0b       	sbc	r19, r25
    1432:	42 9f       	mul	r20, r18
    1434:	c0 01       	movw	r24, r0
    1436:	43 9f       	mul	r20, r19
    1438:	90 0d       	add	r25, r0
    143a:	52 9f       	mul	r21, r18
    143c:	90 0d       	add	r25, r0
    143e:	11 24       	eor	r1, r1
    1440:	9a 8b       	std	Y+18, r25	; 0x12
    1442:	89 8b       	std	Y+17, r24	; 0x11
    1444:	8f 89       	ldd	r24, Y+23	; 0x17
    1446:	98 8d       	ldd	r25, Y+24	; 0x18
    1448:	2d 89       	ldd	r18, Y+21	; 0x15
    144a:	3e 89       	ldd	r19, Y+22	; 0x16
    144c:	fc 01       	movw	r30, r24
    144e:	31 83       	std	Z+1, r19	; 0x01
    1450:	20 83       	st	Z, r18
    1452:	89 81       	ldd	r24, Y+1	; 0x01
    1454:	9a 81       	ldd	r25, Y+2	; 0x02
    1456:	9c 01       	movw	r18, r24
    1458:	99 0f       	add	r25, r25
    145a:	44 0b       	sbc	r20, r20
    145c:	55 0b       	sbc	r21, r21
    145e:	8b 81       	ldd	r24, Y+3	; 0x03
    1460:	9c 81       	ldd	r25, Y+4	; 0x04
    1462:	ad 81       	ldd	r26, Y+5	; 0x05
    1464:	be 81       	ldd	r27, Y+6	; 0x06
    1466:	28 0f       	add	r18, r24
    1468:	39 1f       	adc	r19, r25
    146a:	4a 1f       	adc	r20, r26
    146c:	5b 1f       	adc	r21, r27
    146e:	89 89       	ldd	r24, Y+17	; 0x11
    1470:	9a 89       	ldd	r25, Y+18	; 0x12
    1472:	09 2e       	mov	r0, r25
    1474:	00 0c       	add	r0, r0
    1476:	aa 0b       	sbc	r26, r26
    1478:	bb 0b       	sbc	r27, r27
    147a:	82 0f       	add	r24, r18
    147c:	93 1f       	adc	r25, r19
    147e:	a4 1f       	adc	r26, r20
    1480:	b5 1f       	adc	r27, r21
    1482:	bb 23       	and	r27, r27
    1484:	24 f4       	brge	.+8      	; 0x148e <pid_Controller+0x23c>
    1486:	81 58       	subi	r24, 0x81	; 129
    1488:	9f 4f       	sbci	r25, 0xFF	; 255
    148a:	af 4f       	sbci	r26, 0xFF	; 255
    148c:	bf 4f       	sbci	r27, 0xFF	; 255
    148e:	68 94       	set
    1490:	16 f8       	bld	r1, 6
    1492:	b5 95       	asr	r27
    1494:	a7 95       	ror	r26
    1496:	97 95       	ror	r25
    1498:	87 95       	ror	r24
    149a:	16 94       	lsr	r1
    149c:	d1 f7       	brne	.-12     	; 0x1492 <pid_Controller+0x240>
    149e:	8f 83       	std	Y+7, r24	; 0x07
    14a0:	98 87       	std	Y+8, r25	; 0x08
    14a2:	a9 87       	std	Y+9, r26	; 0x09
    14a4:	ba 87       	std	Y+10, r27	; 0x0a
    14a6:	8f 81       	ldd	r24, Y+7	; 0x07
    14a8:	98 85       	ldd	r25, Y+8	; 0x08
    14aa:	a9 85       	ldd	r26, Y+9	; 0x09
    14ac:	ba 85       	ldd	r27, Y+10	; 0x0a
    14ae:	81 15       	cp	r24, r1
    14b0:	90 48       	sbci	r25, 0x80	; 128
    14b2:	a1 05       	cpc	r26, r1
    14b4:	b1 05       	cpc	r27, r1
    14b6:	4c f0       	brlt	.+18     	; 0x14ca <pid_Controller+0x278>
    14b8:	8f ef       	ldi	r24, 0xFF	; 255
    14ba:	9f e7       	ldi	r25, 0x7F	; 127
    14bc:	a0 e0       	ldi	r26, 0x00	; 0
    14be:	b0 e0       	ldi	r27, 0x00	; 0
    14c0:	8f 83       	std	Y+7, r24	; 0x07
    14c2:	98 87       	std	Y+8, r25	; 0x08
    14c4:	a9 87       	std	Y+9, r26	; 0x09
    14c6:	ba 87       	std	Y+10, r27	; 0x0a
    14c8:	11 c0       	rjmp	.+34     	; 0x14ec <pid_Controller+0x29a>
    14ca:	8f 81       	ldd	r24, Y+7	; 0x07
    14cc:	98 85       	ldd	r25, Y+8	; 0x08
    14ce:	a9 85       	ldd	r26, Y+9	; 0x09
    14d0:	ba 85       	ldd	r27, Y+10	; 0x0a
    14d2:	81 30       	cpi	r24, 0x01	; 1
    14d4:	90 48       	sbci	r25, 0x80	; 128
    14d6:	af 4f       	sbci	r26, 0xFF	; 255
    14d8:	bf 4f       	sbci	r27, 0xFF	; 255
    14da:	44 f4       	brge	.+16     	; 0x14ec <pid_Controller+0x29a>
    14dc:	81 e0       	ldi	r24, 0x01	; 1
    14de:	90 e8       	ldi	r25, 0x80	; 128
    14e0:	af ef       	ldi	r26, 0xFF	; 255
    14e2:	bf ef       	ldi	r27, 0xFF	; 255
    14e4:	8f 83       	std	Y+7, r24	; 0x07
    14e6:	98 87       	std	Y+8, r25	; 0x08
    14e8:	a9 87       	std	Y+9, r26	; 0x09
    14ea:	ba 87       	std	Y+10, r27	; 0x0a
    14ec:	8f 81       	ldd	r24, Y+7	; 0x07
    14ee:	98 85       	ldd	r25, Y+8	; 0x08
    14f0:	68 96       	adiw	r28, 0x18	; 24
    14f2:	0f b6       	in	r0, 0x3f	; 63
    14f4:	f8 94       	cli
    14f6:	de bf       	out	0x3e, r29	; 62
    14f8:	0f be       	out	0x3f, r0	; 63
    14fa:	cd bf       	out	0x3d, r28	; 61
    14fc:	df 91       	pop	r29
    14fe:	cf 91       	pop	r28
    1500:	08 95       	ret

00001502 <pid_Reset_Integrator>:
    1502:	cf 93       	push	r28
    1504:	df 93       	push	r29
    1506:	00 d0       	rcall	.+0      	; 0x1508 <pid_Reset_Integrator+0x6>
    1508:	cd b7       	in	r28, 0x3d	; 61
    150a:	de b7       	in	r29, 0x3e	; 62
    150c:	9a 83       	std	Y+2, r25	; 0x02
    150e:	89 83       	std	Y+1, r24	; 0x01
    1510:	89 81       	ldd	r24, Y+1	; 0x01
    1512:	9a 81       	ldd	r25, Y+2	; 0x02
    1514:	fc 01       	movw	r30, r24
    1516:	12 82       	std	Z+2, r1	; 0x02
    1518:	13 82       	std	Z+3, r1	; 0x03
    151a:	14 82       	std	Z+4, r1	; 0x04
    151c:	15 82       	std	Z+5, r1	; 0x05
    151e:	00 00       	nop
    1520:	0f 90       	pop	r0
    1522:	0f 90       	pop	r0
    1524:	df 91       	pop	r29
    1526:	cf 91       	pop	r28
    1528:	08 95       	ret

0000152a <waitStart>:
    152a:	cf 93       	push	r28
    152c:	df 93       	push	r29
    152e:	1f 92       	push	r1
    1530:	cd b7       	in	r28, 0x3d	; 61
    1532:	de b7       	in	r29, 0x3e	; 62
    1534:	19 82       	std	Y+1, r1	; 0x01
    1536:	80 91 ea 01 	lds	r24, 0x01EA	; 0x8001ea <stopwatches>
    153a:	81 60       	ori	r24, 0x01	; 1
    153c:	80 93 ea 01 	sts	0x01EA, r24	; 0x8001ea <stopwatches>
    1540:	20 c0       	rjmp	.+64     	; 0x1582 <waitStart+0x58>
    1542:	81 e0       	ldi	r24, 0x01	; 1
    1544:	0e 94 8a 10 	call	0x2114	; 0x2114 <getStopwatch>
    1548:	85 3f       	cpi	r24, 0xF5	; 245
    154a:	91 40       	sbci	r25, 0x01	; 1
    154c:	d0 f0       	brcs	.+52     	; 0x1582 <waitStart+0x58>
    154e:	99 81       	ldd	r25, Y+1	; 0x01
    1550:	81 e0       	ldi	r24, 0x01	; 1
    1552:	89 27       	eor	r24, r25
    1554:	88 2f       	mov	r24, r24
    1556:	90 e0       	ldi	r25, 0x00	; 0
    1558:	21 e0       	ldi	r18, 0x01	; 1
    155a:	89 2b       	or	r24, r25
    155c:	09 f4       	brne	.+2      	; 0x1560 <waitStart+0x36>
    155e:	20 e0       	ldi	r18, 0x00	; 0
    1560:	29 83       	std	Y+1, r18	; 0x01
    1562:	89 81       	ldd	r24, Y+1	; 0x01
    1564:	88 23       	and	r24, r24
    1566:	21 f0       	breq	.+8      	; 0x1570 <waitStart+0x46>
    1568:	80 e0       	ldi	r24, 0x00	; 0
    156a:	0e 94 50 0b 	call	0x16a0	; 0x16a0 <setStatusLED>
    156e:	03 c0       	rjmp	.+6      	; 0x1576 <waitStart+0x4c>
    1570:	8a e0       	ldi	r24, 0x0A	; 10
    1572:	0e 94 50 0b 	call	0x16a0	; 0x16a0 <setStatusLED>
    1576:	60 e0       	ldi	r22, 0x00	; 0
    1578:	70 e0       	ldi	r23, 0x00	; 0
    157a:	81 e0       	ldi	r24, 0x01	; 1
    157c:	90 e0       	ldi	r25, 0x00	; 0
    157e:	0e 94 0e 10 	call	0x201c	; 0x201c <setStopwatch>
    1582:	83 e2       	ldi	r24, 0x23	; 35
    1584:	90 e0       	ldi	r25, 0x00	; 0
    1586:	fc 01       	movw	r30, r24
    1588:	80 81       	ld	r24, Z
    158a:	88 2f       	mov	r24, r24
    158c:	90 e0       	ldi	r25, 0x00	; 0
    158e:	80 71       	andi	r24, 0x10	; 16
    1590:	99 27       	eor	r25, r25
    1592:	89 2b       	or	r24, r25
    1594:	b1 f6       	brne	.-84     	; 0x1542 <waitStart+0x18>
    1596:	80 91 c1 01 	lds	r24, 0x01C1	; 0x8001c1 <systemStatus>
    159a:	81 60       	ori	r24, 0x01	; 1
    159c:	80 93 c1 01 	sts	0x01C1, r24	; 0x8001c1 <systemStatus>
    15a0:	60 e0       	ldi	r22, 0x00	; 0
    15a2:	70 e0       	ldi	r23, 0x00	; 0
    15a4:	81 e0       	ldi	r24, 0x01	; 1
    15a6:	90 e0       	ldi	r25, 0x00	; 0
    15a8:	0e 94 0e 10 	call	0x201c	; 0x201c <setStopwatch>
    15ac:	80 91 ea 01 	lds	r24, 0x01EA	; 0x8001ea <stopwatches>
    15b0:	8e 7f       	andi	r24, 0xFE	; 254
    15b2:	80 93 ea 01 	sts	0x01EA, r24	; 0x8001ea <stopwatches>
    15b6:	8a e0       	ldi	r24, 0x0A	; 10
    15b8:	0e 94 50 0b 	call	0x16a0	; 0x16a0 <setStatusLED>
    15bc:	00 00       	nop
    15be:	0f 90       	pop	r0
    15c0:	df 91       	pop	r29
    15c2:	cf 91       	pop	r28
    15c4:	08 95       	ret

000015c6 <adc_Read>:
    15c6:	cf 93       	push	r28
    15c8:	df 93       	push	r29
    15ca:	1f 92       	push	r1
    15cc:	cd b7       	in	r28, 0x3d	; 61
    15ce:	de b7       	in	r29, 0x3e	; 62
    15d0:	89 83       	std	Y+1, r24	; 0x01
    15d2:	8c e7       	ldi	r24, 0x7C	; 124
    15d4:	90 e0       	ldi	r25, 0x00	; 0
    15d6:	2c e7       	ldi	r18, 0x7C	; 124
    15d8:	30 e0       	ldi	r19, 0x00	; 0
    15da:	f9 01       	movw	r30, r18
    15dc:	20 81       	ld	r18, Z
    15de:	32 2f       	mov	r19, r18
    15e0:	30 7e       	andi	r19, 0xE0	; 224
    15e2:	29 81       	ldd	r18, Y+1	; 0x01
    15e4:	2f 71       	andi	r18, 0x1F	; 31
    15e6:	23 2b       	or	r18, r19
    15e8:	fc 01       	movw	r30, r24
    15ea:	20 83       	st	Z, r18
    15ec:	8a e7       	ldi	r24, 0x7A	; 122
    15ee:	90 e0       	ldi	r25, 0x00	; 0
    15f0:	2a e7       	ldi	r18, 0x7A	; 122
    15f2:	30 e0       	ldi	r19, 0x00	; 0
    15f4:	f9 01       	movw	r30, r18
    15f6:	20 81       	ld	r18, Z
    15f8:	20 64       	ori	r18, 0x40	; 64
    15fa:	fc 01       	movw	r30, r24
    15fc:	20 83       	st	Z, r18
    15fe:	00 00       	nop
    1600:	8a e7       	ldi	r24, 0x7A	; 122
    1602:	90 e0       	ldi	r25, 0x00	; 0
    1604:	fc 01       	movw	r30, r24
    1606:	80 81       	ld	r24, Z
    1608:	88 2f       	mov	r24, r24
    160a:	90 e0       	ldi	r25, 0x00	; 0
    160c:	80 74       	andi	r24, 0x40	; 64
    160e:	99 27       	eor	r25, r25
    1610:	89 2b       	or	r24, r25
    1612:	b1 f7       	brne	.-20     	; 0x1600 <adc_Read+0x3a>
    1614:	88 e7       	ldi	r24, 0x78	; 120
    1616:	90 e0       	ldi	r25, 0x00	; 0
    1618:	fc 01       	movw	r30, r24
    161a:	80 81       	ld	r24, Z
    161c:	91 81       	ldd	r25, Z+1	; 0x01
    161e:	0f 90       	pop	r0
    1620:	df 91       	pop	r29
    1622:	cf 91       	pop	r28
    1624:	08 95       	ret

00001626 <batt_voltage>:
    1626:	cf 93       	push	r28
    1628:	df 93       	push	r29
    162a:	00 d0       	rcall	.+0      	; 0x162c <batt_voltage+0x6>
    162c:	00 d0       	rcall	.+0      	; 0x162e <batt_voltage+0x8>
    162e:	cd b7       	in	r28, 0x3d	; 61
    1630:	de b7       	in	r29, 0x3e	; 62
    1632:	82 e0       	ldi	r24, 0x02	; 2
    1634:	0e 94 e3 0a 	call	0x15c6	; 0x15c6 <adc_Read>
    1638:	cc 01       	movw	r24, r24
    163a:	a0 e0       	ldi	r26, 0x00	; 0
    163c:	b0 e0       	ldi	r27, 0x00	; 0
    163e:	89 83       	std	Y+1, r24	; 0x01
    1640:	9a 83       	std	Y+2, r25	; 0x02
    1642:	ab 83       	std	Y+3, r26	; 0x03
    1644:	bc 83       	std	Y+4, r27	; 0x04
    1646:	89 81       	ldd	r24, Y+1	; 0x01
    1648:	9a 81       	ldd	r25, Y+2	; 0x02
    164a:	ab 81       	ldd	r26, Y+3	; 0x03
    164c:	bc 81       	ldd	r27, Y+4	; 0x04
    164e:	88 0f       	add	r24, r24
    1650:	99 1f       	adc	r25, r25
    1652:	aa 1f       	adc	r26, r26
    1654:	bb 1f       	adc	r27, r27
    1656:	89 83       	std	Y+1, r24	; 0x01
    1658:	9a 83       	std	Y+2, r25	; 0x02
    165a:	ab 83       	std	Y+3, r26	; 0x03
    165c:	bc 83       	std	Y+4, r27	; 0x04
    165e:	29 81       	ldd	r18, Y+1	; 0x01
    1660:	3a 81       	ldd	r19, Y+2	; 0x02
    1662:	4b 81       	ldd	r20, Y+3	; 0x03
    1664:	5c 81       	ldd	r21, Y+4	; 0x04
    1666:	88 e8       	ldi	r24, 0x88	; 136
    1668:	93 e1       	ldi	r25, 0x13	; 19
    166a:	dc 01       	movw	r26, r24
    166c:	0e 94 a2 14 	call	0x2944	; 0x2944 <__muluhisi3>
    1670:	dc 01       	movw	r26, r24
    1672:	cb 01       	movw	r24, r22
    1674:	07 2e       	mov	r0, r23
    1676:	7a e0       	ldi	r23, 0x0A	; 10
    1678:	b6 95       	lsr	r27
    167a:	a7 95       	ror	r26
    167c:	97 95       	ror	r25
    167e:	87 95       	ror	r24
    1680:	7a 95       	dec	r23
    1682:	d1 f7       	brne	.-12     	; 0x1678 <batt_voltage+0x52>
    1684:	70 2d       	mov	r23, r0
    1686:	89 83       	std	Y+1, r24	; 0x01
    1688:	9a 83       	std	Y+2, r25	; 0x02
    168a:	ab 83       	std	Y+3, r26	; 0x03
    168c:	bc 83       	std	Y+4, r27	; 0x04
    168e:	89 81       	ldd	r24, Y+1	; 0x01
    1690:	9a 81       	ldd	r25, Y+2	; 0x02
    1692:	0f 90       	pop	r0
    1694:	0f 90       	pop	r0
    1696:	0f 90       	pop	r0
    1698:	0f 90       	pop	r0
    169a:	df 91       	pop	r29
    169c:	cf 91       	pop	r28
    169e:	08 95       	ret

000016a0 <setStatusLED>:
    16a0:	cf 93       	push	r28
    16a2:	df 93       	push	r29
    16a4:	1f 92       	push	r1
    16a6:	cd b7       	in	r28, 0x3d	; 61
    16a8:	de b7       	in	r29, 0x3e	; 62
    16aa:	89 83       	std	Y+1, r24	; 0x01
    16ac:	85 e2       	ldi	r24, 0x25	; 37
    16ae:	90 e0       	ldi	r25, 0x00	; 0
    16b0:	25 e2       	ldi	r18, 0x25	; 37
    16b2:	30 e0       	ldi	r19, 0x00	; 0
    16b4:	f9 01       	movw	r30, r18
    16b6:	20 81       	ld	r18, Z
    16b8:	23 60       	ori	r18, 0x03	; 3
    16ba:	fc 01       	movw	r30, r24
    16bc:	20 83       	st	Z, r18
    16be:	89 81       	ldd	r24, Y+1	; 0x01
    16c0:	81 30       	cpi	r24, 0x01	; 1
    16c2:	51 f4       	brne	.+20     	; 0x16d8 <setStatusLED+0x38>
    16c4:	85 e2       	ldi	r24, 0x25	; 37
    16c6:	90 e0       	ldi	r25, 0x00	; 0
    16c8:	25 e2       	ldi	r18, 0x25	; 37
    16ca:	30 e0       	ldi	r19, 0x00	; 0
    16cc:	f9 01       	movw	r30, r18
    16ce:	20 81       	ld	r18, Z
    16d0:	2d 7f       	andi	r18, 0xFD	; 253
    16d2:	fc 01       	movw	r30, r24
    16d4:	20 83       	st	Z, r18
    16d6:	19 c0       	rjmp	.+50     	; 0x170a <setStatusLED+0x6a>
    16d8:	89 81       	ldd	r24, Y+1	; 0x01
    16da:	88 23       	and	r24, r24
    16dc:	51 f4       	brne	.+20     	; 0x16f2 <setStatusLED+0x52>
    16de:	85 e2       	ldi	r24, 0x25	; 37
    16e0:	90 e0       	ldi	r25, 0x00	; 0
    16e2:	25 e2       	ldi	r18, 0x25	; 37
    16e4:	30 e0       	ldi	r19, 0x00	; 0
    16e6:	f9 01       	movw	r30, r18
    16e8:	20 81       	ld	r18, Z
    16ea:	2e 7f       	andi	r18, 0xFE	; 254
    16ec:	fc 01       	movw	r30, r24
    16ee:	20 83       	st	Z, r18
    16f0:	0c c0       	rjmp	.+24     	; 0x170a <setStatusLED+0x6a>
    16f2:	89 81       	ldd	r24, Y+1	; 0x01
    16f4:	83 30       	cpi	r24, 0x03	; 3
    16f6:	49 f4       	brne	.+18     	; 0x170a <setStatusLED+0x6a>
    16f8:	85 e2       	ldi	r24, 0x25	; 37
    16fa:	90 e0       	ldi	r25, 0x00	; 0
    16fc:	25 e2       	ldi	r18, 0x25	; 37
    16fe:	30 e0       	ldi	r19, 0x00	; 0
    1700:	f9 01       	movw	r30, r18
    1702:	20 81       	ld	r18, Z
    1704:	2c 7f       	andi	r18, 0xFC	; 252
    1706:	fc 01       	movw	r30, r24
    1708:	20 83       	st	Z, r18
    170a:	00 00       	nop
    170c:	0f 90       	pop	r0
    170e:	df 91       	pop	r29
    1710:	cf 91       	pop	r28
    1712:	08 95       	ret

00001714 <enableDevice>:
    1714:	cf 93       	push	r28
    1716:	df 93       	push	r29
    1718:	1f 92       	push	r1
    171a:	cd b7       	in	r28, 0x3d	; 61
    171c:	de b7       	in	r29, 0x3e	; 62
    171e:	89 83       	std	Y+1, r24	; 0x01
    1720:	89 81       	ldd	r24, Y+1	; 0x01
    1722:	88 2f       	mov	r24, r24
    1724:	90 e0       	ldi	r25, 0x00	; 0
    1726:	81 30       	cpi	r24, 0x01	; 1
    1728:	91 05       	cpc	r25, r1
    172a:	09 f4       	brne	.+2      	; 0x172e <enableDevice+0x1a>
    172c:	57 c0       	rjmp	.+174    	; 0x17dc <enableDevice+0xc8>
    172e:	82 30       	cpi	r24, 0x02	; 2
    1730:	91 05       	cpc	r25, r1
    1732:	24 f4       	brge	.+8      	; 0x173c <enableDevice+0x28>
    1734:	89 2b       	or	r24, r25
    1736:	09 f4       	brne	.+2      	; 0x173a <enableDevice+0x26>
    1738:	42 c0       	rjmp	.+132    	; 0x17be <enableDevice+0xaa>
    173a:	5f c0       	rjmp	.+190    	; 0x17fa <enableDevice+0xe6>
    173c:	83 30       	cpi	r24, 0x03	; 3
    173e:	91 05       	cpc	r25, r1
    1740:	79 f1       	breq	.+94     	; 0x17a0 <enableDevice+0x8c>
    1742:	8f 3f       	cpi	r24, 0xFF	; 255
    1744:	91 05       	cpc	r25, r1
    1746:	09 f0       	breq	.+2      	; 0x174a <enableDevice+0x36>
    1748:	58 c0       	rjmp	.+176    	; 0x17fa <enableDevice+0xe6>
    174a:	85 e2       	ldi	r24, 0x25	; 37
    174c:	90 e0       	ldi	r25, 0x00	; 0
    174e:	25 e2       	ldi	r18, 0x25	; 37
    1750:	30 e0       	ldi	r19, 0x00	; 0
    1752:	f9 01       	movw	r30, r18
    1754:	20 81       	ld	r18, Z
    1756:	2b 7f       	andi	r18, 0xFB	; 251
    1758:	fc 01       	movw	r30, r24
    175a:	20 83       	st	Z, r18
    175c:	88 e2       	ldi	r24, 0x28	; 40
    175e:	90 e0       	ldi	r25, 0x00	; 0
    1760:	28 e2       	ldi	r18, 0x28	; 40
    1762:	30 e0       	ldi	r19, 0x00	; 0
    1764:	f9 01       	movw	r30, r18
    1766:	20 81       	ld	r18, Z
    1768:	20 68       	ori	r18, 0x80	; 128
    176a:	fc 01       	movw	r30, r24
    176c:	20 83       	st	Z, r18
    176e:	88 e2       	ldi	r24, 0x28	; 40
    1770:	90 e0       	ldi	r25, 0x00	; 0
    1772:	28 e2       	ldi	r18, 0x28	; 40
    1774:	30 e0       	ldi	r19, 0x00	; 0
    1776:	f9 01       	movw	r30, r18
    1778:	20 81       	ld	r18, Z
    177a:	2f 7d       	andi	r18, 0xDF	; 223
    177c:	fc 01       	movw	r30, r24
    177e:	20 83       	st	Z, r18
    1780:	80 91 c1 01 	lds	r24, 0x01C1	; 0x8001c1 <systemStatus>
    1784:	84 60       	ori	r24, 0x04	; 4
    1786:	80 93 c1 01 	sts	0x01C1, r24	; 0x8001c1 <systemStatus>
    178a:	80 91 c1 01 	lds	r24, 0x01C1	; 0x8001c1 <systemStatus>
    178e:	80 61       	ori	r24, 0x10	; 16
    1790:	80 93 c1 01 	sts	0x01C1, r24	; 0x8001c1 <systemStatus>
    1794:	80 91 c8 01 	lds	r24, 0x01C8	; 0x8001c8 <lineSensors>
    1798:	82 60       	ori	r24, 0x02	; 2
    179a:	80 93 c8 01 	sts	0x01C8, r24	; 0x8001c8 <lineSensors>
    179e:	2d c0       	rjmp	.+90     	; 0x17fa <enableDevice+0xe6>
    17a0:	85 e2       	ldi	r24, 0x25	; 37
    17a2:	90 e0       	ldi	r25, 0x00	; 0
    17a4:	25 e2       	ldi	r18, 0x25	; 37
    17a6:	30 e0       	ldi	r19, 0x00	; 0
    17a8:	f9 01       	movw	r30, r18
    17aa:	20 81       	ld	r18, Z
    17ac:	2b 7f       	andi	r18, 0xFB	; 251
    17ae:	fc 01       	movw	r30, r24
    17b0:	20 83       	st	Z, r18
    17b2:	80 91 c1 01 	lds	r24, 0x01C1	; 0x8001c1 <systemStatus>
    17b6:	80 61       	ori	r24, 0x10	; 16
    17b8:	80 93 c1 01 	sts	0x01C1, r24	; 0x8001c1 <systemStatus>
    17bc:	1e c0       	rjmp	.+60     	; 0x17fa <enableDevice+0xe6>
    17be:	88 e2       	ldi	r24, 0x28	; 40
    17c0:	90 e0       	ldi	r25, 0x00	; 0
    17c2:	28 e2       	ldi	r18, 0x28	; 40
    17c4:	30 e0       	ldi	r19, 0x00	; 0
    17c6:	f9 01       	movw	r30, r18
    17c8:	20 81       	ld	r18, Z
    17ca:	20 68       	ori	r18, 0x80	; 128
    17cc:	fc 01       	movw	r30, r24
    17ce:	20 83       	st	Z, r18
    17d0:	80 91 c8 01 	lds	r24, 0x01C8	; 0x8001c8 <lineSensors>
    17d4:	82 60       	ori	r24, 0x02	; 2
    17d6:	80 93 c8 01 	sts	0x01C8, r24	; 0x8001c8 <lineSensors>
    17da:	0f c0       	rjmp	.+30     	; 0x17fa <enableDevice+0xe6>
    17dc:	88 e2       	ldi	r24, 0x28	; 40
    17de:	90 e0       	ldi	r25, 0x00	; 0
    17e0:	28 e2       	ldi	r18, 0x28	; 40
    17e2:	30 e0       	ldi	r19, 0x00	; 0
    17e4:	f9 01       	movw	r30, r18
    17e6:	20 81       	ld	r18, Z
    17e8:	2f 7d       	andi	r18, 0xDF	; 223
    17ea:	fc 01       	movw	r30, r24
    17ec:	20 83       	st	Z, r18
    17ee:	80 91 c1 01 	lds	r24, 0x01C1	; 0x8001c1 <systemStatus>
    17f2:	84 60       	ori	r24, 0x04	; 4
    17f4:	80 93 c1 01 	sts	0x01C1, r24	; 0x8001c1 <systemStatus>
    17f8:	00 00       	nop
    17fa:	00 00       	nop
    17fc:	0f 90       	pop	r0
    17fe:	df 91       	pop	r29
    1800:	cf 91       	pop	r28
    1802:	08 95       	ret

00001804 <disableDevice>:
    1804:	cf 93       	push	r28
    1806:	df 93       	push	r29
    1808:	1f 92       	push	r1
    180a:	cd b7       	in	r28, 0x3d	; 61
    180c:	de b7       	in	r29, 0x3e	; 62
    180e:	89 83       	std	Y+1, r24	; 0x01
    1810:	89 81       	ldd	r24, Y+1	; 0x01
    1812:	88 2f       	mov	r24, r24
    1814:	90 e0       	ldi	r25, 0x00	; 0
    1816:	81 30       	cpi	r24, 0x01	; 1
    1818:	91 05       	cpc	r25, r1
    181a:	09 f4       	brne	.+2      	; 0x181e <disableDevice+0x1a>
    181c:	57 c0       	rjmp	.+174    	; 0x18cc <disableDevice+0xc8>
    181e:	82 30       	cpi	r24, 0x02	; 2
    1820:	91 05       	cpc	r25, r1
    1822:	24 f4       	brge	.+8      	; 0x182c <disableDevice+0x28>
    1824:	89 2b       	or	r24, r25
    1826:	09 f4       	brne	.+2      	; 0x182a <disableDevice+0x26>
    1828:	42 c0       	rjmp	.+132    	; 0x18ae <disableDevice+0xaa>
    182a:	5f c0       	rjmp	.+190    	; 0x18ea <disableDevice+0xe6>
    182c:	83 30       	cpi	r24, 0x03	; 3
    182e:	91 05       	cpc	r25, r1
    1830:	79 f1       	breq	.+94     	; 0x1890 <disableDevice+0x8c>
    1832:	8f 3f       	cpi	r24, 0xFF	; 255
    1834:	91 05       	cpc	r25, r1
    1836:	09 f0       	breq	.+2      	; 0x183a <disableDevice+0x36>
    1838:	58 c0       	rjmp	.+176    	; 0x18ea <disableDevice+0xe6>
    183a:	85 e2       	ldi	r24, 0x25	; 37
    183c:	90 e0       	ldi	r25, 0x00	; 0
    183e:	25 e2       	ldi	r18, 0x25	; 37
    1840:	30 e0       	ldi	r19, 0x00	; 0
    1842:	f9 01       	movw	r30, r18
    1844:	20 81       	ld	r18, Z
    1846:	24 60       	ori	r18, 0x04	; 4
    1848:	fc 01       	movw	r30, r24
    184a:	20 83       	st	Z, r18
    184c:	88 e2       	ldi	r24, 0x28	; 40
    184e:	90 e0       	ldi	r25, 0x00	; 0
    1850:	28 e2       	ldi	r18, 0x28	; 40
    1852:	30 e0       	ldi	r19, 0x00	; 0
    1854:	f9 01       	movw	r30, r18
    1856:	20 81       	ld	r18, Z
    1858:	2f 77       	andi	r18, 0x7F	; 127
    185a:	fc 01       	movw	r30, r24
    185c:	20 83       	st	Z, r18
    185e:	88 e2       	ldi	r24, 0x28	; 40
    1860:	90 e0       	ldi	r25, 0x00	; 0
    1862:	28 e2       	ldi	r18, 0x28	; 40
    1864:	30 e0       	ldi	r19, 0x00	; 0
    1866:	f9 01       	movw	r30, r18
    1868:	20 81       	ld	r18, Z
    186a:	20 62       	ori	r18, 0x20	; 32
    186c:	fc 01       	movw	r30, r24
    186e:	20 83       	st	Z, r18
    1870:	80 91 c1 01 	lds	r24, 0x01C1	; 0x8001c1 <systemStatus>
    1874:	8b 7f       	andi	r24, 0xFB	; 251
    1876:	80 93 c1 01 	sts	0x01C1, r24	; 0x8001c1 <systemStatus>
    187a:	80 91 c1 01 	lds	r24, 0x01C1	; 0x8001c1 <systemStatus>
    187e:	8f 7e       	andi	r24, 0xEF	; 239
    1880:	80 93 c1 01 	sts	0x01C1, r24	; 0x8001c1 <systemStatus>
    1884:	80 91 c8 01 	lds	r24, 0x01C8	; 0x8001c8 <lineSensors>
    1888:	8d 7f       	andi	r24, 0xFD	; 253
    188a:	80 93 c8 01 	sts	0x01C8, r24	; 0x8001c8 <lineSensors>
    188e:	2d c0       	rjmp	.+90     	; 0x18ea <disableDevice+0xe6>
    1890:	85 e2       	ldi	r24, 0x25	; 37
    1892:	90 e0       	ldi	r25, 0x00	; 0
    1894:	25 e2       	ldi	r18, 0x25	; 37
    1896:	30 e0       	ldi	r19, 0x00	; 0
    1898:	f9 01       	movw	r30, r18
    189a:	20 81       	ld	r18, Z
    189c:	24 60       	ori	r18, 0x04	; 4
    189e:	fc 01       	movw	r30, r24
    18a0:	20 83       	st	Z, r18
    18a2:	80 91 c1 01 	lds	r24, 0x01C1	; 0x8001c1 <systemStatus>
    18a6:	8f 7e       	andi	r24, 0xEF	; 239
    18a8:	80 93 c1 01 	sts	0x01C1, r24	; 0x8001c1 <systemStatus>
    18ac:	1e c0       	rjmp	.+60     	; 0x18ea <disableDevice+0xe6>
    18ae:	88 e2       	ldi	r24, 0x28	; 40
    18b0:	90 e0       	ldi	r25, 0x00	; 0
    18b2:	28 e2       	ldi	r18, 0x28	; 40
    18b4:	30 e0       	ldi	r19, 0x00	; 0
    18b6:	f9 01       	movw	r30, r18
    18b8:	20 81       	ld	r18, Z
    18ba:	2f 77       	andi	r18, 0x7F	; 127
    18bc:	fc 01       	movw	r30, r24
    18be:	20 83       	st	Z, r18
    18c0:	80 91 c8 01 	lds	r24, 0x01C8	; 0x8001c8 <lineSensors>
    18c4:	8d 7f       	andi	r24, 0xFD	; 253
    18c6:	80 93 c8 01 	sts	0x01C8, r24	; 0x8001c8 <lineSensors>
    18ca:	0f c0       	rjmp	.+30     	; 0x18ea <disableDevice+0xe6>
    18cc:	88 e2       	ldi	r24, 0x28	; 40
    18ce:	90 e0       	ldi	r25, 0x00	; 0
    18d0:	28 e2       	ldi	r18, 0x28	; 40
    18d2:	30 e0       	ldi	r19, 0x00	; 0
    18d4:	f9 01       	movw	r30, r18
    18d6:	20 81       	ld	r18, Z
    18d8:	20 62       	ori	r18, 0x20	; 32
    18da:	fc 01       	movw	r30, r24
    18dc:	20 83       	st	Z, r18
    18de:	80 91 c1 01 	lds	r24, 0x01C1	; 0x8001c1 <systemStatus>
    18e2:	8b 7f       	andi	r24, 0xFB	; 251
    18e4:	80 93 c1 01 	sts	0x01C1, r24	; 0x8001c1 <systemStatus>
    18e8:	00 00       	nop
    18ea:	00 00       	nop
    18ec:	0f 90       	pop	r0
    18ee:	df 91       	pop	r29
    18f0:	cf 91       	pop	r28
    18f2:	08 95       	ret

000018f4 <uart_putInt>:
    18f4:	cf 93       	push	r28
    18f6:	df 93       	push	r29
    18f8:	cd b7       	in	r28, 0x3d	; 61
    18fa:	de b7       	in	r29, 0x3e	; 62
    18fc:	2c 97       	sbiw	r28, 0x0c	; 12
    18fe:	0f b6       	in	r0, 0x3f	; 63
    1900:	f8 94       	cli
    1902:	de bf       	out	0x3e, r29	; 62
    1904:	0f be       	out	0x3f, r0	; 63
    1906:	cd bf       	out	0x3d, r28	; 61
    1908:	9c 87       	std	Y+12, r25	; 0x0c
    190a:	8b 87       	std	Y+11, r24	; 0x0b
    190c:	8b 85       	ldd	r24, Y+11	; 0x0b
    190e:	9c 85       	ldd	r25, Y+12	; 0x0c
    1910:	4a e0       	ldi	r20, 0x0A	; 10
    1912:	50 e0       	ldi	r21, 0x00	; 0
    1914:	9e 01       	movw	r18, r28
    1916:	2f 5f       	subi	r18, 0xFF	; 255
    1918:	3f 4f       	sbci	r19, 0xFF	; 255
    191a:	b9 01       	movw	r22, r18
    191c:	0e 94 03 15 	call	0x2a06	; 0x2a06 <itoa>
    1920:	ce 01       	movw	r24, r28
    1922:	01 96       	adiw	r24, 0x01	; 1
    1924:	0e 94 2b 12 	call	0x2456	; 0x2456 <uart_puts>
    1928:	00 00       	nop
    192a:	2c 96       	adiw	r28, 0x0c	; 12
    192c:	0f b6       	in	r0, 0x3f	; 63
    192e:	f8 94       	cli
    1930:	de bf       	out	0x3e, r29	; 62
    1932:	0f be       	out	0x3f, r0	; 63
    1934:	cd bf       	out	0x3d, r28	; 61
    1936:	df 91       	pop	r29
    1938:	cf 91       	pop	r28
    193a:	08 95       	ret

0000193c <battery_update_DUMMY>:
    193c:	cf 93       	push	r28
    193e:	df 93       	push	r29
    1940:	cd b7       	in	r28, 0x3d	; 61
    1942:	de b7       	in	r29, 0x3e	; 62
    1944:	00 00       	nop
    1946:	df 91       	pop	r29
    1948:	cf 91       	pop	r28
    194a:	08 95       	ret

0000194c <taskBattery>:
    194c:	cf 93       	push	r28
    194e:	df 93       	push	r29
    1950:	cd b7       	in	r28, 0x3d	; 61
    1952:	de b7       	in	r29, 0x3e	; 62
    1954:	6d 97       	sbiw	r28, 0x1d	; 29
    1956:	0f b6       	in	r0, 0x3f	; 63
    1958:	f8 94       	cli
    195a:	de bf       	out	0x3e, r29	; 62
    195c:	0f be       	out	0x3f, r0	; 63
    195e:	cd bf       	out	0x3d, r28	; 61
    1960:	80 91 ea 01 	lds	r24, 0x01EA	; 0x8001ea <stopwatches>
    1964:	80 64       	ori	r24, 0x40	; 64
    1966:	80 93 ea 01 	sts	0x01EA, r24	; 0x8001ea <stopwatches>
    196a:	80 e4       	ldi	r24, 0x40	; 64
    196c:	0e 94 8a 10 	call	0x2114	; 0x2114 <getStopwatch>
    1970:	85 3f       	cpi	r24, 0xF5	; 245
    1972:	91 40       	sbci	r25, 0x01	; 1
    1974:	c0 f0       	brcs	.+48     	; 0x19a6 <taskBattery+0x5a>
    1976:	60 e0       	ldi	r22, 0x00	; 0
    1978:	70 e0       	ldi	r23, 0x00	; 0
    197a:	80 e4       	ldi	r24, 0x40	; 64
    197c:	90 e0       	ldi	r25, 0x00	; 0
    197e:	0e 94 0e 10 	call	0x201c	; 0x201c <setStopwatch>
    1982:	0e 94 13 0b 	call	0x1626	; 0x1626 <batt_voltage>
    1986:	90 93 c3 01 	sts	0x01C3, r25	; 0x8001c3 <systemStatus+0x2>
    198a:	80 93 c2 01 	sts	0x01C2, r24	; 0x8001c2 <systemStatus+0x1>
    198e:	80 91 c2 01 	lds	r24, 0x01C2	; 0x8001c2 <systemStatus+0x1>
    1992:	90 91 c3 01 	lds	r25, 0x01C3	; 0x8001c3 <systemStatus+0x2>
    1996:	80 39       	cpi	r24, 0x90	; 144
    1998:	9a 41       	sbci	r25, 0x1A	; 26
    199a:	28 f4       	brcc	.+10     	; 0x19a6 <taskBattery+0x5a>
    199c:	80 91 c1 01 	lds	r24, 0x01C1	; 0x8001c1 <systemStatus>
    19a0:	88 60       	ori	r24, 0x08	; 8
    19a2:	80 93 c1 01 	sts	0x01C1, r24	; 0x8001c1 <systemStatus>
    19a6:	80 91 c1 01 	lds	r24, 0x01C1	; 0x8001c1 <systemStatus>
    19aa:	88 70       	andi	r24, 0x08	; 8
    19ac:	88 23       	and	r24, r24
    19ae:	09 f4       	brne	.+2      	; 0x19b2 <taskBattery+0x66>
    19b0:	49 c1       	rjmp	.+658    	; 0x1c44 <taskBattery+0x2f8>
    19b2:	80 91 02 01 	lds	r24, 0x0102	; 0x800102 <battery_stateChangedHandler>
    19b6:	90 91 03 01 	lds	r25, 0x0103	; 0x800103 <battery_stateChangedHandler+0x1>
    19ba:	fc 01       	movw	r30, r24
    19bc:	09 95       	icall
    19be:	60 e0       	ldi	r22, 0x00	; 0
    19c0:	80 e0       	ldi	r24, 0x00	; 0
    19c2:	0e 94 7e 07 	call	0xefc	; 0xefc <motorDirection>
    19c6:	83 e0       	ldi	r24, 0x03	; 3
    19c8:	0e 94 02 0c 	call	0x1804	; 0x1804 <disableDevice>
    19cc:	80 e0       	ldi	r24, 0x00	; 0
    19ce:	0e 94 02 0c 	call	0x1804	; 0x1804 <disableDevice>
    19d2:	88 e2       	ldi	r24, 0x28	; 40
    19d4:	90 e0       	ldi	r25, 0x00	; 0
    19d6:	28 e2       	ldi	r18, 0x28	; 40
    19d8:	30 e0       	ldi	r19, 0x00	; 0
    19da:	f9 01       	movw	r30, r18
    19dc:	20 81       	ld	r18, Z
    19de:	2f 7b       	andi	r18, 0xBF	; 191
    19e0:	fc 01       	movw	r30, r24
    19e2:	20 83       	st	Z, r18
    19e4:	80 91 c1 01 	lds	r24, 0x01C1	; 0x8001c1 <systemStatus>
    19e8:	8e 7f       	andi	r24, 0xFE	; 254
    19ea:	80 93 c1 01 	sts	0x01C1, r24	; 0x8001c1 <systemStatus>
    19ee:	8a e0       	ldi	r24, 0x0A	; 10
    19f0:	0e 94 50 0b 	call	0x16a0	; 0x16a0 <setStatusLED>
    19f4:	0e 94 13 0b 	call	0x1626	; 0x1626 <batt_voltage>
    19f8:	9c 01       	movw	r18, r24
    19fa:	88 e4       	ldi	r24, 0x48	; 72
    19fc:	93 e0       	ldi	r25, 0x03	; 3
    19fe:	43 2f       	mov	r20, r19
    1a00:	4f 93       	push	r20
    1a02:	2f 93       	push	r18
    1a04:	29 2f       	mov	r18, r25
    1a06:	2f 93       	push	r18
    1a08:	8f 93       	push	r24
    1a0a:	0e 94 5d 07 	call	0xeba	; 0xeba <_log_Error>
    1a0e:	0f 90       	pop	r0
    1a10:	0f 90       	pop	r0
    1a12:	0f 90       	pop	r0
    1a14:	0f 90       	pop	r0
    1a16:	19 82       	std	Y+1, r1	; 0x01
    1a18:	ed c0       	rjmp	.+474    	; 0x1bf4 <taskBattery+0x2a8>
    1a1a:	81 e0       	ldi	r24, 0x01	; 1
    1a1c:	0e 94 50 0b 	call	0x16a0	; 0x16a0 <setStatusLED>
    1a20:	80 e0       	ldi	r24, 0x00	; 0
    1a22:	90 e0       	ldi	r25, 0x00	; 0
    1a24:	a8 e4       	ldi	r26, 0x48	; 72
    1a26:	b3 e4       	ldi	r27, 0x43	; 67
    1a28:	8a 83       	std	Y+2, r24	; 0x02
    1a2a:	9b 83       	std	Y+3, r25	; 0x03
    1a2c:	ac 83       	std	Y+4, r26	; 0x04
    1a2e:	bd 83       	std	Y+5, r27	; 0x05
    1a30:	20 e0       	ldi	r18, 0x00	; 0
    1a32:	30 e0       	ldi	r19, 0x00	; 0
    1a34:	4a e7       	ldi	r20, 0x7A	; 122
    1a36:	55 e4       	ldi	r21, 0x45	; 69
    1a38:	6a 81       	ldd	r22, Y+2	; 0x02
    1a3a:	7b 81       	ldd	r23, Y+3	; 0x03
    1a3c:	8c 81       	ldd	r24, Y+4	; 0x04
    1a3e:	9d 81       	ldd	r25, Y+5	; 0x05
    1a40:	0e 94 01 05 	call	0xa02	; 0xa02 <__mulsf3>
    1a44:	dc 01       	movw	r26, r24
    1a46:	cb 01       	movw	r24, r22
    1a48:	8c 8b       	std	Y+20, r24	; 0x14
    1a4a:	9d 8b       	std	Y+21, r25	; 0x15
    1a4c:	ae 8b       	std	Y+22, r26	; 0x16
    1a4e:	bf 8b       	std	Y+23, r27	; 0x17
    1a50:	20 e0       	ldi	r18, 0x00	; 0
    1a52:	30 e0       	ldi	r19, 0x00	; 0
    1a54:	40 e8       	ldi	r20, 0x80	; 128
    1a56:	5f e3       	ldi	r21, 0x3F	; 63
    1a58:	6c 89       	ldd	r22, Y+20	; 0x14
    1a5a:	7d 89       	ldd	r23, Y+21	; 0x15
    1a5c:	8e 89       	ldd	r24, Y+22	; 0x16
    1a5e:	9f 89       	ldd	r25, Y+23	; 0x17
    1a60:	0e 94 92 13 	call	0x2724	; 0x2724 <__cmpsf2>
    1a64:	88 23       	and	r24, r24
    1a66:	2c f4       	brge	.+10     	; 0x1a72 <taskBattery+0x126>
    1a68:	81 e0       	ldi	r24, 0x01	; 1
    1a6a:	90 e0       	ldi	r25, 0x00	; 0
    1a6c:	99 8f       	std	Y+25, r25	; 0x19
    1a6e:	88 8f       	std	Y+24, r24	; 0x18
    1a70:	3f c0       	rjmp	.+126    	; 0x1af0 <taskBattery+0x1a4>
    1a72:	20 e0       	ldi	r18, 0x00	; 0
    1a74:	3f ef       	ldi	r19, 0xFF	; 255
    1a76:	4f e7       	ldi	r20, 0x7F	; 127
    1a78:	57 e4       	ldi	r21, 0x47	; 71
    1a7a:	6c 89       	ldd	r22, Y+20	; 0x14
    1a7c:	7d 89       	ldd	r23, Y+21	; 0x15
    1a7e:	8e 89       	ldd	r24, Y+22	; 0x16
    1a80:	9f 89       	ldd	r25, Y+23	; 0x17
    1a82:	0e 94 6a 14 	call	0x28d4	; 0x28d4 <__gesf2>
    1a86:	18 16       	cp	r1, r24
    1a88:	4c f5       	brge	.+82     	; 0x1adc <taskBattery+0x190>
    1a8a:	20 e0       	ldi	r18, 0x00	; 0
    1a8c:	30 e0       	ldi	r19, 0x00	; 0
    1a8e:	40 e2       	ldi	r20, 0x20	; 32
    1a90:	51 e4       	ldi	r21, 0x41	; 65
    1a92:	6a 81       	ldd	r22, Y+2	; 0x02
    1a94:	7b 81       	ldd	r23, Y+3	; 0x03
    1a96:	8c 81       	ldd	r24, Y+4	; 0x04
    1a98:	9d 81       	ldd	r25, Y+5	; 0x05
    1a9a:	0e 94 01 05 	call	0xa02	; 0xa02 <__mulsf3>
    1a9e:	dc 01       	movw	r26, r24
    1aa0:	cb 01       	movw	r24, r22
    1aa2:	bc 01       	movw	r22, r24
    1aa4:	cd 01       	movw	r24, r26
    1aa6:	0e 94 a9 04 	call	0x952	; 0x952 <__fixunssfsi>
    1aaa:	dc 01       	movw	r26, r24
    1aac:	cb 01       	movw	r24, r22
    1aae:	99 8f       	std	Y+25, r25	; 0x19
    1ab0:	88 8f       	std	Y+24, r24	; 0x18
    1ab2:	0f c0       	rjmp	.+30     	; 0x1ad2 <taskBattery+0x186>
    1ab4:	80 e9       	ldi	r24, 0x90	; 144
    1ab6:	91 e0       	ldi	r25, 0x01	; 1
    1ab8:	9b 8f       	std	Y+27, r25	; 0x1b
    1aba:	8a 8f       	std	Y+26, r24	; 0x1a
    1abc:	8a 8d       	ldd	r24, Y+26	; 0x1a
    1abe:	9b 8d       	ldd	r25, Y+27	; 0x1b
    1ac0:	01 97       	sbiw	r24, 0x01	; 1
    1ac2:	f1 f7       	brne	.-4      	; 0x1ac0 <taskBattery+0x174>
    1ac4:	9b 8f       	std	Y+27, r25	; 0x1b
    1ac6:	8a 8f       	std	Y+26, r24	; 0x1a
    1ac8:	88 8d       	ldd	r24, Y+24	; 0x18
    1aca:	99 8d       	ldd	r25, Y+25	; 0x19
    1acc:	01 97       	sbiw	r24, 0x01	; 1
    1ace:	99 8f       	std	Y+25, r25	; 0x19
    1ad0:	88 8f       	std	Y+24, r24	; 0x18
    1ad2:	88 8d       	ldd	r24, Y+24	; 0x18
    1ad4:	99 8d       	ldd	r25, Y+25	; 0x19
    1ad6:	89 2b       	or	r24, r25
    1ad8:	69 f7       	brne	.-38     	; 0x1ab4 <taskBattery+0x168>
    1ada:	14 c0       	rjmp	.+40     	; 0x1b04 <taskBattery+0x1b8>
    1adc:	6c 89       	ldd	r22, Y+20	; 0x14
    1ade:	7d 89       	ldd	r23, Y+21	; 0x15
    1ae0:	8e 89       	ldd	r24, Y+22	; 0x16
    1ae2:	9f 89       	ldd	r25, Y+23	; 0x17
    1ae4:	0e 94 a9 04 	call	0x952	; 0x952 <__fixunssfsi>
    1ae8:	dc 01       	movw	r26, r24
    1aea:	cb 01       	movw	r24, r22
    1aec:	99 8f       	std	Y+25, r25	; 0x19
    1aee:	88 8f       	std	Y+24, r24	; 0x18
    1af0:	88 8d       	ldd	r24, Y+24	; 0x18
    1af2:	99 8d       	ldd	r25, Y+25	; 0x19
    1af4:	9d 8f       	std	Y+29, r25	; 0x1d
    1af6:	8c 8f       	std	Y+28, r24	; 0x1c
    1af8:	8c 8d       	ldd	r24, Y+28	; 0x1c
    1afa:	9d 8d       	ldd	r25, Y+29	; 0x1d
    1afc:	01 97       	sbiw	r24, 0x01	; 1
    1afe:	f1 f7       	brne	.-4      	; 0x1afc <taskBattery+0x1b0>
    1b00:	9d 8f       	std	Y+29, r25	; 0x1d
    1b02:	8c 8f       	std	Y+28, r24	; 0x1c
    1b04:	8a e0       	ldi	r24, 0x0A	; 10
    1b06:	0e 94 50 0b 	call	0x16a0	; 0x16a0 <setStatusLED>
    1b0a:	80 e0       	ldi	r24, 0x00	; 0
    1b0c:	90 e0       	ldi	r25, 0x00	; 0
    1b0e:	a8 e4       	ldi	r26, 0x48	; 72
    1b10:	b3 e4       	ldi	r27, 0x43	; 67
    1b12:	8e 83       	std	Y+6, r24	; 0x06
    1b14:	9f 83       	std	Y+7, r25	; 0x07
    1b16:	a8 87       	std	Y+8, r26	; 0x08
    1b18:	b9 87       	std	Y+9, r27	; 0x09
    1b1a:	20 e0       	ldi	r18, 0x00	; 0
    1b1c:	30 e0       	ldi	r19, 0x00	; 0
    1b1e:	4a e7       	ldi	r20, 0x7A	; 122
    1b20:	55 e4       	ldi	r21, 0x45	; 69
    1b22:	6e 81       	ldd	r22, Y+6	; 0x06
    1b24:	7f 81       	ldd	r23, Y+7	; 0x07
    1b26:	88 85       	ldd	r24, Y+8	; 0x08
    1b28:	99 85       	ldd	r25, Y+9	; 0x09
    1b2a:	0e 94 01 05 	call	0xa02	; 0xa02 <__mulsf3>
    1b2e:	dc 01       	movw	r26, r24
    1b30:	cb 01       	movw	r24, r22
    1b32:	8a 87       	std	Y+10, r24	; 0x0a
    1b34:	9b 87       	std	Y+11, r25	; 0x0b
    1b36:	ac 87       	std	Y+12, r26	; 0x0c
    1b38:	bd 87       	std	Y+13, r27	; 0x0d
    1b3a:	20 e0       	ldi	r18, 0x00	; 0
    1b3c:	30 e0       	ldi	r19, 0x00	; 0
    1b3e:	40 e8       	ldi	r20, 0x80	; 128
    1b40:	5f e3       	ldi	r21, 0x3F	; 63
    1b42:	6a 85       	ldd	r22, Y+10	; 0x0a
    1b44:	7b 85       	ldd	r23, Y+11	; 0x0b
    1b46:	8c 85       	ldd	r24, Y+12	; 0x0c
    1b48:	9d 85       	ldd	r25, Y+13	; 0x0d
    1b4a:	0e 94 92 13 	call	0x2724	; 0x2724 <__cmpsf2>
    1b4e:	88 23       	and	r24, r24
    1b50:	2c f4       	brge	.+10     	; 0x1b5c <taskBattery+0x210>
    1b52:	81 e0       	ldi	r24, 0x01	; 1
    1b54:	90 e0       	ldi	r25, 0x00	; 0
    1b56:	9f 87       	std	Y+15, r25	; 0x0f
    1b58:	8e 87       	std	Y+14, r24	; 0x0e
    1b5a:	3f c0       	rjmp	.+126    	; 0x1bda <taskBattery+0x28e>
    1b5c:	20 e0       	ldi	r18, 0x00	; 0
    1b5e:	3f ef       	ldi	r19, 0xFF	; 255
    1b60:	4f e7       	ldi	r20, 0x7F	; 127
    1b62:	57 e4       	ldi	r21, 0x47	; 71
    1b64:	6a 85       	ldd	r22, Y+10	; 0x0a
    1b66:	7b 85       	ldd	r23, Y+11	; 0x0b
    1b68:	8c 85       	ldd	r24, Y+12	; 0x0c
    1b6a:	9d 85       	ldd	r25, Y+13	; 0x0d
    1b6c:	0e 94 6a 14 	call	0x28d4	; 0x28d4 <__gesf2>
    1b70:	18 16       	cp	r1, r24
    1b72:	4c f5       	brge	.+82     	; 0x1bc6 <taskBattery+0x27a>
    1b74:	20 e0       	ldi	r18, 0x00	; 0
    1b76:	30 e0       	ldi	r19, 0x00	; 0
    1b78:	40 e2       	ldi	r20, 0x20	; 32
    1b7a:	51 e4       	ldi	r21, 0x41	; 65
    1b7c:	6e 81       	ldd	r22, Y+6	; 0x06
    1b7e:	7f 81       	ldd	r23, Y+7	; 0x07
    1b80:	88 85       	ldd	r24, Y+8	; 0x08
    1b82:	99 85       	ldd	r25, Y+9	; 0x09
    1b84:	0e 94 01 05 	call	0xa02	; 0xa02 <__mulsf3>
    1b88:	dc 01       	movw	r26, r24
    1b8a:	cb 01       	movw	r24, r22
    1b8c:	bc 01       	movw	r22, r24
    1b8e:	cd 01       	movw	r24, r26
    1b90:	0e 94 a9 04 	call	0x952	; 0x952 <__fixunssfsi>
    1b94:	dc 01       	movw	r26, r24
    1b96:	cb 01       	movw	r24, r22
    1b98:	9f 87       	std	Y+15, r25	; 0x0f
    1b9a:	8e 87       	std	Y+14, r24	; 0x0e
    1b9c:	0f c0       	rjmp	.+30     	; 0x1bbc <taskBattery+0x270>
    1b9e:	80 e9       	ldi	r24, 0x90	; 144
    1ba0:	91 e0       	ldi	r25, 0x01	; 1
    1ba2:	99 8b       	std	Y+17, r25	; 0x11
    1ba4:	88 8b       	std	Y+16, r24	; 0x10
    1ba6:	88 89       	ldd	r24, Y+16	; 0x10
    1ba8:	99 89       	ldd	r25, Y+17	; 0x11
    1baa:	01 97       	sbiw	r24, 0x01	; 1
    1bac:	f1 f7       	brne	.-4      	; 0x1baa <taskBattery+0x25e>
    1bae:	99 8b       	std	Y+17, r25	; 0x11
    1bb0:	88 8b       	std	Y+16, r24	; 0x10
    1bb2:	8e 85       	ldd	r24, Y+14	; 0x0e
    1bb4:	9f 85       	ldd	r25, Y+15	; 0x0f
    1bb6:	01 97       	sbiw	r24, 0x01	; 1
    1bb8:	9f 87       	std	Y+15, r25	; 0x0f
    1bba:	8e 87       	std	Y+14, r24	; 0x0e
    1bbc:	8e 85       	ldd	r24, Y+14	; 0x0e
    1bbe:	9f 85       	ldd	r25, Y+15	; 0x0f
    1bc0:	89 2b       	or	r24, r25
    1bc2:	69 f7       	brne	.-38     	; 0x1b9e <taskBattery+0x252>
    1bc4:	14 c0       	rjmp	.+40     	; 0x1bee <taskBattery+0x2a2>
    1bc6:	6a 85       	ldd	r22, Y+10	; 0x0a
    1bc8:	7b 85       	ldd	r23, Y+11	; 0x0b
    1bca:	8c 85       	ldd	r24, Y+12	; 0x0c
    1bcc:	9d 85       	ldd	r25, Y+13	; 0x0d
    1bce:	0e 94 a9 04 	call	0x952	; 0x952 <__fixunssfsi>
    1bd2:	dc 01       	movw	r26, r24
    1bd4:	cb 01       	movw	r24, r22
    1bd6:	9f 87       	std	Y+15, r25	; 0x0f
    1bd8:	8e 87       	std	Y+14, r24	; 0x0e
    1bda:	8e 85       	ldd	r24, Y+14	; 0x0e
    1bdc:	9f 85       	ldd	r25, Y+15	; 0x0f
    1bde:	9b 8b       	std	Y+19, r25	; 0x13
    1be0:	8a 8b       	std	Y+18, r24	; 0x12
    1be2:	8a 89       	ldd	r24, Y+18	; 0x12
    1be4:	9b 89       	ldd	r25, Y+19	; 0x13
    1be6:	01 97       	sbiw	r24, 0x01	; 1
    1be8:	f1 f7       	brne	.-4      	; 0x1be6 <taskBattery+0x29a>
    1bea:	9b 8b       	std	Y+19, r25	; 0x13
    1bec:	8a 8b       	std	Y+18, r24	; 0x12
    1bee:	89 81       	ldd	r24, Y+1	; 0x01
    1bf0:	8f 5f       	subi	r24, 0xFF	; 255
    1bf2:	89 83       	std	Y+1, r24	; 0x01
    1bf4:	89 81       	ldd	r24, Y+1	; 0x01
    1bf6:	84 31       	cpi	r24, 0x14	; 20
    1bf8:	08 f4       	brcc	.+2      	; 0x1bfc <taskBattery+0x2b0>
    1bfa:	0f cf       	rjmp	.-482    	; 0x1a1a <taskBattery+0xce>
    1bfc:	8f ef       	ldi	r24, 0xFF	; 255
    1bfe:	0e 94 02 0c 	call	0x1804	; 0x1804 <disableDevice>
    1c02:	8a e0       	ldi	r24, 0x0A	; 10
    1c04:	0e 94 50 0b 	call	0x16a0	; 0x16a0 <setStatusLED>
    1c08:	83 e5       	ldi	r24, 0x53	; 83
    1c0a:	90 e0       	ldi	r25, 0x00	; 0
    1c0c:	23 e5       	ldi	r18, 0x53	; 83
    1c0e:	30 e0       	ldi	r19, 0x00	; 0
    1c10:	f9 01       	movw	r30, r18
    1c12:	20 81       	ld	r18, Z
    1c14:	21 7f       	andi	r18, 0xF1	; 241
    1c16:	24 60       	ori	r18, 0x04	; 4
    1c18:	fc 01       	movw	r30, r24
    1c1a:	20 83       	st	Z, r18
    1c1c:	83 e5       	ldi	r24, 0x53	; 83
    1c1e:	90 e0       	ldi	r25, 0x00	; 0
    1c20:	23 e5       	ldi	r18, 0x53	; 83
    1c22:	30 e0       	ldi	r19, 0x00	; 0
    1c24:	f9 01       	movw	r30, r18
    1c26:	20 81       	ld	r18, Z
    1c28:	21 60       	ori	r18, 0x01	; 1
    1c2a:	fc 01       	movw	r30, r24
    1c2c:	20 83       	st	Z, r18
    1c2e:	88 95       	sleep
    1c30:	83 e5       	ldi	r24, 0x53	; 83
    1c32:	90 e0       	ldi	r25, 0x00	; 0
    1c34:	23 e5       	ldi	r18, 0x53	; 83
    1c36:	30 e0       	ldi	r19, 0x00	; 0
    1c38:	f9 01       	movw	r30, r18
    1c3a:	20 81       	ld	r18, Z
    1c3c:	2e 7f       	andi	r18, 0xFE	; 254
    1c3e:	fc 01       	movw	r30, r24
    1c40:	20 83       	st	Z, r18
    1c42:	ec cf       	rjmp	.-40     	; 0x1c1c <taskBattery+0x2d0>
    1c44:	00 00       	nop
    1c46:	6d 96       	adiw	r28, 0x1d	; 29
    1c48:	0f b6       	in	r0, 0x3f	; 63
    1c4a:	f8 94       	cli
    1c4c:	de bf       	out	0x3e, r29	; 62
    1c4e:	0f be       	out	0x3f, r0	; 63
    1c50:	cd bf       	out	0x3d, r28	; 61
    1c52:	df 91       	pop	r29
    1c54:	cf 91       	pop	r28
    1c56:	08 95       	ret

00001c58 <com_update_DUMMY>:
    1c58:	cf 93       	push	r28
    1c5a:	df 93       	push	r29
    1c5c:	cd b7       	in	r28, 0x3d	; 61
    1c5e:	de b7       	in	r29, 0x3e	; 62
    1c60:	00 00       	nop
    1c62:	df 91       	pop	r29
    1c64:	cf 91       	pop	r28
    1c66:	08 95       	ret

00001c68 <taskComunication>:
    1c68:	cf 93       	push	r28
    1c6a:	df 93       	push	r29
    1c6c:	cd b7       	in	r28, 0x3d	; 61
    1c6e:	de b7       	in	r29, 0x3e	; 62
    1c70:	80 91 04 01 	lds	r24, 0x0104	; 0x800104 <com_stateChangedHandler>
    1c74:	90 91 05 01 	lds	r25, 0x0105	; 0x800105 <com_stateChangedHandler+0x1>
    1c78:	fc 01       	movw	r30, r24
    1c7a:	09 95       	icall
    1c7c:	00 00       	nop
    1c7e:	df 91       	pop	r29
    1c80:	cf 91       	pop	r28
    1c82:	08 95       	ret

00001c84 <drive_update_DUMMY>:
    1c84:	cf 93       	push	r28
    1c86:	df 93       	push	r29
    1c88:	cd b7       	in	r28, 0x3d	; 61
    1c8a:	de b7       	in	r29, 0x3e	; 62
    1c8c:	00 00       	nop
    1c8e:	df 91       	pop	r29
    1c90:	cf 91       	pop	r28
    1c92:	08 95       	ret

00001c94 <drive_setStateChangedHandler>:
    1c94:	cf 93       	push	r28
    1c96:	df 93       	push	r29
    1c98:	00 d0       	rcall	.+0      	; 0x1c9a <drive_setStateChangedHandler+0x6>
    1c9a:	cd b7       	in	r28, 0x3d	; 61
    1c9c:	de b7       	in	r29, 0x3e	; 62
    1c9e:	9a 83       	std	Y+2, r25	; 0x02
    1ca0:	89 83       	std	Y+1, r24	; 0x01
    1ca2:	89 81       	ldd	r24, Y+1	; 0x01
    1ca4:	9a 81       	ldd	r25, Y+2	; 0x02
    1ca6:	90 93 07 01 	sts	0x0107, r25	; 0x800107 <drive_stateChangedHandler+0x1>
    1caa:	80 93 06 01 	sts	0x0106, r24	; 0x800106 <drive_stateChangedHandler>
    1cae:	00 00       	nop
    1cb0:	0f 90       	pop	r0
    1cb2:	0f 90       	pop	r0
    1cb4:	df 91       	pop	r29
    1cb6:	cf 91       	pop	r28
    1cb8:	08 95       	ret

00001cba <taskDrive>:
    1cba:	cf 93       	push	r28
    1cbc:	df 93       	push	r29
    1cbe:	cd b7       	in	r28, 0x3d	; 61
    1cc0:	de b7       	in	r29, 0x3e	; 62
    1cc2:	80 91 a2 01 	lds	r24, 0x01A2	; 0x8001a2 <motorStatus>
    1cc6:	80 71       	andi	r24, 0x10	; 16
    1cc8:	88 23       	and	r24, r24
    1cca:	f1 f0       	breq	.+60     	; 0x1d08 <taskDrive+0x4e>
    1ccc:	80 91 c1 01 	lds	r24, 0x01C1	; 0x8001c1 <systemStatus>
    1cd0:	81 70       	andi	r24, 0x01	; 1
    1cd2:	88 23       	and	r24, r24
    1cd4:	c9 f0       	breq	.+50     	; 0x1d08 <taskDrive+0x4e>
    1cd6:	80 e2       	ldi	r24, 0x20	; 32
    1cd8:	0e 94 8a 10 	call	0x2114	; 0x2114 <getStopwatch>
    1cdc:	9c 01       	movw	r18, r24
    1cde:	80 91 ac 01 	lds	r24, 0x01AC	; 0x8001ac <motorStatus+0xa>
    1ce2:	90 91 ad 01 	lds	r25, 0x01AD	; 0x8001ad <motorStatus+0xb>
    1ce6:	28 17       	cp	r18, r24
    1ce8:	39 07       	cpc	r19, r25
    1cea:	70 f0       	brcs	.+28     	; 0x1d08 <taskDrive+0x4e>
    1cec:	60 e0       	ldi	r22, 0x00	; 0
    1cee:	80 e0       	ldi	r24, 0x00	; 0
    1cf0:	0e 94 7e 07 	call	0xefc	; 0xefc <motorDirection>
    1cf4:	80 91 a2 01 	lds	r24, 0x01A2	; 0x8001a2 <motorStatus>
    1cf8:	8f 7e       	andi	r24, 0xEF	; 239
    1cfa:	80 93 a2 01 	sts	0x01A2, r24	; 0x8001a2 <motorStatus>
    1cfe:	80 91 ea 01 	lds	r24, 0x01EA	; 0x8001ea <stopwatches>
    1d02:	8f 7d       	andi	r24, 0xDF	; 223
    1d04:	80 93 ea 01 	sts	0x01EA, r24	; 0x8001ea <stopwatches>
    1d08:	80 91 06 01 	lds	r24, 0x0106	; 0x800106 <drive_stateChangedHandler>
    1d0c:	90 91 07 01 	lds	r25, 0x0107	; 0x800107 <drive_stateChangedHandler+0x1>
    1d10:	fc 01       	movw	r30, r24
    1d12:	09 95       	icall
    1d14:	00 00       	nop
    1d16:	df 91       	pop	r29
    1d18:	cf 91       	pop	r28
    1d1a:	08 95       	ret

00001d1c <taskSystem>:
    1d1c:	cf 93       	push	r28
    1d1e:	df 93       	push	r29
    1d20:	cd b7       	in	r28, 0x3d	; 61
    1d22:	de b7       	in	r29, 0x3e	; 62
    1d24:	0e 94 a6 0c 	call	0x194c	; 0x194c <taskBattery>
    1d28:	0e 94 34 0e 	call	0x1c68	; 0x1c68 <taskComunication>
    1d2c:	0e 94 5d 0e 	call	0x1cba	; 0x1cba <taskDrive>
    1d30:	00 00       	nop
    1d32:	df 91       	pop	r29
    1d34:	cf 91       	pop	r28
    1d36:	08 95       	ret

00001d38 <systemInit>:
    1d38:	cf 93       	push	r28
    1d3a:	df 93       	push	r29
    1d3c:	cd b7       	in	r28, 0x3d	; 61
    1d3e:	de b7       	in	r29, 0x3e	; 62
    1d40:	f8 94       	cli
    1d42:	84 e2       	ldi	r24, 0x24	; 36
    1d44:	90 e0       	ldi	r25, 0x00	; 0
    1d46:	24 e2       	ldi	r18, 0x24	; 36
    1d48:	30 e0       	ldi	r19, 0x00	; 0
    1d4a:	f9 01       	movw	r30, r18
    1d4c:	20 81       	ld	r18, Z
    1d4e:	27 60       	ori	r18, 0x07	; 7
    1d50:	fc 01       	movw	r30, r24
    1d52:	20 83       	st	Z, r18
    1d54:	87 e2       	ldi	r24, 0x27	; 39
    1d56:	90 e0       	ldi	r25, 0x00	; 0
    1d58:	27 e2       	ldi	r18, 0x27	; 39
    1d5a:	30 e0       	ldi	r19, 0x00	; 0
    1d5c:	f9 01       	movw	r30, r18
    1d5e:	20 81       	ld	r18, Z
    1d60:	2c 6f       	ori	r18, 0xFC	; 252
    1d62:	fc 01       	movw	r30, r24
    1d64:	20 83       	st	Z, r18
    1d66:	8a e2       	ldi	r24, 0x2A	; 42
    1d68:	90 e0       	ldi	r25, 0x00	; 0
    1d6a:	2a e2       	ldi	r18, 0x2A	; 42
    1d6c:	30 e0       	ldi	r19, 0x00	; 0
    1d6e:	f9 01       	movw	r30, r18
    1d70:	20 81       	ld	r18, Z
    1d72:	20 6f       	ori	r18, 0xF0	; 240
    1d74:	fc 01       	movw	r30, r24
    1d76:	20 83       	st	Z, r18
    1d78:	85 e2       	ldi	r24, 0x25	; 37
    1d7a:	90 e0       	ldi	r25, 0x00	; 0
    1d7c:	25 e2       	ldi	r18, 0x25	; 37
    1d7e:	30 e0       	ldi	r19, 0x00	; 0
    1d80:	f9 01       	movw	r30, r18
    1d82:	20 81       	ld	r18, Z
    1d84:	28 61       	ori	r18, 0x18	; 24
    1d86:	fc 01       	movw	r30, r24
    1d88:	20 83       	st	Z, r18
    1d8a:	80 e0       	ldi	r24, 0x00	; 0
    1d8c:	0e 94 02 0c 	call	0x1804	; 0x1804 <disableDevice>
    1d90:	81 e0       	ldi	r24, 0x01	; 1
    1d92:	0e 94 8a 0b 	call	0x1714	; 0x1714 <enableDevice>
    1d96:	8c e7       	ldi	r24, 0x7C	; 124
    1d98:	90 e0       	ldi	r25, 0x00	; 0
    1d9a:	2c e7       	ldi	r18, 0x7C	; 124
    1d9c:	30 e0       	ldi	r19, 0x00	; 0
    1d9e:	f9 01       	movw	r30, r18
    1da0:	20 81       	ld	r18, Z
    1da2:	20 64       	ori	r18, 0x40	; 64
    1da4:	fc 01       	movw	r30, r24
    1da6:	20 83       	st	Z, r18
    1da8:	8a e7       	ldi	r24, 0x7A	; 122
    1daa:	90 e0       	ldi	r25, 0x00	; 0
    1dac:	2a e7       	ldi	r18, 0x7A	; 122
    1dae:	30 e0       	ldi	r19, 0x00	; 0
    1db0:	f9 01       	movw	r30, r18
    1db2:	20 81       	ld	r18, Z
    1db4:	27 68       	ori	r18, 0x87	; 135
    1db6:	fc 01       	movw	r30, r24
    1db8:	20 83       	st	Z, r18
    1dba:	8a e7       	ldi	r24, 0x7A	; 122
    1dbc:	90 e0       	ldi	r25, 0x00	; 0
    1dbe:	2a e7       	ldi	r18, 0x7A	; 122
    1dc0:	30 e0       	ldi	r19, 0x00	; 0
    1dc2:	f9 01       	movw	r30, r18
    1dc4:	20 81       	ld	r18, Z
    1dc6:	20 64       	ori	r18, 0x40	; 64
    1dc8:	fc 01       	movw	r30, r24
    1dca:	20 83       	st	Z, r18
    1dcc:	00 00       	nop
    1dce:	8a e7       	ldi	r24, 0x7A	; 122
    1dd0:	90 e0       	ldi	r25, 0x00	; 0
    1dd2:	fc 01       	movw	r30, r24
    1dd4:	80 81       	ld	r24, Z
    1dd6:	88 2f       	mov	r24, r24
    1dd8:	90 e0       	ldi	r25, 0x00	; 0
    1dda:	80 74       	andi	r24, 0x40	; 64
    1ddc:	99 27       	eor	r25, r25
    1dde:	89 2b       	or	r24, r25
    1de0:	b1 f7       	brne	.-20     	; 0x1dce <systemInit+0x96>
    1de2:	88 e7       	ldi	r24, 0x78	; 120
    1de4:	90 e0       	ldi	r25, 0x00	; 0
    1de6:	fc 01       	movw	r30, r24
    1de8:	80 81       	ld	r24, Z
    1dea:	91 81       	ldd	r25, Z+1	; 0x01
    1dec:	84 e4       	ldi	r24, 0x44	; 68
    1dee:	90 e0       	ldi	r25, 0x00	; 0
    1df0:	24 e4       	ldi	r18, 0x44	; 68
    1df2:	30 e0       	ldi	r19, 0x00	; 0
    1df4:	f9 01       	movw	r30, r18
    1df6:	20 81       	ld	r18, Z
    1df8:	22 60       	ori	r18, 0x02	; 2
    1dfa:	fc 01       	movw	r30, r24
    1dfc:	20 83       	st	Z, r18
    1dfe:	85 e4       	ldi	r24, 0x45	; 69
    1e00:	90 e0       	ldi	r25, 0x00	; 0
    1e02:	25 e4       	ldi	r18, 0x45	; 69
    1e04:	30 e0       	ldi	r19, 0x00	; 0
    1e06:	f9 01       	movw	r30, r18
    1e08:	20 81       	ld	r18, Z
    1e0a:	23 60       	ori	r18, 0x03	; 3
    1e0c:	fc 01       	movw	r30, r24
    1e0e:	20 83       	st	Z, r18
    1e10:	8e e6       	ldi	r24, 0x6E	; 110
    1e12:	90 e0       	ldi	r25, 0x00	; 0
    1e14:	2e e6       	ldi	r18, 0x6E	; 110
    1e16:	30 e0       	ldi	r19, 0x00	; 0
    1e18:	f9 01       	movw	r30, r18
    1e1a:	20 81       	ld	r18, Z
    1e1c:	22 60       	ori	r18, 0x02	; 2
    1e1e:	fc 01       	movw	r30, r24
    1e20:	20 83       	st	Z, r18
    1e22:	87 e4       	ldi	r24, 0x47	; 71
    1e24:	90 e0       	ldi	r25, 0x00	; 0
    1e26:	29 ef       	ldi	r18, 0xF9	; 249
    1e28:	fc 01       	movw	r30, r24
    1e2a:	20 83       	st	Z, r18
    1e2c:	0e 94 13 0b 	call	0x1626	; 0x1626 <batt_voltage>
    1e30:	90 93 c3 01 	sts	0x01C3, r25	; 0x8001c3 <systemStatus+0x2>
    1e34:	80 93 c2 01 	sts	0x01C2, r24	; 0x8001c2 <systemStatus+0x1>
    1e38:	10 92 c4 01 	sts	0x01C4, r1	; 0x8001c4 <systemStatus+0x3>
    1e3c:	10 92 c5 01 	sts	0x01C5, r1	; 0x8001c5 <systemStatus+0x4>
    1e40:	10 92 c6 01 	sts	0x01C6, r1	; 0x8001c6 <systemStatus+0x5>
    1e44:	10 92 c7 01 	sts	0x01C7, r1	; 0x8001c7 <systemStatus+0x6>
    1e48:	10 92 c1 01 	sts	0x01C1, r1	; 0x8001c1 <systemStatus>
    1e4c:	88 e2       	ldi	r24, 0x28	; 40
    1e4e:	90 e0       	ldi	r25, 0x00	; 0
    1e50:	28 e2       	ldi	r18, 0x28	; 40
    1e52:	30 e0       	ldi	r19, 0x00	; 0
    1e54:	f9 01       	movw	r30, r18
    1e56:	20 81       	ld	r18, Z
    1e58:	2f 7b       	andi	r18, 0xBF	; 191
    1e5a:	fc 01       	movw	r30, r24
    1e5c:	20 83       	st	Z, r18
    1e5e:	8a e0       	ldi	r24, 0x0A	; 10
    1e60:	0e 94 50 0b 	call	0x16a0	; 0x16a0 <setStatusLED>
    1e64:	0e 94 87 08 	call	0x110e	; 0x110e <motorInit>
    1e68:	0e 94 06 13 	call	0x260c	; 0x260c <encoderInit>
    1e6c:	80 e1       	ldi	r24, 0x10	; 16
    1e6e:	90 e0       	ldi	r25, 0x00	; 0
    1e70:	0e 94 96 11 	call	0x232c	; 0x232c <uart_init>
    1e74:	88 e0       	ldi	r24, 0x08	; 8
    1e76:	91 e0       	ldi	r25, 0x01	; 1
    1e78:	90 93 fe 01 	sts	0x01FE, r25	; 0x8001fe <__iob+0x3>
    1e7c:	80 93 fd 01 	sts	0x01FD, r24	; 0x8001fd <__iob+0x2>
    1e80:	78 94       	sei
    1e82:	00 00       	nop
    1e84:	df 91       	pop	r29
    1e86:	cf 91       	pop	r28
    1e88:	08 95       	ret

00001e8a <__vector_16>:
    1e8a:	1f 92       	push	r1
    1e8c:	0f 92       	push	r0
    1e8e:	00 90 5f 00 	lds	r0, 0x005F	; 0x80005f <__TEXT_REGION_LENGTH__+0x7e005f>
    1e92:	0f 92       	push	r0
    1e94:	11 24       	eor	r1, r1
    1e96:	8f 93       	push	r24
    1e98:	9f 93       	push	r25
    1e9a:	af 93       	push	r26
    1e9c:	bf 93       	push	r27
    1e9e:	cf 93       	push	r28
    1ea0:	df 93       	push	r29
    1ea2:	cd b7       	in	r28, 0x3d	; 61
    1ea4:	de b7       	in	r29, 0x3e	; 62
    1ea6:	80 91 c4 01 	lds	r24, 0x01C4	; 0x8001c4 <systemStatus+0x3>
    1eaa:	90 91 c5 01 	lds	r25, 0x01C5	; 0x8001c5 <systemStatus+0x4>
    1eae:	a0 91 c6 01 	lds	r26, 0x01C6	; 0x8001c6 <systemStatus+0x5>
    1eb2:	b0 91 c7 01 	lds	r27, 0x01C7	; 0x8001c7 <systemStatus+0x6>
    1eb6:	01 96       	adiw	r24, 0x01	; 1
    1eb8:	a1 1d       	adc	r26, r1
    1eba:	b1 1d       	adc	r27, r1
    1ebc:	80 93 c4 01 	sts	0x01C4, r24	; 0x8001c4 <systemStatus+0x3>
    1ec0:	90 93 c5 01 	sts	0x01C5, r25	; 0x8001c5 <systemStatus+0x4>
    1ec4:	a0 93 c6 01 	sts	0x01C6, r26	; 0x8001c6 <systemStatus+0x5>
    1ec8:	b0 93 c7 01 	sts	0x01C7, r27	; 0x8001c7 <systemStatus+0x6>
    1ecc:	80 91 ea 01 	lds	r24, 0x01EA	; 0x8001ea <stopwatches>
    1ed0:	88 2f       	mov	r24, r24
    1ed2:	90 e0       	ldi	r25, 0x00	; 0
    1ed4:	81 70       	andi	r24, 0x01	; 1
    1ed6:	99 27       	eor	r25, r25
    1ed8:	89 2b       	or	r24, r25
    1eda:	49 f0       	breq	.+18     	; 0x1eee <__vector_16+0x64>
    1edc:	80 91 eb 01 	lds	r24, 0x01EB	; 0x8001eb <stopwatches+0x1>
    1ee0:	90 91 ec 01 	lds	r25, 0x01EC	; 0x8001ec <stopwatches+0x2>
    1ee4:	01 96       	adiw	r24, 0x01	; 1
    1ee6:	90 93 ec 01 	sts	0x01EC, r25	; 0x8001ec <stopwatches+0x2>
    1eea:	80 93 eb 01 	sts	0x01EB, r24	; 0x8001eb <stopwatches+0x1>
    1eee:	80 91 ea 01 	lds	r24, 0x01EA	; 0x8001ea <stopwatches>
    1ef2:	88 2f       	mov	r24, r24
    1ef4:	90 e0       	ldi	r25, 0x00	; 0
    1ef6:	82 70       	andi	r24, 0x02	; 2
    1ef8:	99 27       	eor	r25, r25
    1efa:	89 2b       	or	r24, r25
    1efc:	49 f0       	breq	.+18     	; 0x1f10 <__vector_16+0x86>
    1efe:	80 91 ed 01 	lds	r24, 0x01ED	; 0x8001ed <stopwatches+0x3>
    1f02:	90 91 ee 01 	lds	r25, 0x01EE	; 0x8001ee <stopwatches+0x4>
    1f06:	01 96       	adiw	r24, 0x01	; 1
    1f08:	90 93 ee 01 	sts	0x01EE, r25	; 0x8001ee <stopwatches+0x4>
    1f0c:	80 93 ed 01 	sts	0x01ED, r24	; 0x8001ed <stopwatches+0x3>
    1f10:	80 91 ea 01 	lds	r24, 0x01EA	; 0x8001ea <stopwatches>
    1f14:	88 2f       	mov	r24, r24
    1f16:	90 e0       	ldi	r25, 0x00	; 0
    1f18:	84 70       	andi	r24, 0x04	; 4
    1f1a:	99 27       	eor	r25, r25
    1f1c:	89 2b       	or	r24, r25
    1f1e:	49 f0       	breq	.+18     	; 0x1f32 <__vector_16+0xa8>
    1f20:	80 91 ef 01 	lds	r24, 0x01EF	; 0x8001ef <stopwatches+0x5>
    1f24:	90 91 f0 01 	lds	r25, 0x01F0	; 0x8001f0 <stopwatches+0x6>
    1f28:	01 96       	adiw	r24, 0x01	; 1
    1f2a:	90 93 f0 01 	sts	0x01F0, r25	; 0x8001f0 <stopwatches+0x6>
    1f2e:	80 93 ef 01 	sts	0x01EF, r24	; 0x8001ef <stopwatches+0x5>
    1f32:	80 91 ea 01 	lds	r24, 0x01EA	; 0x8001ea <stopwatches>
    1f36:	88 2f       	mov	r24, r24
    1f38:	90 e0       	ldi	r25, 0x00	; 0
    1f3a:	88 70       	andi	r24, 0x08	; 8
    1f3c:	99 27       	eor	r25, r25
    1f3e:	89 2b       	or	r24, r25
    1f40:	49 f0       	breq	.+18     	; 0x1f54 <__vector_16+0xca>
    1f42:	80 91 f1 01 	lds	r24, 0x01F1	; 0x8001f1 <stopwatches+0x7>
    1f46:	90 91 f2 01 	lds	r25, 0x01F2	; 0x8001f2 <stopwatches+0x8>
    1f4a:	01 96       	adiw	r24, 0x01	; 1
    1f4c:	90 93 f2 01 	sts	0x01F2, r25	; 0x8001f2 <stopwatches+0x8>
    1f50:	80 93 f1 01 	sts	0x01F1, r24	; 0x8001f1 <stopwatches+0x7>
    1f54:	80 91 ea 01 	lds	r24, 0x01EA	; 0x8001ea <stopwatches>
    1f58:	88 2f       	mov	r24, r24
    1f5a:	90 e0       	ldi	r25, 0x00	; 0
    1f5c:	80 71       	andi	r24, 0x10	; 16
    1f5e:	99 27       	eor	r25, r25
    1f60:	89 2b       	or	r24, r25
    1f62:	49 f0       	breq	.+18     	; 0x1f76 <__vector_16+0xec>
    1f64:	80 91 f3 01 	lds	r24, 0x01F3	; 0x8001f3 <stopwatches+0x9>
    1f68:	90 91 f4 01 	lds	r25, 0x01F4	; 0x8001f4 <stopwatches+0xa>
    1f6c:	01 96       	adiw	r24, 0x01	; 1
    1f6e:	90 93 f4 01 	sts	0x01F4, r25	; 0x8001f4 <stopwatches+0xa>
    1f72:	80 93 f3 01 	sts	0x01F3, r24	; 0x8001f3 <stopwatches+0x9>
    1f76:	80 91 ea 01 	lds	r24, 0x01EA	; 0x8001ea <stopwatches>
    1f7a:	88 2f       	mov	r24, r24
    1f7c:	90 e0       	ldi	r25, 0x00	; 0
    1f7e:	80 72       	andi	r24, 0x20	; 32
    1f80:	99 27       	eor	r25, r25
    1f82:	89 2b       	or	r24, r25
    1f84:	49 f0       	breq	.+18     	; 0x1f98 <__vector_16+0x10e>
    1f86:	80 91 f5 01 	lds	r24, 0x01F5	; 0x8001f5 <stopwatches+0xb>
    1f8a:	90 91 f6 01 	lds	r25, 0x01F6	; 0x8001f6 <stopwatches+0xc>
    1f8e:	01 96       	adiw	r24, 0x01	; 1
    1f90:	90 93 f6 01 	sts	0x01F6, r25	; 0x8001f6 <stopwatches+0xc>
    1f94:	80 93 f5 01 	sts	0x01F5, r24	; 0x8001f5 <stopwatches+0xb>
    1f98:	80 91 ea 01 	lds	r24, 0x01EA	; 0x8001ea <stopwatches>
    1f9c:	88 2f       	mov	r24, r24
    1f9e:	90 e0       	ldi	r25, 0x00	; 0
    1fa0:	80 74       	andi	r24, 0x40	; 64
    1fa2:	99 27       	eor	r25, r25
    1fa4:	89 2b       	or	r24, r25
    1fa6:	49 f0       	breq	.+18     	; 0x1fba <__vector_16+0x130>
    1fa8:	80 91 f7 01 	lds	r24, 0x01F7	; 0x8001f7 <stopwatches+0xd>
    1fac:	90 91 f8 01 	lds	r25, 0x01F8	; 0x8001f8 <stopwatches+0xe>
    1fb0:	01 96       	adiw	r24, 0x01	; 1
    1fb2:	90 93 f8 01 	sts	0x01F8, r25	; 0x8001f8 <stopwatches+0xe>
    1fb6:	80 93 f7 01 	sts	0x01F7, r24	; 0x8001f7 <stopwatches+0xd>
    1fba:	80 91 ea 01 	lds	r24, 0x01EA	; 0x8001ea <stopwatches>
    1fbe:	88 23       	and	r24, r24
    1fc0:	4c f4       	brge	.+18     	; 0x1fd4 <__vector_16+0x14a>
    1fc2:	80 91 f9 01 	lds	r24, 0x01F9	; 0x8001f9 <stopwatches+0xf>
    1fc6:	90 91 fa 01 	lds	r25, 0x01FA	; 0x8001fa <stopwatches+0x10>
    1fca:	01 96       	adiw	r24, 0x01	; 1
    1fcc:	90 93 fa 01 	sts	0x01FA, r25	; 0x8001fa <stopwatches+0x10>
    1fd0:	80 93 f9 01 	sts	0x01F9, r24	; 0x8001f9 <stopwatches+0xf>
    1fd4:	00 00       	nop
    1fd6:	df 91       	pop	r29
    1fd8:	cf 91       	pop	r28
    1fda:	bf 91       	pop	r27
    1fdc:	af 91       	pop	r26
    1fde:	9f 91       	pop	r25
    1fe0:	8f 91       	pop	r24
    1fe2:	0f 90       	pop	r0
    1fe4:	00 92 5f 00 	sts	0x005F, r0	; 0x80005f <__TEXT_REGION_LENGTH__+0x7e005f>
    1fe8:	0f 90       	pop	r0
    1fea:	1f 90       	pop	r1
    1fec:	18 95       	reti

00001fee <__iCliRetVal>:
    sei();
    return 1;
}

static __inline__ uint8_t __iCliRetVal(void)
{
    1fee:	cf 93       	push	r28
    1ff0:	df 93       	push	r29
    1ff2:	cd b7       	in	r28, 0x3d	; 61
    1ff4:	de b7       	in	r29, 0x3e	; 62
    cli();
    1ff6:	f8 94       	cli
    return 1;
    1ff8:	81 e0       	ldi	r24, 0x01	; 1
}
    1ffa:	df 91       	pop	r29
    1ffc:	cf 91       	pop	r28
    1ffe:	08 95       	ret

00002000 <__iSeiParam>:

static __inline__ void __iSeiParam(const uint8_t *__s)
{
    2000:	cf 93       	push	r28
    2002:	df 93       	push	r29
    2004:	00 d0       	rcall	.+0      	; 0x2006 <__iSeiParam+0x6>
    2006:	cd b7       	in	r28, 0x3d	; 61
    2008:	de b7       	in	r29, 0x3e	; 62
    200a:	9a 83       	std	Y+2, r25	; 0x02
    200c:	89 83       	std	Y+1, r24	; 0x01
    sei();
    200e:	78 94       	sei
    __asm__ volatile ("" ::: "memory");
    (void)__s;
}
    2010:	00 00       	nop
    2012:	0f 90       	pop	r0
    2014:	0f 90       	pop	r0
    2016:	df 91       	pop	r29
    2018:	cf 91       	pop	r28
    201a:	08 95       	ret

0000201c <setStopwatch>:
    201c:	cf 93       	push	r28
    201e:	df 93       	push	r29
    2020:	00 d0       	rcall	.+0      	; 0x2022 <setStopwatch+0x6>
    2022:	00 d0       	rcall	.+0      	; 0x2024 <setStopwatch+0x8>
    2024:	00 d0       	rcall	.+0      	; 0x2026 <setStopwatch+0xa>
    2026:	cd b7       	in	r28, 0x3d	; 61
    2028:	de b7       	in	r29, 0x3e	; 62
    202a:	9c 83       	std	Y+4, r25	; 0x04
    202c:	8b 83       	std	Y+3, r24	; 0x03
    202e:	7e 83       	std	Y+6, r23	; 0x06
    2030:	6d 83       	std	Y+5, r22	; 0x05
    2032:	1a 82       	std	Y+2, r1	; 0x02
    2034:	0e 94 f7 0f 	call	0x1fee	; 0x1fee <__iCliRetVal>
    2038:	89 83       	std	Y+1, r24	; 0x01
    203a:	5a c0       	rjmp	.+180    	; 0x20f0 <setStopwatch+0xd4>
    203c:	8b 81       	ldd	r24, Y+3	; 0x03
    203e:	9c 81       	ldd	r25, Y+4	; 0x04
    2040:	88 30       	cpi	r24, 0x08	; 8
    2042:	91 05       	cpc	r25, r1
    2044:	89 f1       	breq	.+98     	; 0x20a8 <setStopwatch+0x8c>
    2046:	89 30       	cpi	r24, 0x09	; 9
    2048:	91 05       	cpc	r25, r1
    204a:	48 f4       	brcc	.+18     	; 0x205e <setStopwatch+0x42>
    204c:	82 30       	cpi	r24, 0x02	; 2
    204e:	91 05       	cpc	r25, r1
    2050:	e9 f0       	breq	.+58     	; 0x208c <setStopwatch+0x70>
    2052:	84 30       	cpi	r24, 0x04	; 4
    2054:	91 05       	cpc	r25, r1
    2056:	09 f1       	breq	.+66     	; 0x209a <setStopwatch+0x7e>
    2058:	01 97       	sbiw	r24, 0x01	; 1
    205a:	89 f0       	breq	.+34     	; 0x207e <setStopwatch+0x62>
    205c:	48 c0       	rjmp	.+144    	; 0x20ee <setStopwatch+0xd2>
    205e:	80 32       	cpi	r24, 0x20	; 32
    2060:	91 05       	cpc	r25, r1
    2062:	81 f1       	breq	.+96     	; 0x20c4 <setStopwatch+0xa8>
    2064:	81 32       	cpi	r24, 0x21	; 33
    2066:	91 05       	cpc	r25, r1
    2068:	18 f4       	brcc	.+6      	; 0x2070 <setStopwatch+0x54>
    206a:	40 97       	sbiw	r24, 0x10	; 16
    206c:	21 f1       	breq	.+72     	; 0x20b6 <setStopwatch+0x9a>
    206e:	3f c0       	rjmp	.+126    	; 0x20ee <setStopwatch+0xd2>
    2070:	80 34       	cpi	r24, 0x40	; 64
    2072:	91 05       	cpc	r25, r1
    2074:	71 f1       	breq	.+92     	; 0x20d2 <setStopwatch+0xb6>
    2076:	80 38       	cpi	r24, 0x80	; 128
    2078:	91 05       	cpc	r25, r1
    207a:	91 f1       	breq	.+100    	; 0x20e0 <setStopwatch+0xc4>
    207c:	38 c0       	rjmp	.+112    	; 0x20ee <setStopwatch+0xd2>
    207e:	8d 81       	ldd	r24, Y+5	; 0x05
    2080:	9e 81       	ldd	r25, Y+6	; 0x06
    2082:	90 93 ec 01 	sts	0x01EC, r25	; 0x8001ec <stopwatches+0x2>
    2086:	80 93 eb 01 	sts	0x01EB, r24	; 0x8001eb <stopwatches+0x1>
    208a:	31 c0       	rjmp	.+98     	; 0x20ee <setStopwatch+0xd2>
    208c:	8d 81       	ldd	r24, Y+5	; 0x05
    208e:	9e 81       	ldd	r25, Y+6	; 0x06
    2090:	90 93 ee 01 	sts	0x01EE, r25	; 0x8001ee <stopwatches+0x4>
    2094:	80 93 ed 01 	sts	0x01ED, r24	; 0x8001ed <stopwatches+0x3>
    2098:	2a c0       	rjmp	.+84     	; 0x20ee <setStopwatch+0xd2>
    209a:	8d 81       	ldd	r24, Y+5	; 0x05
    209c:	9e 81       	ldd	r25, Y+6	; 0x06
    209e:	90 93 f0 01 	sts	0x01F0, r25	; 0x8001f0 <stopwatches+0x6>
    20a2:	80 93 ef 01 	sts	0x01EF, r24	; 0x8001ef <stopwatches+0x5>
    20a6:	23 c0       	rjmp	.+70     	; 0x20ee <setStopwatch+0xd2>
    20a8:	8d 81       	ldd	r24, Y+5	; 0x05
    20aa:	9e 81       	ldd	r25, Y+6	; 0x06
    20ac:	90 93 f2 01 	sts	0x01F2, r25	; 0x8001f2 <stopwatches+0x8>
    20b0:	80 93 f1 01 	sts	0x01F1, r24	; 0x8001f1 <stopwatches+0x7>
    20b4:	1c c0       	rjmp	.+56     	; 0x20ee <setStopwatch+0xd2>
    20b6:	8d 81       	ldd	r24, Y+5	; 0x05
    20b8:	9e 81       	ldd	r25, Y+6	; 0x06
    20ba:	90 93 f4 01 	sts	0x01F4, r25	; 0x8001f4 <stopwatches+0xa>
    20be:	80 93 f3 01 	sts	0x01F3, r24	; 0x8001f3 <stopwatches+0x9>
    20c2:	15 c0       	rjmp	.+42     	; 0x20ee <setStopwatch+0xd2>
    20c4:	8d 81       	ldd	r24, Y+5	; 0x05
    20c6:	9e 81       	ldd	r25, Y+6	; 0x06
    20c8:	90 93 f6 01 	sts	0x01F6, r25	; 0x8001f6 <stopwatches+0xc>
    20cc:	80 93 f5 01 	sts	0x01F5, r24	; 0x8001f5 <stopwatches+0xb>
    20d0:	0e c0       	rjmp	.+28     	; 0x20ee <setStopwatch+0xd2>
    20d2:	8d 81       	ldd	r24, Y+5	; 0x05
    20d4:	9e 81       	ldd	r25, Y+6	; 0x06
    20d6:	90 93 f8 01 	sts	0x01F8, r25	; 0x8001f8 <stopwatches+0xe>
    20da:	80 93 f7 01 	sts	0x01F7, r24	; 0x8001f7 <stopwatches+0xd>
    20de:	07 c0       	rjmp	.+14     	; 0x20ee <setStopwatch+0xd2>
    20e0:	8d 81       	ldd	r24, Y+5	; 0x05
    20e2:	9e 81       	ldd	r25, Y+6	; 0x06
    20e4:	90 93 fa 01 	sts	0x01FA, r25	; 0x8001fa <stopwatches+0x10>
    20e8:	80 93 f9 01 	sts	0x01F9, r24	; 0x8001f9 <stopwatches+0xf>
    20ec:	00 00       	nop
    20ee:	19 82       	std	Y+1, r1	; 0x01
    20f0:	89 81       	ldd	r24, Y+1	; 0x01
    20f2:	88 23       	and	r24, r24
    20f4:	09 f0       	breq	.+2      	; 0x20f8 <setStopwatch+0xdc>
    20f6:	a2 cf       	rjmp	.-188    	; 0x203c <setStopwatch+0x20>
    20f8:	ce 01       	movw	r24, r28
    20fa:	02 96       	adiw	r24, 0x02	; 2
    20fc:	0e 94 00 10 	call	0x2000	; 0x2000 <__iSeiParam>
    2100:	00 00       	nop
    2102:	26 96       	adiw	r28, 0x06	; 6
    2104:	0f b6       	in	r0, 0x3f	; 63
    2106:	f8 94       	cli
    2108:	de bf       	out	0x3e, r29	; 62
    210a:	0f be       	out	0x3f, r0	; 63
    210c:	cd bf       	out	0x3d, r28	; 61
    210e:	df 91       	pop	r29
    2110:	cf 91       	pop	r28
    2112:	08 95       	ret

00002114 <getStopwatch>:
    2114:	cf 93       	push	r28
    2116:	df 93       	push	r29
    2118:	00 d0       	rcall	.+0      	; 0x211a <getStopwatch+0x6>
    211a:	00 d0       	rcall	.+0      	; 0x211c <getStopwatch+0x8>
    211c:	1f 92       	push	r1
    211e:	cd b7       	in	r28, 0x3d	; 61
    2120:	de b7       	in	r29, 0x3e	; 62
    2122:	8d 83       	std	Y+5, r24	; 0x05
    2124:	1c 82       	std	Y+4, r1	; 0x04
    2126:	0e 94 f7 0f 	call	0x1fee	; 0x1fee <__iCliRetVal>
    212a:	8b 83       	std	Y+3, r24	; 0x03
    212c:	5b c0       	rjmp	.+182    	; 0x21e4 <getStopwatch+0xd0>
    212e:	8d 81       	ldd	r24, Y+5	; 0x05
    2130:	88 2f       	mov	r24, r24
    2132:	90 e0       	ldi	r25, 0x00	; 0
    2134:	88 30       	cpi	r24, 0x08	; 8
    2136:	91 05       	cpc	r25, r1
    2138:	89 f1       	breq	.+98     	; 0x219c <getStopwatch+0x88>
    213a:	89 30       	cpi	r24, 0x09	; 9
    213c:	91 05       	cpc	r25, r1
    213e:	4c f4       	brge	.+18     	; 0x2152 <getStopwatch+0x3e>
    2140:	82 30       	cpi	r24, 0x02	; 2
    2142:	91 05       	cpc	r25, r1
    2144:	e9 f0       	breq	.+58     	; 0x2180 <getStopwatch+0x6c>
    2146:	84 30       	cpi	r24, 0x04	; 4
    2148:	91 05       	cpc	r25, r1
    214a:	09 f1       	breq	.+66     	; 0x218e <getStopwatch+0x7a>
    214c:	01 97       	sbiw	r24, 0x01	; 1
    214e:	89 f0       	breq	.+34     	; 0x2172 <getStopwatch+0x5e>
    2150:	48 c0       	rjmp	.+144    	; 0x21e2 <getStopwatch+0xce>
    2152:	80 32       	cpi	r24, 0x20	; 32
    2154:	91 05       	cpc	r25, r1
    2156:	81 f1       	breq	.+96     	; 0x21b8 <getStopwatch+0xa4>
    2158:	81 32       	cpi	r24, 0x21	; 33
    215a:	91 05       	cpc	r25, r1
    215c:	1c f4       	brge	.+6      	; 0x2164 <getStopwatch+0x50>
    215e:	40 97       	sbiw	r24, 0x10	; 16
    2160:	21 f1       	breq	.+72     	; 0x21aa <getStopwatch+0x96>
    2162:	3f c0       	rjmp	.+126    	; 0x21e2 <getStopwatch+0xce>
    2164:	80 34       	cpi	r24, 0x40	; 64
    2166:	91 05       	cpc	r25, r1
    2168:	71 f1       	breq	.+92     	; 0x21c6 <getStopwatch+0xb2>
    216a:	80 38       	cpi	r24, 0x80	; 128
    216c:	91 05       	cpc	r25, r1
    216e:	91 f1       	breq	.+100    	; 0x21d4 <getStopwatch+0xc0>
    2170:	38 c0       	rjmp	.+112    	; 0x21e2 <getStopwatch+0xce>
    2172:	80 91 eb 01 	lds	r24, 0x01EB	; 0x8001eb <stopwatches+0x1>
    2176:	90 91 ec 01 	lds	r25, 0x01EC	; 0x8001ec <stopwatches+0x2>
    217a:	9a 83       	std	Y+2, r25	; 0x02
    217c:	89 83       	std	Y+1, r24	; 0x01
    217e:	31 c0       	rjmp	.+98     	; 0x21e2 <getStopwatch+0xce>
    2180:	80 91 ed 01 	lds	r24, 0x01ED	; 0x8001ed <stopwatches+0x3>
    2184:	90 91 ee 01 	lds	r25, 0x01EE	; 0x8001ee <stopwatches+0x4>
    2188:	9a 83       	std	Y+2, r25	; 0x02
    218a:	89 83       	std	Y+1, r24	; 0x01
    218c:	2a c0       	rjmp	.+84     	; 0x21e2 <getStopwatch+0xce>
    218e:	80 91 ef 01 	lds	r24, 0x01EF	; 0x8001ef <stopwatches+0x5>
    2192:	90 91 f0 01 	lds	r25, 0x01F0	; 0x8001f0 <stopwatches+0x6>
    2196:	9a 83       	std	Y+2, r25	; 0x02
    2198:	89 83       	std	Y+1, r24	; 0x01
    219a:	23 c0       	rjmp	.+70     	; 0x21e2 <getStopwatch+0xce>
    219c:	80 91 f1 01 	lds	r24, 0x01F1	; 0x8001f1 <stopwatches+0x7>
    21a0:	90 91 f2 01 	lds	r25, 0x01F2	; 0x8001f2 <stopwatches+0x8>
    21a4:	9a 83       	std	Y+2, r25	; 0x02
    21a6:	89 83       	std	Y+1, r24	; 0x01
    21a8:	1c c0       	rjmp	.+56     	; 0x21e2 <getStopwatch+0xce>
    21aa:	80 91 f3 01 	lds	r24, 0x01F3	; 0x8001f3 <stopwatches+0x9>
    21ae:	90 91 f4 01 	lds	r25, 0x01F4	; 0x8001f4 <stopwatches+0xa>
    21b2:	9a 83       	std	Y+2, r25	; 0x02
    21b4:	89 83       	std	Y+1, r24	; 0x01
    21b6:	15 c0       	rjmp	.+42     	; 0x21e2 <getStopwatch+0xce>
    21b8:	80 91 f5 01 	lds	r24, 0x01F5	; 0x8001f5 <stopwatches+0xb>
    21bc:	90 91 f6 01 	lds	r25, 0x01F6	; 0x8001f6 <stopwatches+0xc>
    21c0:	9a 83       	std	Y+2, r25	; 0x02
    21c2:	89 83       	std	Y+1, r24	; 0x01
    21c4:	0e c0       	rjmp	.+28     	; 0x21e2 <getStopwatch+0xce>
    21c6:	80 91 f7 01 	lds	r24, 0x01F7	; 0x8001f7 <stopwatches+0xd>
    21ca:	90 91 f8 01 	lds	r25, 0x01F8	; 0x8001f8 <stopwatches+0xe>
    21ce:	9a 83       	std	Y+2, r25	; 0x02
    21d0:	89 83       	std	Y+1, r24	; 0x01
    21d2:	07 c0       	rjmp	.+14     	; 0x21e2 <getStopwatch+0xce>
    21d4:	80 91 f9 01 	lds	r24, 0x01F9	; 0x8001f9 <stopwatches+0xf>
    21d8:	90 91 fa 01 	lds	r25, 0x01FA	; 0x8001fa <stopwatches+0x10>
    21dc:	9a 83       	std	Y+2, r25	; 0x02
    21de:	89 83       	std	Y+1, r24	; 0x01
    21e0:	00 00       	nop
    21e2:	1b 82       	std	Y+3, r1	; 0x03
    21e4:	8b 81       	ldd	r24, Y+3	; 0x03
    21e6:	88 23       	and	r24, r24
    21e8:	09 f0       	breq	.+2      	; 0x21ec <getStopwatch+0xd8>
    21ea:	a1 cf       	rjmp	.-190    	; 0x212e <getStopwatch+0x1a>
    21ec:	ce 01       	movw	r24, r28
    21ee:	04 96       	adiw	r24, 0x04	; 4
    21f0:	0e 94 00 10 	call	0x2000	; 0x2000 <__iSeiParam>
    21f4:	89 81       	ldd	r24, Y+1	; 0x01
    21f6:	9a 81       	ldd	r25, Y+2	; 0x02
    21f8:	0f 90       	pop	r0
    21fa:	0f 90       	pop	r0
    21fc:	0f 90       	pop	r0
    21fe:	0f 90       	pop	r0
    2200:	0f 90       	pop	r0
    2202:	df 91       	pop	r29
    2204:	cf 91       	pop	r28
    2206:	08 95       	ret

00002208 <__vector_20>:
    2208:	1f 92       	push	r1
    220a:	0f 92       	push	r0
    220c:	00 90 5f 00 	lds	r0, 0x005F	; 0x80005f <__TEXT_REGION_LENGTH__+0x7e005f>
    2210:	0f 92       	push	r0
    2212:	11 24       	eor	r1, r1
    2214:	2f 93       	push	r18
    2216:	8f 93       	push	r24
    2218:	9f 93       	push	r25
    221a:	ef 93       	push	r30
    221c:	ff 93       	push	r31
    221e:	cf 93       	push	r28
    2220:	df 93       	push	r29
    2222:	00 d0       	rcall	.+0      	; 0x2224 <__vector_20+0x1c>
    2224:	00 d0       	rcall	.+0      	; 0x2226 <__vector_20+0x1e>
    2226:	cd b7       	in	r28, 0x3d	; 61
    2228:	de b7       	in	r29, 0x3e	; 62
    222a:	80 ec       	ldi	r24, 0xC0	; 192
    222c:	90 e0       	ldi	r25, 0x00	; 0
    222e:	fc 01       	movw	r30, r24
    2230:	80 81       	ld	r24, Z
    2232:	8a 83       	std	Y+2, r24	; 0x02
    2234:	86 ec       	ldi	r24, 0xC6	; 198
    2236:	90 e0       	ldi	r25, 0x00	; 0
    2238:	fc 01       	movw	r30, r24
    223a:	80 81       	ld	r24, Z
    223c:	8b 83       	std	Y+3, r24	; 0x03
    223e:	8a 81       	ldd	r24, Y+2	; 0x02
    2240:	8c 71       	andi	r24, 0x1C	; 28
    2242:	89 83       	std	Y+1, r24	; 0x01
    2244:	80 91 5a 01 	lds	r24, 0x015A	; 0x80015a <UART_RxHead>
    2248:	8f 5f       	subi	r24, 0xFF	; 255
    224a:	8f 71       	andi	r24, 0x1F	; 31
    224c:	8c 83       	std	Y+4, r24	; 0x04
    224e:	80 91 5b 01 	lds	r24, 0x015B	; 0x80015b <UART_RxTail>
    2252:	9c 81       	ldd	r25, Y+4	; 0x04
    2254:	98 17       	cp	r25, r24
    2256:	19 f4       	brne	.+6      	; 0x225e <__vector_20+0x56>
    2258:	82 e0       	ldi	r24, 0x02	; 2
    225a:	89 83       	std	Y+1, r24	; 0x01
    225c:	0b c0       	rjmp	.+22     	; 0x2274 <__vector_20+0x6c>
    225e:	8c 81       	ldd	r24, Y+4	; 0x04
    2260:	80 93 5a 01 	sts	0x015A, r24	; 0x80015a <UART_RxHead>
    2264:	8c 81       	ldd	r24, Y+4	; 0x04
    2266:	88 2f       	mov	r24, r24
    2268:	90 e0       	ldi	r25, 0x00	; 0
    226a:	88 5c       	subi	r24, 0xC8	; 200
    226c:	9e 4f       	sbci	r25, 0xFE	; 254
    226e:	2b 81       	ldd	r18, Y+3	; 0x03
    2270:	fc 01       	movw	r30, r24
    2272:	20 83       	st	Z, r18
    2274:	90 91 5c 01 	lds	r25, 0x015C	; 0x80015c <UART_LastRxError>
    2278:	89 81       	ldd	r24, Y+1	; 0x01
    227a:	89 2b       	or	r24, r25
    227c:	80 93 5c 01 	sts	0x015C, r24	; 0x80015c <UART_LastRxError>
    2280:	00 00       	nop
    2282:	0f 90       	pop	r0
    2284:	0f 90       	pop	r0
    2286:	0f 90       	pop	r0
    2288:	0f 90       	pop	r0
    228a:	df 91       	pop	r29
    228c:	cf 91       	pop	r28
    228e:	ff 91       	pop	r31
    2290:	ef 91       	pop	r30
    2292:	9f 91       	pop	r25
    2294:	8f 91       	pop	r24
    2296:	2f 91       	pop	r18
    2298:	0f 90       	pop	r0
    229a:	00 92 5f 00 	sts	0x005F, r0	; 0x80005f <__TEXT_REGION_LENGTH__+0x7e005f>
    229e:	0f 90       	pop	r0
    22a0:	1f 90       	pop	r1
    22a2:	18 95       	reti

000022a4 <__vector_21>:
    22a4:	1f 92       	push	r1
    22a6:	0f 92       	push	r0
    22a8:	00 90 5f 00 	lds	r0, 0x005F	; 0x80005f <__TEXT_REGION_LENGTH__+0x7e005f>
    22ac:	0f 92       	push	r0
    22ae:	11 24       	eor	r1, r1
    22b0:	2f 93       	push	r18
    22b2:	3f 93       	push	r19
    22b4:	8f 93       	push	r24
    22b6:	9f 93       	push	r25
    22b8:	ef 93       	push	r30
    22ba:	ff 93       	push	r31
    22bc:	cf 93       	push	r28
    22be:	df 93       	push	r29
    22c0:	1f 92       	push	r1
    22c2:	cd b7       	in	r28, 0x3d	; 61
    22c4:	de b7       	in	r29, 0x3e	; 62
    22c6:	90 91 58 01 	lds	r25, 0x0158	; 0x800158 <UART_TxHead>
    22ca:	80 91 59 01 	lds	r24, 0x0159	; 0x800159 <UART_TxTail>
    22ce:	98 17       	cp	r25, r24
    22d0:	a1 f0       	breq	.+40     	; 0x22fa <__vector_21+0x56>
    22d2:	80 91 59 01 	lds	r24, 0x0159	; 0x800159 <UART_TxTail>
    22d6:	8f 5f       	subi	r24, 0xFF	; 255
    22d8:	8f 71       	andi	r24, 0x1F	; 31
    22da:	89 83       	std	Y+1, r24	; 0x01
    22dc:	89 81       	ldd	r24, Y+1	; 0x01
    22de:	80 93 59 01 	sts	0x0159, r24	; 0x800159 <UART_TxTail>
    22e2:	86 ec       	ldi	r24, 0xC6	; 198
    22e4:	90 e0       	ldi	r25, 0x00	; 0
    22e6:	29 81       	ldd	r18, Y+1	; 0x01
    22e8:	22 2f       	mov	r18, r18
    22ea:	30 e0       	ldi	r19, 0x00	; 0
    22ec:	28 5e       	subi	r18, 0xE8	; 232
    22ee:	3e 4f       	sbci	r19, 0xFE	; 254
    22f0:	f9 01       	movw	r30, r18
    22f2:	20 81       	ld	r18, Z
    22f4:	fc 01       	movw	r30, r24
    22f6:	20 83       	st	Z, r18
    22f8:	09 c0       	rjmp	.+18     	; 0x230c <__vector_21+0x68>
    22fa:	81 ec       	ldi	r24, 0xC1	; 193
    22fc:	90 e0       	ldi	r25, 0x00	; 0
    22fe:	21 ec       	ldi	r18, 0xC1	; 193
    2300:	30 e0       	ldi	r19, 0x00	; 0
    2302:	f9 01       	movw	r30, r18
    2304:	20 81       	ld	r18, Z
    2306:	2f 7d       	andi	r18, 0xDF	; 223
    2308:	fc 01       	movw	r30, r24
    230a:	20 83       	st	Z, r18
    230c:	00 00       	nop
    230e:	0f 90       	pop	r0
    2310:	df 91       	pop	r29
    2312:	cf 91       	pop	r28
    2314:	ff 91       	pop	r31
    2316:	ef 91       	pop	r30
    2318:	9f 91       	pop	r25
    231a:	8f 91       	pop	r24
    231c:	3f 91       	pop	r19
    231e:	2f 91       	pop	r18
    2320:	0f 90       	pop	r0
    2322:	00 92 5f 00 	sts	0x005F, r0	; 0x80005f <__TEXT_REGION_LENGTH__+0x7e005f>
    2326:	0f 90       	pop	r0
    2328:	1f 90       	pop	r1
    232a:	18 95       	reti

0000232c <uart_init>:
    232c:	cf 93       	push	r28
    232e:	df 93       	push	r29
    2330:	00 d0       	rcall	.+0      	; 0x2332 <uart_init+0x6>
    2332:	cd b7       	in	r28, 0x3d	; 61
    2334:	de b7       	in	r29, 0x3e	; 62
    2336:	9a 83       	std	Y+2, r25	; 0x02
    2338:	89 83       	std	Y+1, r24	; 0x01
    233a:	10 92 58 01 	sts	0x0158, r1	; 0x800158 <UART_TxHead>
    233e:	10 92 59 01 	sts	0x0159, r1	; 0x800159 <UART_TxTail>
    2342:	10 92 5a 01 	sts	0x015A, r1	; 0x80015a <UART_RxHead>
    2346:	10 92 5b 01 	sts	0x015B, r1	; 0x80015b <UART_RxTail>
    234a:	89 81       	ldd	r24, Y+1	; 0x01
    234c:	9a 81       	ldd	r25, Y+2	; 0x02
    234e:	99 23       	and	r25, r25
    2350:	2c f4       	brge	.+10     	; 0x235c <uart_init+0x30>
    2352:	80 ec       	ldi	r24, 0xC0	; 192
    2354:	90 e0       	ldi	r25, 0x00	; 0
    2356:	22 e0       	ldi	r18, 0x02	; 2
    2358:	fc 01       	movw	r30, r24
    235a:	20 83       	st	Z, r18
    235c:	85 ec       	ldi	r24, 0xC5	; 197
    235e:	90 e0       	ldi	r25, 0x00	; 0
    2360:	29 81       	ldd	r18, Y+1	; 0x01
    2362:	3a 81       	ldd	r19, Y+2	; 0x02
    2364:	23 2f       	mov	r18, r19
    2366:	33 27       	eor	r19, r19
    2368:	20 78       	andi	r18, 0x80	; 128
    236a:	fc 01       	movw	r30, r24
    236c:	20 83       	st	Z, r18
    236e:	84 ec       	ldi	r24, 0xC4	; 196
    2370:	90 e0       	ldi	r25, 0x00	; 0
    2372:	29 81       	ldd	r18, Y+1	; 0x01
    2374:	fc 01       	movw	r30, r24
    2376:	20 83       	st	Z, r18
    2378:	81 ec       	ldi	r24, 0xC1	; 193
    237a:	90 e0       	ldi	r25, 0x00	; 0
    237c:	28 e9       	ldi	r18, 0x98	; 152
    237e:	fc 01       	movw	r30, r24
    2380:	20 83       	st	Z, r18
    2382:	82 ec       	ldi	r24, 0xC2	; 194
    2384:	90 e0       	ldi	r25, 0x00	; 0
    2386:	26 e0       	ldi	r18, 0x06	; 6
    2388:	fc 01       	movw	r30, r24
    238a:	20 83       	st	Z, r18
    238c:	00 00       	nop
    238e:	0f 90       	pop	r0
    2390:	0f 90       	pop	r0
    2392:	df 91       	pop	r29
    2394:	cf 91       	pop	r28
    2396:	08 95       	ret

00002398 <uart_getc>:
    2398:	cf 93       	push	r28
    239a:	df 93       	push	r29
    239c:	00 d0       	rcall	.+0      	; 0x239e <uart_getc+0x6>
    239e:	1f 92       	push	r1
    23a0:	cd b7       	in	r28, 0x3d	; 61
    23a2:	de b7       	in	r29, 0x3e	; 62
    23a4:	90 91 5a 01 	lds	r25, 0x015A	; 0x80015a <UART_RxHead>
    23a8:	80 91 5b 01 	lds	r24, 0x015B	; 0x80015b <UART_RxTail>
    23ac:	98 17       	cp	r25, r24
    23ae:	19 f4       	brne	.+6      	; 0x23b6 <uart_getc+0x1e>
    23b0:	80 e0       	ldi	r24, 0x00	; 0
    23b2:	91 e0       	ldi	r25, 0x01	; 1
    23b4:	1f c0       	rjmp	.+62     	; 0x23f4 <uart_getc+0x5c>
    23b6:	80 91 5b 01 	lds	r24, 0x015B	; 0x80015b <UART_RxTail>
    23ba:	8f 5f       	subi	r24, 0xFF	; 255
    23bc:	8f 71       	andi	r24, 0x1F	; 31
    23be:	89 83       	std	Y+1, r24	; 0x01
    23c0:	89 81       	ldd	r24, Y+1	; 0x01
    23c2:	88 2f       	mov	r24, r24
    23c4:	90 e0       	ldi	r25, 0x00	; 0
    23c6:	88 5c       	subi	r24, 0xC8	; 200
    23c8:	9e 4f       	sbci	r25, 0xFE	; 254
    23ca:	fc 01       	movw	r30, r24
    23cc:	80 81       	ld	r24, Z
    23ce:	8a 83       	std	Y+2, r24	; 0x02
    23d0:	80 91 5c 01 	lds	r24, 0x015C	; 0x80015c <UART_LastRxError>
    23d4:	8b 83       	std	Y+3, r24	; 0x03
    23d6:	89 81       	ldd	r24, Y+1	; 0x01
    23d8:	80 93 5b 01 	sts	0x015B, r24	; 0x80015b <UART_RxTail>
    23dc:	10 92 5c 01 	sts	0x015C, r1	; 0x80015c <UART_LastRxError>
    23e0:	8b 81       	ldd	r24, Y+3	; 0x03
    23e2:	88 2f       	mov	r24, r24
    23e4:	90 e0       	ldi	r25, 0x00	; 0
    23e6:	38 2f       	mov	r19, r24
    23e8:	22 27       	eor	r18, r18
    23ea:	8a 81       	ldd	r24, Y+2	; 0x02
    23ec:	88 2f       	mov	r24, r24
    23ee:	90 e0       	ldi	r25, 0x00	; 0
    23f0:	82 0f       	add	r24, r18
    23f2:	93 1f       	adc	r25, r19
    23f4:	0f 90       	pop	r0
    23f6:	0f 90       	pop	r0
    23f8:	0f 90       	pop	r0
    23fa:	df 91       	pop	r29
    23fc:	cf 91       	pop	r28
    23fe:	08 95       	ret

00002400 <uart_putc>:
    2400:	cf 93       	push	r28
    2402:	df 93       	push	r29
    2404:	00 d0       	rcall	.+0      	; 0x2406 <uart_putc+0x6>
    2406:	cd b7       	in	r28, 0x3d	; 61
    2408:	de b7       	in	r29, 0x3e	; 62
    240a:	8a 83       	std	Y+2, r24	; 0x02
    240c:	80 91 58 01 	lds	r24, 0x0158	; 0x800158 <UART_TxHead>
    2410:	8f 5f       	subi	r24, 0xFF	; 255
    2412:	8f 71       	andi	r24, 0x1F	; 31
    2414:	89 83       	std	Y+1, r24	; 0x01
    2416:	00 00       	nop
    2418:	80 91 59 01 	lds	r24, 0x0159	; 0x800159 <UART_TxTail>
    241c:	99 81       	ldd	r25, Y+1	; 0x01
    241e:	98 17       	cp	r25, r24
    2420:	d9 f3       	breq	.-10     	; 0x2418 <uart_putc+0x18>
    2422:	89 81       	ldd	r24, Y+1	; 0x01
    2424:	88 2f       	mov	r24, r24
    2426:	90 e0       	ldi	r25, 0x00	; 0
    2428:	88 5e       	subi	r24, 0xE8	; 232
    242a:	9e 4f       	sbci	r25, 0xFE	; 254
    242c:	2a 81       	ldd	r18, Y+2	; 0x02
    242e:	fc 01       	movw	r30, r24
    2430:	20 83       	st	Z, r18
    2432:	89 81       	ldd	r24, Y+1	; 0x01
    2434:	80 93 58 01 	sts	0x0158, r24	; 0x800158 <UART_TxHead>
    2438:	81 ec       	ldi	r24, 0xC1	; 193
    243a:	90 e0       	ldi	r25, 0x00	; 0
    243c:	21 ec       	ldi	r18, 0xC1	; 193
    243e:	30 e0       	ldi	r19, 0x00	; 0
    2440:	f9 01       	movw	r30, r18
    2442:	20 81       	ld	r18, Z
    2444:	20 62       	ori	r18, 0x20	; 32
    2446:	fc 01       	movw	r30, r24
    2448:	20 83       	st	Z, r18
    244a:	00 00       	nop
    244c:	0f 90       	pop	r0
    244e:	0f 90       	pop	r0
    2450:	df 91       	pop	r29
    2452:	cf 91       	pop	r28
    2454:	08 95       	ret

00002456 <uart_puts>:
    2456:	cf 93       	push	r28
    2458:	df 93       	push	r29
    245a:	00 d0       	rcall	.+0      	; 0x245c <uart_puts+0x6>
    245c:	cd b7       	in	r28, 0x3d	; 61
    245e:	de b7       	in	r29, 0x3e	; 62
    2460:	9a 83       	std	Y+2, r25	; 0x02
    2462:	89 83       	std	Y+1, r24	; 0x01
    2464:	0b c0       	rjmp	.+22     	; 0x247c <uart_puts+0x26>
    2466:	89 81       	ldd	r24, Y+1	; 0x01
    2468:	9a 81       	ldd	r25, Y+2	; 0x02
    246a:	9c 01       	movw	r18, r24
    246c:	2f 5f       	subi	r18, 0xFF	; 255
    246e:	3f 4f       	sbci	r19, 0xFF	; 255
    2470:	3a 83       	std	Y+2, r19	; 0x02
    2472:	29 83       	std	Y+1, r18	; 0x01
    2474:	fc 01       	movw	r30, r24
    2476:	80 81       	ld	r24, Z
    2478:	0e 94 00 12 	call	0x2400	; 0x2400 <uart_putc>
    247c:	89 81       	ldd	r24, Y+1	; 0x01
    247e:	9a 81       	ldd	r25, Y+2	; 0x02
    2480:	fc 01       	movw	r30, r24
    2482:	80 81       	ld	r24, Z
    2484:	88 23       	and	r24, r24
    2486:	79 f7       	brne	.-34     	; 0x2466 <uart_puts+0x10>
    2488:	00 00       	nop
    248a:	0f 90       	pop	r0
    248c:	0f 90       	pop	r0
    248e:	df 91       	pop	r29
    2490:	cf 91       	pop	r28
    2492:	08 95       	ret

00002494 <uart_puts_p>:
    2494:	1f 93       	push	r17
    2496:	cf 93       	push	r28
    2498:	df 93       	push	r29
    249a:	00 d0       	rcall	.+0      	; 0x249c <uart_puts_p+0x8>
    249c:	00 d0       	rcall	.+0      	; 0x249e <uart_puts_p+0xa>
    249e:	1f 92       	push	r1
    24a0:	cd b7       	in	r28, 0x3d	; 61
    24a2:	de b7       	in	r29, 0x3e	; 62
    24a4:	9d 83       	std	Y+5, r25	; 0x05
    24a6:	8c 83       	std	Y+4, r24	; 0x04
    24a8:	03 c0       	rjmp	.+6      	; 0x24b0 <uart_puts_p+0x1c>
    24aa:	81 2f       	mov	r24, r17
    24ac:	0e 94 00 12 	call	0x2400	; 0x2400 <uart_putc>
    24b0:	8c 81       	ldd	r24, Y+4	; 0x04
    24b2:	9d 81       	ldd	r25, Y+5	; 0x05
    24b4:	9c 01       	movw	r18, r24
    24b6:	2f 5f       	subi	r18, 0xFF	; 255
    24b8:	3f 4f       	sbci	r19, 0xFF	; 255
    24ba:	3d 83       	std	Y+5, r19	; 0x05
    24bc:	2c 83       	std	Y+4, r18	; 0x04
    24be:	9a 83       	std	Y+2, r25	; 0x02
    24c0:	89 83       	std	Y+1, r24	; 0x01
    24c2:	89 81       	ldd	r24, Y+1	; 0x01
    24c4:	9a 81       	ldd	r25, Y+2	; 0x02
    24c6:	fc 01       	movw	r30, r24
    24c8:	84 91       	lpm	r24, Z
    24ca:	8b 83       	std	Y+3, r24	; 0x03
    24cc:	8b 81       	ldd	r24, Y+3	; 0x03
    24ce:	18 2f       	mov	r17, r24
    24d0:	11 23       	and	r17, r17
    24d2:	59 f7       	brne	.-42     	; 0x24aa <uart_puts_p+0x16>
    24d4:	00 00       	nop
    24d6:	0f 90       	pop	r0
    24d8:	0f 90       	pop	r0
    24da:	0f 90       	pop	r0
    24dc:	0f 90       	pop	r0
    24de:	0f 90       	pop	r0
    24e0:	df 91       	pop	r29
    24e2:	cf 91       	pop	r28
    24e4:	1f 91       	pop	r17
    24e6:	08 95       	ret

000024e8 <__vector_28>:
    24e8:	1f 92       	push	r1
    24ea:	0f 92       	push	r0
    24ec:	00 90 5f 00 	lds	r0, 0x005F	; 0x80005f <__TEXT_REGION_LENGTH__+0x7e005f>
    24f0:	0f 92       	push	r0
    24f2:	11 24       	eor	r1, r1
    24f4:	2f 93       	push	r18
    24f6:	8f 93       	push	r24
    24f8:	9f 93       	push	r25
    24fa:	ef 93       	push	r30
    24fc:	ff 93       	push	r31
    24fe:	cf 93       	push	r28
    2500:	df 93       	push	r29
    2502:	00 d0       	rcall	.+0      	; 0x2504 <__vector_28+0x1c>
    2504:	00 d0       	rcall	.+0      	; 0x2506 <__vector_28+0x1e>
    2506:	cd b7       	in	r28, 0x3d	; 61
    2508:	de b7       	in	r29, 0x3e	; 62
    250a:	88 ec       	ldi	r24, 0xC8	; 200
    250c:	90 e0       	ldi	r25, 0x00	; 0
    250e:	fc 01       	movw	r30, r24
    2510:	80 81       	ld	r24, Z
    2512:	8a 83       	std	Y+2, r24	; 0x02
    2514:	8e ec       	ldi	r24, 0xCE	; 206
    2516:	90 e0       	ldi	r25, 0x00	; 0
    2518:	fc 01       	movw	r30, r24
    251a:	80 81       	ld	r24, Z
    251c:	8b 83       	std	Y+3, r24	; 0x03
    251e:	8a 81       	ldd	r24, Y+2	; 0x02
    2520:	8c 71       	andi	r24, 0x1C	; 28
    2522:	89 83       	std	Y+1, r24	; 0x01
    2524:	80 91 9f 01 	lds	r24, 0x019F	; 0x80019f <UART1_RxHead>
    2528:	8f 5f       	subi	r24, 0xFF	; 255
    252a:	8f 71       	andi	r24, 0x1F	; 31
    252c:	8c 83       	std	Y+4, r24	; 0x04
    252e:	80 91 a0 01 	lds	r24, 0x01A0	; 0x8001a0 <UART1_RxTail>
    2532:	9c 81       	ldd	r25, Y+4	; 0x04
    2534:	98 17       	cp	r25, r24
    2536:	19 f4       	brne	.+6      	; 0x253e <__vector_28+0x56>
    2538:	82 e0       	ldi	r24, 0x02	; 2
    253a:	89 83       	std	Y+1, r24	; 0x01
    253c:	0b c0       	rjmp	.+22     	; 0x2554 <__vector_28+0x6c>
    253e:	8c 81       	ldd	r24, Y+4	; 0x04
    2540:	80 93 9f 01 	sts	0x019F, r24	; 0x80019f <UART1_RxHead>
    2544:	8c 81       	ldd	r24, Y+4	; 0x04
    2546:	88 2f       	mov	r24, r24
    2548:	90 e0       	ldi	r25, 0x00	; 0
    254a:	83 58       	subi	r24, 0x83	; 131
    254c:	9e 4f       	sbci	r25, 0xFE	; 254
    254e:	2b 81       	ldd	r18, Y+3	; 0x03
    2550:	fc 01       	movw	r30, r24
    2552:	20 83       	st	Z, r18
    2554:	90 91 a1 01 	lds	r25, 0x01A1	; 0x8001a1 <UART1_LastRxError>
    2558:	89 81       	ldd	r24, Y+1	; 0x01
    255a:	89 2b       	or	r24, r25
    255c:	80 93 a1 01 	sts	0x01A1, r24	; 0x8001a1 <UART1_LastRxError>
    2560:	00 00       	nop
    2562:	0f 90       	pop	r0
    2564:	0f 90       	pop	r0
    2566:	0f 90       	pop	r0
    2568:	0f 90       	pop	r0
    256a:	df 91       	pop	r29
    256c:	cf 91       	pop	r28
    256e:	ff 91       	pop	r31
    2570:	ef 91       	pop	r30
    2572:	9f 91       	pop	r25
    2574:	8f 91       	pop	r24
    2576:	2f 91       	pop	r18
    2578:	0f 90       	pop	r0
    257a:	00 92 5f 00 	sts	0x005F, r0	; 0x80005f <__TEXT_REGION_LENGTH__+0x7e005f>
    257e:	0f 90       	pop	r0
    2580:	1f 90       	pop	r1
    2582:	18 95       	reti

00002584 <__vector_29>:
    2584:	1f 92       	push	r1
    2586:	0f 92       	push	r0
    2588:	00 90 5f 00 	lds	r0, 0x005F	; 0x80005f <__TEXT_REGION_LENGTH__+0x7e005f>
    258c:	0f 92       	push	r0
    258e:	11 24       	eor	r1, r1
    2590:	2f 93       	push	r18
    2592:	3f 93       	push	r19
    2594:	8f 93       	push	r24
    2596:	9f 93       	push	r25
    2598:	ef 93       	push	r30
    259a:	ff 93       	push	r31
    259c:	cf 93       	push	r28
    259e:	df 93       	push	r29
    25a0:	1f 92       	push	r1
    25a2:	cd b7       	in	r28, 0x3d	; 61
    25a4:	de b7       	in	r29, 0x3e	; 62
    25a6:	90 91 9d 01 	lds	r25, 0x019D	; 0x80019d <UART1_TxHead>
    25aa:	80 91 9e 01 	lds	r24, 0x019E	; 0x80019e <UART1_TxTail>
    25ae:	98 17       	cp	r25, r24
    25b0:	a1 f0       	breq	.+40     	; 0x25da <__vector_29+0x56>
    25b2:	80 91 9e 01 	lds	r24, 0x019E	; 0x80019e <UART1_TxTail>
    25b6:	8f 5f       	subi	r24, 0xFF	; 255
    25b8:	8f 71       	andi	r24, 0x1F	; 31
    25ba:	89 83       	std	Y+1, r24	; 0x01
    25bc:	89 81       	ldd	r24, Y+1	; 0x01
    25be:	80 93 9e 01 	sts	0x019E, r24	; 0x80019e <UART1_TxTail>
    25c2:	8e ec       	ldi	r24, 0xCE	; 206
    25c4:	90 e0       	ldi	r25, 0x00	; 0
    25c6:	29 81       	ldd	r18, Y+1	; 0x01
    25c8:	22 2f       	mov	r18, r18
    25ca:	30 e0       	ldi	r19, 0x00	; 0
    25cc:	23 5a       	subi	r18, 0xA3	; 163
    25ce:	3e 4f       	sbci	r19, 0xFE	; 254
    25d0:	f9 01       	movw	r30, r18
    25d2:	20 81       	ld	r18, Z
    25d4:	fc 01       	movw	r30, r24
    25d6:	20 83       	st	Z, r18
    25d8:	09 c0       	rjmp	.+18     	; 0x25ec <__vector_29+0x68>
    25da:	89 ec       	ldi	r24, 0xC9	; 201
    25dc:	90 e0       	ldi	r25, 0x00	; 0
    25de:	29 ec       	ldi	r18, 0xC9	; 201
    25e0:	30 e0       	ldi	r19, 0x00	; 0
    25e2:	f9 01       	movw	r30, r18
    25e4:	20 81       	ld	r18, Z
    25e6:	2f 7d       	andi	r18, 0xDF	; 223
    25e8:	fc 01       	movw	r30, r24
    25ea:	20 83       	st	Z, r18
    25ec:	00 00       	nop
    25ee:	0f 90       	pop	r0
    25f0:	df 91       	pop	r29
    25f2:	cf 91       	pop	r28
    25f4:	ff 91       	pop	r31
    25f6:	ef 91       	pop	r30
    25f8:	9f 91       	pop	r25
    25fa:	8f 91       	pop	r24
    25fc:	3f 91       	pop	r19
    25fe:	2f 91       	pop	r18
    2600:	0f 90       	pop	r0
    2602:	00 92 5f 00 	sts	0x005F, r0	; 0x80005f <__TEXT_REGION_LENGTH__+0x7e005f>
    2606:	0f 90       	pop	r0
    2608:	1f 90       	pop	r1
    260a:	18 95       	reti

0000260c <encoderInit>:
    260c:	cf 93       	push	r28
    260e:	df 93       	push	r29
    2610:	cd b7       	in	r28, 0x3d	; 61
    2612:	de b7       	in	r29, 0x3e	; 62
    2614:	89 e6       	ldi	r24, 0x69	; 105
    2616:	90 e0       	ldi	r25, 0x00	; 0
    2618:	29 e6       	ldi	r18, 0x69	; 105
    261a:	30 e0       	ldi	r19, 0x00	; 0
    261c:	f9 01       	movw	r30, r18
    261e:	20 81       	ld	r18, Z
    2620:	25 60       	ori	r18, 0x05	; 5
    2622:	fc 01       	movw	r30, r24
    2624:	20 83       	st	Z, r18
    2626:	8d e3       	ldi	r24, 0x3D	; 61
    2628:	90 e0       	ldi	r25, 0x00	; 0
    262a:	2d e3       	ldi	r18, 0x3D	; 61
    262c:	30 e0       	ldi	r19, 0x00	; 0
    262e:	f9 01       	movw	r30, r18
    2630:	20 81       	ld	r18, Z
    2632:	23 60       	ori	r18, 0x03	; 3
    2634:	fc 01       	movw	r30, r24
    2636:	20 83       	st	Z, r18
    2638:	00 00       	nop
    263a:	df 91       	pop	r29
    263c:	cf 91       	pop	r28
    263e:	08 95       	ret

00002640 <__vector_1>:
    2640:	1f 92       	push	r1
    2642:	0f 92       	push	r0
    2644:	00 90 5f 00 	lds	r0, 0x005F	; 0x80005f <__TEXT_REGION_LENGTH__+0x7e005f>
    2648:	0f 92       	push	r0
    264a:	11 24       	eor	r1, r1
    264c:	8f 93       	push	r24
    264e:	9f 93       	push	r25
    2650:	cf 93       	push	r28
    2652:	df 93       	push	r29
    2654:	cd b7       	in	r28, 0x3d	; 61
    2656:	de b7       	in	r29, 0x3e	; 62
    2658:	80 91 c1 01 	lds	r24, 0x01C1	; 0x8001c1 <systemStatus>
    265c:	80 71       	andi	r24, 0x10	; 16
    265e:	88 23       	and	r24, r24
    2660:	e9 f0       	breq	.+58     	; 0x269c <__vector_1+0x5c>
    2662:	80 91 a2 01 	lds	r24, 0x01A2	; 0x8001a2 <motorStatus>
    2666:	83 70       	andi	r24, 0x03	; 3
    2668:	81 30       	cpi	r24, 0x01	; 1
    266a:	51 f4       	brne	.+20     	; 0x2680 <__vector_1+0x40>
    266c:	80 91 a8 01 	lds	r24, 0x01A8	; 0x8001a8 <motorStatus+0x6>
    2670:	90 91 a9 01 	lds	r25, 0x01A9	; 0x8001a9 <motorStatus+0x7>
    2674:	01 96       	adiw	r24, 0x01	; 1
    2676:	90 93 a9 01 	sts	0x01A9, r25	; 0x8001a9 <motorStatus+0x7>
    267a:	80 93 a8 01 	sts	0x01A8, r24	; 0x8001a8 <motorStatus+0x6>
    267e:	0e c0       	rjmp	.+28     	; 0x269c <__vector_1+0x5c>
    2680:	80 91 a2 01 	lds	r24, 0x01A2	; 0x8001a2 <motorStatus>
    2684:	83 70       	andi	r24, 0x03	; 3
    2686:	82 30       	cpi	r24, 0x02	; 2
    2688:	49 f4       	brne	.+18     	; 0x269c <__vector_1+0x5c>
    268a:	80 91 a8 01 	lds	r24, 0x01A8	; 0x8001a8 <motorStatus+0x6>
    268e:	90 91 a9 01 	lds	r25, 0x01A9	; 0x8001a9 <motorStatus+0x7>
    2692:	01 97       	sbiw	r24, 0x01	; 1
    2694:	90 93 a9 01 	sts	0x01A9, r25	; 0x8001a9 <motorStatus+0x7>
    2698:	80 93 a8 01 	sts	0x01A8, r24	; 0x8001a8 <motorStatus+0x6>
    269c:	00 00       	nop
    269e:	df 91       	pop	r29
    26a0:	cf 91       	pop	r28
    26a2:	9f 91       	pop	r25
    26a4:	8f 91       	pop	r24
    26a6:	0f 90       	pop	r0
    26a8:	00 92 5f 00 	sts	0x005F, r0	; 0x80005f <__TEXT_REGION_LENGTH__+0x7e005f>
    26ac:	0f 90       	pop	r0
    26ae:	1f 90       	pop	r1
    26b0:	18 95       	reti

000026b2 <__vector_2>:
    26b2:	1f 92       	push	r1
    26b4:	0f 92       	push	r0
    26b6:	00 90 5f 00 	lds	r0, 0x005F	; 0x80005f <__TEXT_REGION_LENGTH__+0x7e005f>
    26ba:	0f 92       	push	r0
    26bc:	11 24       	eor	r1, r1
    26be:	8f 93       	push	r24
    26c0:	9f 93       	push	r25
    26c2:	cf 93       	push	r28
    26c4:	df 93       	push	r29
    26c6:	cd b7       	in	r28, 0x3d	; 61
    26c8:	de b7       	in	r29, 0x3e	; 62
    26ca:	80 91 c1 01 	lds	r24, 0x01C1	; 0x8001c1 <systemStatus>
    26ce:	80 71       	andi	r24, 0x10	; 16
    26d0:	88 23       	and	r24, r24
    26d2:	e9 f0       	breq	.+58     	; 0x270e <__vector_2+0x5c>
    26d4:	80 91 a2 01 	lds	r24, 0x01A2	; 0x8001a2 <motorStatus>
    26d8:	8c 70       	andi	r24, 0x0C	; 12
    26da:	84 30       	cpi	r24, 0x04	; 4
    26dc:	51 f4       	brne	.+20     	; 0x26f2 <__vector_2+0x40>
    26de:	80 91 aa 01 	lds	r24, 0x01AA	; 0x8001aa <motorStatus+0x8>
    26e2:	90 91 ab 01 	lds	r25, 0x01AB	; 0x8001ab <motorStatus+0x9>
    26e6:	01 96       	adiw	r24, 0x01	; 1
    26e8:	90 93 ab 01 	sts	0x01AB, r25	; 0x8001ab <motorStatus+0x9>
    26ec:	80 93 aa 01 	sts	0x01AA, r24	; 0x8001aa <motorStatus+0x8>
    26f0:	0e c0       	rjmp	.+28     	; 0x270e <__vector_2+0x5c>
    26f2:	80 91 a2 01 	lds	r24, 0x01A2	; 0x8001a2 <motorStatus>
    26f6:	8c 70       	andi	r24, 0x0C	; 12
    26f8:	88 30       	cpi	r24, 0x08	; 8
    26fa:	49 f4       	brne	.+18     	; 0x270e <__vector_2+0x5c>
    26fc:	80 91 aa 01 	lds	r24, 0x01AA	; 0x8001aa <motorStatus+0x8>
    2700:	90 91 ab 01 	lds	r25, 0x01AB	; 0x8001ab <motorStatus+0x9>
    2704:	01 97       	sbiw	r24, 0x01	; 1
    2706:	90 93 ab 01 	sts	0x01AB, r25	; 0x8001ab <motorStatus+0x9>
    270a:	80 93 aa 01 	sts	0x01AA, r24	; 0x8001aa <motorStatus+0x8>
    270e:	00 00       	nop
    2710:	df 91       	pop	r29
    2712:	cf 91       	pop	r28
    2714:	9f 91       	pop	r25
    2716:	8f 91       	pop	r24
    2718:	0f 90       	pop	r0
    271a:	00 92 5f 00 	sts	0x005F, r0	; 0x80005f <__TEXT_REGION_LENGTH__+0x7e005f>
    271e:	0f 90       	pop	r0
    2720:	1f 90       	pop	r1
    2722:	18 95       	reti

00002724 <__cmpsf2>:
    2724:	0e 94 46 14 	call	0x288c	; 0x288c <__fp_cmp>
    2728:	08 f4       	brcc	.+2      	; 0x272c <__cmpsf2+0x8>
    272a:	81 e0       	ldi	r24, 0x01	; 1
    272c:	08 95       	ret

0000272e <__divsf3>:
    272e:	0e 94 ab 13 	call	0x2756	; 0x2756 <__divsf3x>
    2732:	0c 94 85 05 	jmp	0xb0a	; 0xb0a <__fp_round>
    2736:	0e 94 7e 05 	call	0xafc	; 0xafc <__fp_pscB>
    273a:	58 f0       	brcs	.+22     	; 0x2752 <__divsf3+0x24>
    273c:	0e 94 77 05 	call	0xaee	; 0xaee <__fp_pscA>
    2740:	40 f0       	brcs	.+16     	; 0x2752 <__divsf3+0x24>
    2742:	29 f4       	brne	.+10     	; 0x274e <__divsf3+0x20>
    2744:	5f 3f       	cpi	r21, 0xFF	; 255
    2746:	29 f0       	breq	.+10     	; 0x2752 <__divsf3+0x24>
    2748:	0c 94 6e 05 	jmp	0xadc	; 0xadc <__fp_inf>
    274c:	51 11       	cpse	r21, r1
    274e:	0c 94 fb 04 	jmp	0x9f6	; 0x9f6 <__fp_szero>
    2752:	0c 94 74 05 	jmp	0xae8	; 0xae8 <__fp_nan>

00002756 <__divsf3x>:
    2756:	0e 94 d8 04 	call	0x9b0	; 0x9b0 <__fp_split3>
    275a:	68 f3       	brcs	.-38     	; 0x2736 <__divsf3+0x8>

0000275c <__divsf3_pse>:
    275c:	99 23       	and	r25, r25
    275e:	b1 f3       	breq	.-20     	; 0x274c <__divsf3+0x1e>
    2760:	55 23       	and	r21, r21
    2762:	91 f3       	breq	.-28     	; 0x2748 <__divsf3+0x1a>
    2764:	95 1b       	sub	r25, r21
    2766:	55 0b       	sbc	r21, r21
    2768:	bb 27       	eor	r27, r27
    276a:	aa 27       	eor	r26, r26
    276c:	62 17       	cp	r22, r18
    276e:	73 07       	cpc	r23, r19
    2770:	84 07       	cpc	r24, r20
    2772:	38 f0       	brcs	.+14     	; 0x2782 <__divsf3_pse+0x26>
    2774:	9f 5f       	subi	r25, 0xFF	; 255
    2776:	5f 4f       	sbci	r21, 0xFF	; 255
    2778:	22 0f       	add	r18, r18
    277a:	33 1f       	adc	r19, r19
    277c:	44 1f       	adc	r20, r20
    277e:	aa 1f       	adc	r26, r26
    2780:	a9 f3       	breq	.-22     	; 0x276c <__divsf3_pse+0x10>
    2782:	35 d0       	rcall	.+106    	; 0x27ee <__divsf3_pse+0x92>
    2784:	0e 2e       	mov	r0, r30
    2786:	3a f0       	brmi	.+14     	; 0x2796 <__divsf3_pse+0x3a>
    2788:	e0 e8       	ldi	r30, 0x80	; 128
    278a:	32 d0       	rcall	.+100    	; 0x27f0 <__divsf3_pse+0x94>
    278c:	91 50       	subi	r25, 0x01	; 1
    278e:	50 40       	sbci	r21, 0x00	; 0
    2790:	e6 95       	lsr	r30
    2792:	00 1c       	adc	r0, r0
    2794:	ca f7       	brpl	.-14     	; 0x2788 <__divsf3_pse+0x2c>
    2796:	2b d0       	rcall	.+86     	; 0x27ee <__divsf3_pse+0x92>
    2798:	fe 2f       	mov	r31, r30
    279a:	29 d0       	rcall	.+82     	; 0x27ee <__divsf3_pse+0x92>
    279c:	66 0f       	add	r22, r22
    279e:	77 1f       	adc	r23, r23
    27a0:	88 1f       	adc	r24, r24
    27a2:	bb 1f       	adc	r27, r27
    27a4:	26 17       	cp	r18, r22
    27a6:	37 07       	cpc	r19, r23
    27a8:	48 07       	cpc	r20, r24
    27aa:	ab 07       	cpc	r26, r27
    27ac:	b0 e8       	ldi	r27, 0x80	; 128
    27ae:	09 f0       	breq	.+2      	; 0x27b2 <__divsf3_pse+0x56>
    27b0:	bb 0b       	sbc	r27, r27
    27b2:	80 2d       	mov	r24, r0
    27b4:	bf 01       	movw	r22, r30
    27b6:	ff 27       	eor	r31, r31
    27b8:	93 58       	subi	r25, 0x83	; 131
    27ba:	5f 4f       	sbci	r21, 0xFF	; 255
    27bc:	3a f0       	brmi	.+14     	; 0x27cc <__divsf3_pse+0x70>
    27be:	9e 3f       	cpi	r25, 0xFE	; 254
    27c0:	51 05       	cpc	r21, r1
    27c2:	78 f0       	brcs	.+30     	; 0x27e2 <__divsf3_pse+0x86>
    27c4:	0c 94 6e 05 	jmp	0xadc	; 0xadc <__fp_inf>
    27c8:	0c 94 fb 04 	jmp	0x9f6	; 0x9f6 <__fp_szero>
    27cc:	5f 3f       	cpi	r21, 0xFF	; 255
    27ce:	e4 f3       	brlt	.-8      	; 0x27c8 <__divsf3_pse+0x6c>
    27d0:	98 3e       	cpi	r25, 0xE8	; 232
    27d2:	d4 f3       	brlt	.-12     	; 0x27c8 <__divsf3_pse+0x6c>
    27d4:	86 95       	lsr	r24
    27d6:	77 95       	ror	r23
    27d8:	67 95       	ror	r22
    27da:	b7 95       	ror	r27
    27dc:	f7 95       	ror	r31
    27de:	9f 5f       	subi	r25, 0xFF	; 255
    27e0:	c9 f7       	brne	.-14     	; 0x27d4 <__divsf3_pse+0x78>
    27e2:	88 0f       	add	r24, r24
    27e4:	91 1d       	adc	r25, r1
    27e6:	96 95       	lsr	r25
    27e8:	87 95       	ror	r24
    27ea:	97 f9       	bld	r25, 7
    27ec:	08 95       	ret
    27ee:	e1 e0       	ldi	r30, 0x01	; 1
    27f0:	66 0f       	add	r22, r22
    27f2:	77 1f       	adc	r23, r23
    27f4:	88 1f       	adc	r24, r24
    27f6:	bb 1f       	adc	r27, r27
    27f8:	62 17       	cp	r22, r18
    27fa:	73 07       	cpc	r23, r19
    27fc:	84 07       	cpc	r24, r20
    27fe:	ba 07       	cpc	r27, r26
    2800:	20 f0       	brcs	.+8      	; 0x280a <__divsf3_pse+0xae>
    2802:	62 1b       	sub	r22, r18
    2804:	73 0b       	sbc	r23, r19
    2806:	84 0b       	sbc	r24, r20
    2808:	ba 0b       	sbc	r27, r26
    280a:	ee 1f       	adc	r30, r30
    280c:	88 f7       	brcc	.-30     	; 0x27f0 <__divsf3_pse+0x94>
    280e:	e0 95       	com	r30
    2810:	08 95       	ret

00002812 <__floatunsisf>:
    2812:	e8 94       	clt
    2814:	09 c0       	rjmp	.+18     	; 0x2828 <__floatsisf+0x12>

00002816 <__floatsisf>:
    2816:	97 fb       	bst	r25, 7
    2818:	3e f4       	brtc	.+14     	; 0x2828 <__floatsisf+0x12>
    281a:	90 95       	com	r25
    281c:	80 95       	com	r24
    281e:	70 95       	com	r23
    2820:	61 95       	neg	r22
    2822:	7f 4f       	sbci	r23, 0xFF	; 255
    2824:	8f 4f       	sbci	r24, 0xFF	; 255
    2826:	9f 4f       	sbci	r25, 0xFF	; 255
    2828:	99 23       	and	r25, r25
    282a:	a9 f0       	breq	.+42     	; 0x2856 <__floatsisf+0x40>
    282c:	f9 2f       	mov	r31, r25
    282e:	96 e9       	ldi	r25, 0x96	; 150
    2830:	bb 27       	eor	r27, r27
    2832:	93 95       	inc	r25
    2834:	f6 95       	lsr	r31
    2836:	87 95       	ror	r24
    2838:	77 95       	ror	r23
    283a:	67 95       	ror	r22
    283c:	b7 95       	ror	r27
    283e:	f1 11       	cpse	r31, r1
    2840:	f8 cf       	rjmp	.-16     	; 0x2832 <__floatsisf+0x1c>
    2842:	fa f4       	brpl	.+62     	; 0x2882 <__floatsisf+0x6c>
    2844:	bb 0f       	add	r27, r27
    2846:	11 f4       	brne	.+4      	; 0x284c <__floatsisf+0x36>
    2848:	60 ff       	sbrs	r22, 0
    284a:	1b c0       	rjmp	.+54     	; 0x2882 <__floatsisf+0x6c>
    284c:	6f 5f       	subi	r22, 0xFF	; 255
    284e:	7f 4f       	sbci	r23, 0xFF	; 255
    2850:	8f 4f       	sbci	r24, 0xFF	; 255
    2852:	9f 4f       	sbci	r25, 0xFF	; 255
    2854:	16 c0       	rjmp	.+44     	; 0x2882 <__floatsisf+0x6c>
    2856:	88 23       	and	r24, r24
    2858:	11 f0       	breq	.+4      	; 0x285e <__floatsisf+0x48>
    285a:	96 e9       	ldi	r25, 0x96	; 150
    285c:	11 c0       	rjmp	.+34     	; 0x2880 <__floatsisf+0x6a>
    285e:	77 23       	and	r23, r23
    2860:	21 f0       	breq	.+8      	; 0x286a <__floatsisf+0x54>
    2862:	9e e8       	ldi	r25, 0x8E	; 142
    2864:	87 2f       	mov	r24, r23
    2866:	76 2f       	mov	r23, r22
    2868:	05 c0       	rjmp	.+10     	; 0x2874 <__floatsisf+0x5e>
    286a:	66 23       	and	r22, r22
    286c:	71 f0       	breq	.+28     	; 0x288a <__floatsisf+0x74>
    286e:	96 e8       	ldi	r25, 0x86	; 134
    2870:	86 2f       	mov	r24, r22
    2872:	70 e0       	ldi	r23, 0x00	; 0
    2874:	60 e0       	ldi	r22, 0x00	; 0
    2876:	2a f0       	brmi	.+10     	; 0x2882 <__floatsisf+0x6c>
    2878:	9a 95       	dec	r25
    287a:	66 0f       	add	r22, r22
    287c:	77 1f       	adc	r23, r23
    287e:	88 1f       	adc	r24, r24
    2880:	da f7       	brpl	.-10     	; 0x2878 <__floatsisf+0x62>
    2882:	88 0f       	add	r24, r24
    2884:	96 95       	lsr	r25
    2886:	87 95       	ror	r24
    2888:	97 f9       	bld	r25, 7
    288a:	08 95       	ret

0000288c <__fp_cmp>:
    288c:	99 0f       	add	r25, r25
    288e:	00 08       	sbc	r0, r0
    2890:	55 0f       	add	r21, r21
    2892:	aa 0b       	sbc	r26, r26
    2894:	e0 e8       	ldi	r30, 0x80	; 128
    2896:	fe ef       	ldi	r31, 0xFE	; 254
    2898:	16 16       	cp	r1, r22
    289a:	17 06       	cpc	r1, r23
    289c:	e8 07       	cpc	r30, r24
    289e:	f9 07       	cpc	r31, r25
    28a0:	c0 f0       	brcs	.+48     	; 0x28d2 <__fp_cmp+0x46>
    28a2:	12 16       	cp	r1, r18
    28a4:	13 06       	cpc	r1, r19
    28a6:	e4 07       	cpc	r30, r20
    28a8:	f5 07       	cpc	r31, r21
    28aa:	98 f0       	brcs	.+38     	; 0x28d2 <__fp_cmp+0x46>
    28ac:	62 1b       	sub	r22, r18
    28ae:	73 0b       	sbc	r23, r19
    28b0:	84 0b       	sbc	r24, r20
    28b2:	95 0b       	sbc	r25, r21
    28b4:	39 f4       	brne	.+14     	; 0x28c4 <__fp_cmp+0x38>
    28b6:	0a 26       	eor	r0, r26
    28b8:	61 f0       	breq	.+24     	; 0x28d2 <__fp_cmp+0x46>
    28ba:	23 2b       	or	r18, r19
    28bc:	24 2b       	or	r18, r20
    28be:	25 2b       	or	r18, r21
    28c0:	21 f4       	brne	.+8      	; 0x28ca <__fp_cmp+0x3e>
    28c2:	08 95       	ret
    28c4:	0a 26       	eor	r0, r26
    28c6:	09 f4       	brne	.+2      	; 0x28ca <__fp_cmp+0x3e>
    28c8:	a1 40       	sbci	r26, 0x01	; 1
    28ca:	a6 95       	lsr	r26
    28cc:	8f ef       	ldi	r24, 0xFF	; 255
    28ce:	81 1d       	adc	r24, r1
    28d0:	81 1d       	adc	r24, r1
    28d2:	08 95       	ret

000028d4 <__gesf2>:
    28d4:	0e 94 46 14 	call	0x288c	; 0x288c <__fp_cmp>
    28d8:	08 f4       	brcc	.+2      	; 0x28dc <__gesf2+0x8>
    28da:	8f ef       	ldi	r24, 0xFF	; 255
    28dc:	08 95       	ret

000028de <__mulsi3>:
    28de:	db 01       	movw	r26, r22
    28e0:	8f 93       	push	r24
    28e2:	9f 93       	push	r25
    28e4:	0e 94 a2 14 	call	0x2944	; 0x2944 <__muluhisi3>
    28e8:	bf 91       	pop	r27
    28ea:	af 91       	pop	r26
    28ec:	a2 9f       	mul	r26, r18
    28ee:	80 0d       	add	r24, r0
    28f0:	91 1d       	adc	r25, r1
    28f2:	a3 9f       	mul	r26, r19
    28f4:	90 0d       	add	r25, r0
    28f6:	b2 9f       	mul	r27, r18
    28f8:	90 0d       	add	r25, r0
    28fa:	11 24       	eor	r1, r1
    28fc:	08 95       	ret

000028fe <__divmodhi4>:
    28fe:	97 fb       	bst	r25, 7
    2900:	07 2e       	mov	r0, r23
    2902:	16 f4       	brtc	.+4      	; 0x2908 <__divmodhi4+0xa>
    2904:	00 94       	com	r0
    2906:	07 d0       	rcall	.+14     	; 0x2916 <__divmodhi4_neg1>
    2908:	77 fd       	sbrc	r23, 7
    290a:	09 d0       	rcall	.+18     	; 0x291e <__divmodhi4_neg2>
    290c:	0e 94 ad 14 	call	0x295a	; 0x295a <__udivmodhi4>
    2910:	07 fc       	sbrc	r0, 7
    2912:	05 d0       	rcall	.+10     	; 0x291e <__divmodhi4_neg2>
    2914:	3e f4       	brtc	.+14     	; 0x2924 <__divmodhi4_exit>

00002916 <__divmodhi4_neg1>:
    2916:	90 95       	com	r25
    2918:	81 95       	neg	r24
    291a:	9f 4f       	sbci	r25, 0xFF	; 255
    291c:	08 95       	ret

0000291e <__divmodhi4_neg2>:
    291e:	70 95       	com	r23
    2920:	61 95       	neg	r22
    2922:	7f 4f       	sbci	r23, 0xFF	; 255

00002924 <__divmodhi4_exit>:
    2924:	08 95       	ret

00002926 <__umulhisi3>:
    2926:	a2 9f       	mul	r26, r18
    2928:	b0 01       	movw	r22, r0
    292a:	b3 9f       	mul	r27, r19
    292c:	c0 01       	movw	r24, r0
    292e:	a3 9f       	mul	r26, r19
    2930:	70 0d       	add	r23, r0
    2932:	81 1d       	adc	r24, r1
    2934:	11 24       	eor	r1, r1
    2936:	91 1d       	adc	r25, r1
    2938:	b2 9f       	mul	r27, r18
    293a:	70 0d       	add	r23, r0
    293c:	81 1d       	adc	r24, r1
    293e:	11 24       	eor	r1, r1
    2940:	91 1d       	adc	r25, r1
    2942:	08 95       	ret

00002944 <__muluhisi3>:
    2944:	0e 94 93 14 	call	0x2926	; 0x2926 <__umulhisi3>
    2948:	a5 9f       	mul	r26, r21
    294a:	90 0d       	add	r25, r0
    294c:	b4 9f       	mul	r27, r20
    294e:	90 0d       	add	r25, r0
    2950:	a4 9f       	mul	r26, r20
    2952:	80 0d       	add	r24, r0
    2954:	91 1d       	adc	r25, r1
    2956:	11 24       	eor	r1, r1
    2958:	08 95       	ret

0000295a <__udivmodhi4>:
    295a:	aa 1b       	sub	r26, r26
    295c:	bb 1b       	sub	r27, r27
    295e:	51 e1       	ldi	r21, 0x11	; 17
    2960:	07 c0       	rjmp	.+14     	; 0x2970 <__udivmodhi4_ep>

00002962 <__udivmodhi4_loop>:
    2962:	aa 1f       	adc	r26, r26
    2964:	bb 1f       	adc	r27, r27
    2966:	a6 17       	cp	r26, r22
    2968:	b7 07       	cpc	r27, r23
    296a:	10 f0       	brcs	.+4      	; 0x2970 <__udivmodhi4_ep>
    296c:	a6 1b       	sub	r26, r22
    296e:	b7 0b       	sbc	r27, r23

00002970 <__udivmodhi4_ep>:
    2970:	88 1f       	adc	r24, r24
    2972:	99 1f       	adc	r25, r25
    2974:	5a 95       	dec	r21
    2976:	a9 f7       	brne	.-22     	; 0x2962 <__udivmodhi4_loop>
    2978:	80 95       	com	r24
    297a:	90 95       	com	r25
    297c:	bc 01       	movw	r22, r24
    297e:	cd 01       	movw	r24, r26
    2980:	08 95       	ret

00002982 <dtostrf>:
    2982:	ef 92       	push	r14
    2984:	0f 93       	push	r16
    2986:	1f 93       	push	r17
    2988:	cf 93       	push	r28
    298a:	df 93       	push	r29
    298c:	e8 01       	movw	r28, r16
    298e:	47 fd       	sbrc	r20, 7
    2990:	02 c0       	rjmp	.+4      	; 0x2996 <dtostrf+0x14>
    2992:	34 e0       	ldi	r19, 0x04	; 4
    2994:	01 c0       	rjmp	.+2      	; 0x2998 <dtostrf+0x16>
    2996:	34 e1       	ldi	r19, 0x14	; 20
    2998:	04 2e       	mov	r0, r20
    299a:	00 0c       	add	r0, r0
    299c:	55 0b       	sbc	r21, r21
    299e:	57 ff       	sbrs	r21, 7
    29a0:	03 c0       	rjmp	.+6      	; 0x29a8 <dtostrf+0x26>
    29a2:	51 95       	neg	r21
    29a4:	41 95       	neg	r20
    29a6:	51 09       	sbc	r21, r1
    29a8:	e3 2e       	mov	r14, r19
    29aa:	02 2f       	mov	r16, r18
    29ac:	24 2f       	mov	r18, r20
    29ae:	ae 01       	movw	r20, r28
    29b0:	0e 94 2b 17 	call	0x2e56	; 0x2e56 <dtoa_prf>
    29b4:	ce 01       	movw	r24, r28
    29b6:	df 91       	pop	r29
    29b8:	cf 91       	pop	r28
    29ba:	1f 91       	pop	r17
    29bc:	0f 91       	pop	r16
    29be:	ef 90       	pop	r14
    29c0:	08 95       	ret

000029c2 <atof>:
    29c2:	66 27       	eor	r22, r22
    29c4:	77 27       	eor	r23, r23
    29c6:	0c 94 85 18 	jmp	0x310a	; 0x310a <strtod>

000029ca <atoi>:
    29ca:	fc 01       	movw	r30, r24
    29cc:	88 27       	eor	r24, r24
    29ce:	99 27       	eor	r25, r25
    29d0:	e8 94       	clt
    29d2:	21 91       	ld	r18, Z+
    29d4:	20 32       	cpi	r18, 0x20	; 32
    29d6:	e9 f3       	breq	.-6      	; 0x29d2 <atoi+0x8>
    29d8:	29 30       	cpi	r18, 0x09	; 9
    29da:	10 f0       	brcs	.+4      	; 0x29e0 <atoi+0x16>
    29dc:	2e 30       	cpi	r18, 0x0E	; 14
    29de:	c8 f3       	brcs	.-14     	; 0x29d2 <atoi+0x8>
    29e0:	2b 32       	cpi	r18, 0x2B	; 43
    29e2:	41 f0       	breq	.+16     	; 0x29f4 <atoi+0x2a>
    29e4:	2d 32       	cpi	r18, 0x2D	; 45
    29e6:	39 f4       	brne	.+14     	; 0x29f6 <atoi+0x2c>
    29e8:	68 94       	set
    29ea:	04 c0       	rjmp	.+8      	; 0x29f4 <atoi+0x2a>
    29ec:	0e 94 19 15 	call	0x2a32	; 0x2a32 <__mulhi_const_10>
    29f0:	82 0f       	add	r24, r18
    29f2:	91 1d       	adc	r25, r1
    29f4:	21 91       	ld	r18, Z+
    29f6:	20 53       	subi	r18, 0x30	; 48
    29f8:	2a 30       	cpi	r18, 0x0A	; 10
    29fa:	c0 f3       	brcs	.-16     	; 0x29ec <atoi+0x22>
    29fc:	1e f4       	brtc	.+6      	; 0x2a04 <atoi+0x3a>
    29fe:	90 95       	com	r25
    2a00:	81 95       	neg	r24
    2a02:	9f 4f       	sbci	r25, 0xFF	; 255
    2a04:	08 95       	ret

00002a06 <itoa>:
    2a06:	45 32       	cpi	r20, 0x25	; 37
    2a08:	51 05       	cpc	r21, r1
    2a0a:	20 f4       	brcc	.+8      	; 0x2a14 <itoa+0xe>
    2a0c:	42 30       	cpi	r20, 0x02	; 2
    2a0e:	10 f0       	brcs	.+4      	; 0x2a14 <itoa+0xe>
    2a10:	0c 94 0e 15 	jmp	0x2a1c	; 0x2a1c <__itoa_ncheck>
    2a14:	fb 01       	movw	r30, r22
    2a16:	10 82       	st	Z, r1
    2a18:	cb 01       	movw	r24, r22
    2a1a:	08 95       	ret

00002a1c <__itoa_ncheck>:
    2a1c:	bb 27       	eor	r27, r27
    2a1e:	4a 30       	cpi	r20, 0x0A	; 10
    2a20:	31 f4       	brne	.+12     	; 0x2a2e <__itoa_ncheck+0x12>
    2a22:	99 23       	and	r25, r25
    2a24:	22 f4       	brpl	.+8      	; 0x2a2e <__itoa_ncheck+0x12>
    2a26:	bd e2       	ldi	r27, 0x2D	; 45
    2a28:	90 95       	com	r25
    2a2a:	81 95       	neg	r24
    2a2c:	9f 4f       	sbci	r25, 0xFF	; 255
    2a2e:	0c 94 22 15 	jmp	0x2a44	; 0x2a44 <__utoa_common>

00002a32 <__mulhi_const_10>:
    2a32:	7a e0       	ldi	r23, 0x0A	; 10
    2a34:	97 9f       	mul	r25, r23
    2a36:	90 2d       	mov	r25, r0
    2a38:	87 9f       	mul	r24, r23
    2a3a:	80 2d       	mov	r24, r0
    2a3c:	91 0d       	add	r25, r1
    2a3e:	11 24       	eor	r1, r1
    2a40:	08 95       	ret

00002a42 <__utoa_ncheck>:
    2a42:	bb 27       	eor	r27, r27

00002a44 <__utoa_common>:
    2a44:	fb 01       	movw	r30, r22
    2a46:	55 27       	eor	r21, r21
    2a48:	aa 27       	eor	r26, r26
    2a4a:	88 0f       	add	r24, r24
    2a4c:	99 1f       	adc	r25, r25
    2a4e:	aa 1f       	adc	r26, r26
    2a50:	a4 17       	cp	r26, r20
    2a52:	10 f0       	brcs	.+4      	; 0x2a58 <__utoa_common+0x14>
    2a54:	a4 1b       	sub	r26, r20
    2a56:	83 95       	inc	r24
    2a58:	50 51       	subi	r21, 0x10	; 16
    2a5a:	b9 f7       	brne	.-18     	; 0x2a4a <__utoa_common+0x6>
    2a5c:	a0 5d       	subi	r26, 0xD0	; 208
    2a5e:	aa 33       	cpi	r26, 0x3A	; 58
    2a60:	08 f0       	brcs	.+2      	; 0x2a64 <__utoa_common+0x20>
    2a62:	a9 5d       	subi	r26, 0xD9	; 217
    2a64:	a1 93       	st	Z+, r26
    2a66:	00 97       	sbiw	r24, 0x00	; 0
    2a68:	79 f7       	brne	.-34     	; 0x2a48 <__utoa_common+0x4>
    2a6a:	b1 11       	cpse	r27, r1
    2a6c:	b1 93       	st	Z+, r27
    2a6e:	11 92       	st	Z+, r1
    2a70:	cb 01       	movw	r24, r22
    2a72:	0c 94 e2 1a 	jmp	0x35c4	; 0x35c4 <strrev>

00002a76 <vfprintf_P>:
    2a76:	cf 93       	push	r28
    2a78:	df 93       	push	r29
    2a7a:	ec 01       	movw	r28, r24
    2a7c:	8b 81       	ldd	r24, Y+3	; 0x03
    2a7e:	88 60       	ori	r24, 0x08	; 8
    2a80:	8b 83       	std	Y+3, r24	; 0x03
    2a82:	ce 01       	movw	r24, r28
    2a84:	0e 94 4a 15 	call	0x2a94	; 0x2a94 <vfprintf>
    2a88:	2b 81       	ldd	r18, Y+3	; 0x03
    2a8a:	27 7f       	andi	r18, 0xF7	; 247
    2a8c:	2b 83       	std	Y+3, r18	; 0x03
    2a8e:	df 91       	pop	r29
    2a90:	cf 91       	pop	r28
    2a92:	08 95       	ret

00002a94 <vfprintf>:
    2a94:	ab e0       	ldi	r26, 0x0B	; 11
    2a96:	b0 e0       	ldi	r27, 0x00	; 0
    2a98:	e0 e5       	ldi	r30, 0x50	; 80
    2a9a:	f5 e1       	ldi	r31, 0x15	; 21
    2a9c:	0c 94 8f 1b 	jmp	0x371e	; 0x371e <__prologue_saves__>
    2aa0:	6c 01       	movw	r12, r24
    2aa2:	7b 01       	movw	r14, r22
    2aa4:	8a 01       	movw	r16, r20
    2aa6:	fc 01       	movw	r30, r24
    2aa8:	17 82       	std	Z+7, r1	; 0x07
    2aaa:	16 82       	std	Z+6, r1	; 0x06
    2aac:	83 81       	ldd	r24, Z+3	; 0x03
    2aae:	81 ff       	sbrs	r24, 1
    2ab0:	cc c1       	rjmp	.+920    	; 0x2e4a <vfprintf+0x3b6>
    2ab2:	ce 01       	movw	r24, r28
    2ab4:	01 96       	adiw	r24, 0x01	; 1
    2ab6:	3c 01       	movw	r6, r24
    2ab8:	f6 01       	movw	r30, r12
    2aba:	93 81       	ldd	r25, Z+3	; 0x03
    2abc:	f7 01       	movw	r30, r14
    2abe:	93 fd       	sbrc	r25, 3
    2ac0:	85 91       	lpm	r24, Z+
    2ac2:	93 ff       	sbrs	r25, 3
    2ac4:	81 91       	ld	r24, Z+
    2ac6:	7f 01       	movw	r14, r30
    2ac8:	88 23       	and	r24, r24
    2aca:	09 f4       	brne	.+2      	; 0x2ace <vfprintf+0x3a>
    2acc:	ba c1       	rjmp	.+884    	; 0x2e42 <vfprintf+0x3ae>
    2ace:	85 32       	cpi	r24, 0x25	; 37
    2ad0:	39 f4       	brne	.+14     	; 0x2ae0 <vfprintf+0x4c>
    2ad2:	93 fd       	sbrc	r25, 3
    2ad4:	85 91       	lpm	r24, Z+
    2ad6:	93 ff       	sbrs	r25, 3
    2ad8:	81 91       	ld	r24, Z+
    2ada:	7f 01       	movw	r14, r30
    2adc:	85 32       	cpi	r24, 0x25	; 37
    2ade:	29 f4       	brne	.+10     	; 0x2aea <vfprintf+0x56>
    2ae0:	b6 01       	movw	r22, r12
    2ae2:	90 e0       	ldi	r25, 0x00	; 0
    2ae4:	0e 94 f2 1a 	call	0x35e4	; 0x35e4 <fputc>
    2ae8:	e7 cf       	rjmp	.-50     	; 0x2ab8 <vfprintf+0x24>
    2aea:	91 2c       	mov	r9, r1
    2aec:	21 2c       	mov	r2, r1
    2aee:	31 2c       	mov	r3, r1
    2af0:	ff e1       	ldi	r31, 0x1F	; 31
    2af2:	f3 15       	cp	r31, r3
    2af4:	d8 f0       	brcs	.+54     	; 0x2b2c <vfprintf+0x98>
    2af6:	8b 32       	cpi	r24, 0x2B	; 43
    2af8:	79 f0       	breq	.+30     	; 0x2b18 <vfprintf+0x84>
    2afa:	38 f4       	brcc	.+14     	; 0x2b0a <vfprintf+0x76>
    2afc:	80 32       	cpi	r24, 0x20	; 32
    2afe:	79 f0       	breq	.+30     	; 0x2b1e <vfprintf+0x8a>
    2b00:	83 32       	cpi	r24, 0x23	; 35
    2b02:	a1 f4       	brne	.+40     	; 0x2b2c <vfprintf+0x98>
    2b04:	23 2d       	mov	r18, r3
    2b06:	20 61       	ori	r18, 0x10	; 16
    2b08:	1d c0       	rjmp	.+58     	; 0x2b44 <vfprintf+0xb0>
    2b0a:	8d 32       	cpi	r24, 0x2D	; 45
    2b0c:	61 f0       	breq	.+24     	; 0x2b26 <vfprintf+0x92>
    2b0e:	80 33       	cpi	r24, 0x30	; 48
    2b10:	69 f4       	brne	.+26     	; 0x2b2c <vfprintf+0x98>
    2b12:	23 2d       	mov	r18, r3
    2b14:	21 60       	ori	r18, 0x01	; 1
    2b16:	16 c0       	rjmp	.+44     	; 0x2b44 <vfprintf+0xb0>
    2b18:	83 2d       	mov	r24, r3
    2b1a:	82 60       	ori	r24, 0x02	; 2
    2b1c:	38 2e       	mov	r3, r24
    2b1e:	e3 2d       	mov	r30, r3
    2b20:	e4 60       	ori	r30, 0x04	; 4
    2b22:	3e 2e       	mov	r3, r30
    2b24:	2a c0       	rjmp	.+84     	; 0x2b7a <vfprintf+0xe6>
    2b26:	f3 2d       	mov	r31, r3
    2b28:	f8 60       	ori	r31, 0x08	; 8
    2b2a:	1d c0       	rjmp	.+58     	; 0x2b66 <vfprintf+0xd2>
    2b2c:	37 fc       	sbrc	r3, 7
    2b2e:	2d c0       	rjmp	.+90     	; 0x2b8a <vfprintf+0xf6>
    2b30:	20 ed       	ldi	r18, 0xD0	; 208
    2b32:	28 0f       	add	r18, r24
    2b34:	2a 30       	cpi	r18, 0x0A	; 10
    2b36:	40 f0       	brcs	.+16     	; 0x2b48 <vfprintf+0xb4>
    2b38:	8e 32       	cpi	r24, 0x2E	; 46
    2b3a:	b9 f4       	brne	.+46     	; 0x2b6a <vfprintf+0xd6>
    2b3c:	36 fc       	sbrc	r3, 6
    2b3e:	81 c1       	rjmp	.+770    	; 0x2e42 <vfprintf+0x3ae>
    2b40:	23 2d       	mov	r18, r3
    2b42:	20 64       	ori	r18, 0x40	; 64
    2b44:	32 2e       	mov	r3, r18
    2b46:	19 c0       	rjmp	.+50     	; 0x2b7a <vfprintf+0xe6>
    2b48:	36 fe       	sbrs	r3, 6
    2b4a:	06 c0       	rjmp	.+12     	; 0x2b58 <vfprintf+0xc4>
    2b4c:	8a e0       	ldi	r24, 0x0A	; 10
    2b4e:	98 9e       	mul	r9, r24
    2b50:	20 0d       	add	r18, r0
    2b52:	11 24       	eor	r1, r1
    2b54:	92 2e       	mov	r9, r18
    2b56:	11 c0       	rjmp	.+34     	; 0x2b7a <vfprintf+0xe6>
    2b58:	ea e0       	ldi	r30, 0x0A	; 10
    2b5a:	2e 9e       	mul	r2, r30
    2b5c:	20 0d       	add	r18, r0
    2b5e:	11 24       	eor	r1, r1
    2b60:	22 2e       	mov	r2, r18
    2b62:	f3 2d       	mov	r31, r3
    2b64:	f0 62       	ori	r31, 0x20	; 32
    2b66:	3f 2e       	mov	r3, r31
    2b68:	08 c0       	rjmp	.+16     	; 0x2b7a <vfprintf+0xe6>
    2b6a:	8c 36       	cpi	r24, 0x6C	; 108
    2b6c:	21 f4       	brne	.+8      	; 0x2b76 <vfprintf+0xe2>
    2b6e:	83 2d       	mov	r24, r3
    2b70:	80 68       	ori	r24, 0x80	; 128
    2b72:	38 2e       	mov	r3, r24
    2b74:	02 c0       	rjmp	.+4      	; 0x2b7a <vfprintf+0xe6>
    2b76:	88 36       	cpi	r24, 0x68	; 104
    2b78:	41 f4       	brne	.+16     	; 0x2b8a <vfprintf+0xf6>
    2b7a:	f7 01       	movw	r30, r14
    2b7c:	93 fd       	sbrc	r25, 3
    2b7e:	85 91       	lpm	r24, Z+
    2b80:	93 ff       	sbrs	r25, 3
    2b82:	81 91       	ld	r24, Z+
    2b84:	7f 01       	movw	r14, r30
    2b86:	81 11       	cpse	r24, r1
    2b88:	b3 cf       	rjmp	.-154    	; 0x2af0 <vfprintf+0x5c>
    2b8a:	98 2f       	mov	r25, r24
    2b8c:	9f 7d       	andi	r25, 0xDF	; 223
    2b8e:	95 54       	subi	r25, 0x45	; 69
    2b90:	93 30       	cpi	r25, 0x03	; 3
    2b92:	28 f4       	brcc	.+10     	; 0x2b9e <vfprintf+0x10a>
    2b94:	0c 5f       	subi	r16, 0xFC	; 252
    2b96:	1f 4f       	sbci	r17, 0xFF	; 255
    2b98:	9f e3       	ldi	r25, 0x3F	; 63
    2b9a:	99 83       	std	Y+1, r25	; 0x01
    2b9c:	0d c0       	rjmp	.+26     	; 0x2bb8 <vfprintf+0x124>
    2b9e:	83 36       	cpi	r24, 0x63	; 99
    2ba0:	31 f0       	breq	.+12     	; 0x2bae <vfprintf+0x11a>
    2ba2:	83 37       	cpi	r24, 0x73	; 115
    2ba4:	71 f0       	breq	.+28     	; 0x2bc2 <vfprintf+0x12e>
    2ba6:	83 35       	cpi	r24, 0x53	; 83
    2ba8:	09 f0       	breq	.+2      	; 0x2bac <vfprintf+0x118>
    2baa:	59 c0       	rjmp	.+178    	; 0x2c5e <vfprintf+0x1ca>
    2bac:	21 c0       	rjmp	.+66     	; 0x2bf0 <vfprintf+0x15c>
    2bae:	f8 01       	movw	r30, r16
    2bb0:	80 81       	ld	r24, Z
    2bb2:	89 83       	std	Y+1, r24	; 0x01
    2bb4:	0e 5f       	subi	r16, 0xFE	; 254
    2bb6:	1f 4f       	sbci	r17, 0xFF	; 255
    2bb8:	88 24       	eor	r8, r8
    2bba:	83 94       	inc	r8
    2bbc:	91 2c       	mov	r9, r1
    2bbe:	53 01       	movw	r10, r6
    2bc0:	13 c0       	rjmp	.+38     	; 0x2be8 <vfprintf+0x154>
    2bc2:	28 01       	movw	r4, r16
    2bc4:	f2 e0       	ldi	r31, 0x02	; 2
    2bc6:	4f 0e       	add	r4, r31
    2bc8:	51 1c       	adc	r5, r1
    2bca:	f8 01       	movw	r30, r16
    2bcc:	a0 80       	ld	r10, Z
    2bce:	b1 80       	ldd	r11, Z+1	; 0x01
    2bd0:	36 fe       	sbrs	r3, 6
    2bd2:	03 c0       	rjmp	.+6      	; 0x2bda <vfprintf+0x146>
    2bd4:	69 2d       	mov	r22, r9
    2bd6:	70 e0       	ldi	r23, 0x00	; 0
    2bd8:	02 c0       	rjmp	.+4      	; 0x2bde <vfprintf+0x14a>
    2bda:	6f ef       	ldi	r22, 0xFF	; 255
    2bdc:	7f ef       	ldi	r23, 0xFF	; 255
    2bde:	c5 01       	movw	r24, r10
    2be0:	0e 94 d7 1a 	call	0x35ae	; 0x35ae <strnlen>
    2be4:	4c 01       	movw	r8, r24
    2be6:	82 01       	movw	r16, r4
    2be8:	f3 2d       	mov	r31, r3
    2bea:	ff 77       	andi	r31, 0x7F	; 127
    2bec:	3f 2e       	mov	r3, r31
    2bee:	16 c0       	rjmp	.+44     	; 0x2c1c <vfprintf+0x188>
    2bf0:	28 01       	movw	r4, r16
    2bf2:	22 e0       	ldi	r18, 0x02	; 2
    2bf4:	42 0e       	add	r4, r18
    2bf6:	51 1c       	adc	r5, r1
    2bf8:	f8 01       	movw	r30, r16
    2bfa:	a0 80       	ld	r10, Z
    2bfc:	b1 80       	ldd	r11, Z+1	; 0x01
    2bfe:	36 fe       	sbrs	r3, 6
    2c00:	03 c0       	rjmp	.+6      	; 0x2c08 <vfprintf+0x174>
    2c02:	69 2d       	mov	r22, r9
    2c04:	70 e0       	ldi	r23, 0x00	; 0
    2c06:	02 c0       	rjmp	.+4      	; 0x2c0c <vfprintf+0x178>
    2c08:	6f ef       	ldi	r22, 0xFF	; 255
    2c0a:	7f ef       	ldi	r23, 0xFF	; 255
    2c0c:	c5 01       	movw	r24, r10
    2c0e:	0e 94 cc 1a 	call	0x3598	; 0x3598 <strnlen_P>
    2c12:	4c 01       	movw	r8, r24
    2c14:	f3 2d       	mov	r31, r3
    2c16:	f0 68       	ori	r31, 0x80	; 128
    2c18:	3f 2e       	mov	r3, r31
    2c1a:	82 01       	movw	r16, r4
    2c1c:	33 fc       	sbrc	r3, 3
    2c1e:	1b c0       	rjmp	.+54     	; 0x2c56 <vfprintf+0x1c2>
    2c20:	82 2d       	mov	r24, r2
    2c22:	90 e0       	ldi	r25, 0x00	; 0
    2c24:	88 16       	cp	r8, r24
    2c26:	99 06       	cpc	r9, r25
    2c28:	b0 f4       	brcc	.+44     	; 0x2c56 <vfprintf+0x1c2>
    2c2a:	b6 01       	movw	r22, r12
    2c2c:	80 e2       	ldi	r24, 0x20	; 32
    2c2e:	90 e0       	ldi	r25, 0x00	; 0
    2c30:	0e 94 f2 1a 	call	0x35e4	; 0x35e4 <fputc>
    2c34:	2a 94       	dec	r2
    2c36:	f4 cf       	rjmp	.-24     	; 0x2c20 <vfprintf+0x18c>
    2c38:	f5 01       	movw	r30, r10
    2c3a:	37 fc       	sbrc	r3, 7
    2c3c:	85 91       	lpm	r24, Z+
    2c3e:	37 fe       	sbrs	r3, 7
    2c40:	81 91       	ld	r24, Z+
    2c42:	5f 01       	movw	r10, r30
    2c44:	b6 01       	movw	r22, r12
    2c46:	90 e0       	ldi	r25, 0x00	; 0
    2c48:	0e 94 f2 1a 	call	0x35e4	; 0x35e4 <fputc>
    2c4c:	21 10       	cpse	r2, r1
    2c4e:	2a 94       	dec	r2
    2c50:	21 e0       	ldi	r18, 0x01	; 1
    2c52:	82 1a       	sub	r8, r18
    2c54:	91 08       	sbc	r9, r1
    2c56:	81 14       	cp	r8, r1
    2c58:	91 04       	cpc	r9, r1
    2c5a:	71 f7       	brne	.-36     	; 0x2c38 <vfprintf+0x1a4>
    2c5c:	e8 c0       	rjmp	.+464    	; 0x2e2e <vfprintf+0x39a>
    2c5e:	84 36       	cpi	r24, 0x64	; 100
    2c60:	11 f0       	breq	.+4      	; 0x2c66 <vfprintf+0x1d2>
    2c62:	89 36       	cpi	r24, 0x69	; 105
    2c64:	41 f5       	brne	.+80     	; 0x2cb6 <vfprintf+0x222>
    2c66:	f8 01       	movw	r30, r16
    2c68:	37 fe       	sbrs	r3, 7
    2c6a:	07 c0       	rjmp	.+14     	; 0x2c7a <vfprintf+0x1e6>
    2c6c:	60 81       	ld	r22, Z
    2c6e:	71 81       	ldd	r23, Z+1	; 0x01
    2c70:	82 81       	ldd	r24, Z+2	; 0x02
    2c72:	93 81       	ldd	r25, Z+3	; 0x03
    2c74:	0c 5f       	subi	r16, 0xFC	; 252
    2c76:	1f 4f       	sbci	r17, 0xFF	; 255
    2c78:	08 c0       	rjmp	.+16     	; 0x2c8a <vfprintf+0x1f6>
    2c7a:	60 81       	ld	r22, Z
    2c7c:	71 81       	ldd	r23, Z+1	; 0x01
    2c7e:	07 2e       	mov	r0, r23
    2c80:	00 0c       	add	r0, r0
    2c82:	88 0b       	sbc	r24, r24
    2c84:	99 0b       	sbc	r25, r25
    2c86:	0e 5f       	subi	r16, 0xFE	; 254
    2c88:	1f 4f       	sbci	r17, 0xFF	; 255
    2c8a:	f3 2d       	mov	r31, r3
    2c8c:	ff 76       	andi	r31, 0x6F	; 111
    2c8e:	3f 2e       	mov	r3, r31
    2c90:	97 ff       	sbrs	r25, 7
    2c92:	09 c0       	rjmp	.+18     	; 0x2ca6 <vfprintf+0x212>
    2c94:	90 95       	com	r25
    2c96:	80 95       	com	r24
    2c98:	70 95       	com	r23
    2c9a:	61 95       	neg	r22
    2c9c:	7f 4f       	sbci	r23, 0xFF	; 255
    2c9e:	8f 4f       	sbci	r24, 0xFF	; 255
    2ca0:	9f 4f       	sbci	r25, 0xFF	; 255
    2ca2:	f0 68       	ori	r31, 0x80	; 128
    2ca4:	3f 2e       	mov	r3, r31
    2ca6:	2a e0       	ldi	r18, 0x0A	; 10
    2ca8:	30 e0       	ldi	r19, 0x00	; 0
    2caa:	a3 01       	movw	r20, r6
    2cac:	0e 94 2e 1b 	call	0x365c	; 0x365c <__ultoa_invert>
    2cb0:	88 2e       	mov	r8, r24
    2cb2:	86 18       	sub	r8, r6
    2cb4:	45 c0       	rjmp	.+138    	; 0x2d40 <vfprintf+0x2ac>
    2cb6:	85 37       	cpi	r24, 0x75	; 117
    2cb8:	31 f4       	brne	.+12     	; 0x2cc6 <vfprintf+0x232>
    2cba:	23 2d       	mov	r18, r3
    2cbc:	2f 7e       	andi	r18, 0xEF	; 239
    2cbe:	b2 2e       	mov	r11, r18
    2cc0:	2a e0       	ldi	r18, 0x0A	; 10
    2cc2:	30 e0       	ldi	r19, 0x00	; 0
    2cc4:	25 c0       	rjmp	.+74     	; 0x2d10 <vfprintf+0x27c>
    2cc6:	93 2d       	mov	r25, r3
    2cc8:	99 7f       	andi	r25, 0xF9	; 249
    2cca:	b9 2e       	mov	r11, r25
    2ccc:	8f 36       	cpi	r24, 0x6F	; 111
    2cce:	c1 f0       	breq	.+48     	; 0x2d00 <vfprintf+0x26c>
    2cd0:	18 f4       	brcc	.+6      	; 0x2cd8 <vfprintf+0x244>
    2cd2:	88 35       	cpi	r24, 0x58	; 88
    2cd4:	79 f0       	breq	.+30     	; 0x2cf4 <vfprintf+0x260>
    2cd6:	b5 c0       	rjmp	.+362    	; 0x2e42 <vfprintf+0x3ae>
    2cd8:	80 37       	cpi	r24, 0x70	; 112
    2cda:	19 f0       	breq	.+6      	; 0x2ce2 <vfprintf+0x24e>
    2cdc:	88 37       	cpi	r24, 0x78	; 120
    2cde:	21 f0       	breq	.+8      	; 0x2ce8 <vfprintf+0x254>
    2ce0:	b0 c0       	rjmp	.+352    	; 0x2e42 <vfprintf+0x3ae>
    2ce2:	e9 2f       	mov	r30, r25
    2ce4:	e0 61       	ori	r30, 0x10	; 16
    2ce6:	be 2e       	mov	r11, r30
    2ce8:	b4 fe       	sbrs	r11, 4
    2cea:	0d c0       	rjmp	.+26     	; 0x2d06 <vfprintf+0x272>
    2cec:	fb 2d       	mov	r31, r11
    2cee:	f4 60       	ori	r31, 0x04	; 4
    2cf0:	bf 2e       	mov	r11, r31
    2cf2:	09 c0       	rjmp	.+18     	; 0x2d06 <vfprintf+0x272>
    2cf4:	34 fe       	sbrs	r3, 4
    2cf6:	0a c0       	rjmp	.+20     	; 0x2d0c <vfprintf+0x278>
    2cf8:	29 2f       	mov	r18, r25
    2cfa:	26 60       	ori	r18, 0x06	; 6
    2cfc:	b2 2e       	mov	r11, r18
    2cfe:	06 c0       	rjmp	.+12     	; 0x2d0c <vfprintf+0x278>
    2d00:	28 e0       	ldi	r18, 0x08	; 8
    2d02:	30 e0       	ldi	r19, 0x00	; 0
    2d04:	05 c0       	rjmp	.+10     	; 0x2d10 <vfprintf+0x27c>
    2d06:	20 e1       	ldi	r18, 0x10	; 16
    2d08:	30 e0       	ldi	r19, 0x00	; 0
    2d0a:	02 c0       	rjmp	.+4      	; 0x2d10 <vfprintf+0x27c>
    2d0c:	20 e1       	ldi	r18, 0x10	; 16
    2d0e:	32 e0       	ldi	r19, 0x02	; 2
    2d10:	f8 01       	movw	r30, r16
    2d12:	b7 fe       	sbrs	r11, 7
    2d14:	07 c0       	rjmp	.+14     	; 0x2d24 <vfprintf+0x290>
    2d16:	60 81       	ld	r22, Z
    2d18:	71 81       	ldd	r23, Z+1	; 0x01
    2d1a:	82 81       	ldd	r24, Z+2	; 0x02
    2d1c:	93 81       	ldd	r25, Z+3	; 0x03
    2d1e:	0c 5f       	subi	r16, 0xFC	; 252
    2d20:	1f 4f       	sbci	r17, 0xFF	; 255
    2d22:	06 c0       	rjmp	.+12     	; 0x2d30 <vfprintf+0x29c>
    2d24:	60 81       	ld	r22, Z
    2d26:	71 81       	ldd	r23, Z+1	; 0x01
    2d28:	80 e0       	ldi	r24, 0x00	; 0
    2d2a:	90 e0       	ldi	r25, 0x00	; 0
    2d2c:	0e 5f       	subi	r16, 0xFE	; 254
    2d2e:	1f 4f       	sbci	r17, 0xFF	; 255
    2d30:	a3 01       	movw	r20, r6
    2d32:	0e 94 2e 1b 	call	0x365c	; 0x365c <__ultoa_invert>
    2d36:	88 2e       	mov	r8, r24
    2d38:	86 18       	sub	r8, r6
    2d3a:	fb 2d       	mov	r31, r11
    2d3c:	ff 77       	andi	r31, 0x7F	; 127
    2d3e:	3f 2e       	mov	r3, r31
    2d40:	36 fe       	sbrs	r3, 6
    2d42:	0d c0       	rjmp	.+26     	; 0x2d5e <vfprintf+0x2ca>
    2d44:	23 2d       	mov	r18, r3
    2d46:	2e 7f       	andi	r18, 0xFE	; 254
    2d48:	a2 2e       	mov	r10, r18
    2d4a:	89 14       	cp	r8, r9
    2d4c:	58 f4       	brcc	.+22     	; 0x2d64 <vfprintf+0x2d0>
    2d4e:	34 fe       	sbrs	r3, 4
    2d50:	0b c0       	rjmp	.+22     	; 0x2d68 <vfprintf+0x2d4>
    2d52:	32 fc       	sbrc	r3, 2
    2d54:	09 c0       	rjmp	.+18     	; 0x2d68 <vfprintf+0x2d4>
    2d56:	83 2d       	mov	r24, r3
    2d58:	8e 7e       	andi	r24, 0xEE	; 238
    2d5a:	a8 2e       	mov	r10, r24
    2d5c:	05 c0       	rjmp	.+10     	; 0x2d68 <vfprintf+0x2d4>
    2d5e:	b8 2c       	mov	r11, r8
    2d60:	a3 2c       	mov	r10, r3
    2d62:	03 c0       	rjmp	.+6      	; 0x2d6a <vfprintf+0x2d6>
    2d64:	b8 2c       	mov	r11, r8
    2d66:	01 c0       	rjmp	.+2      	; 0x2d6a <vfprintf+0x2d6>
    2d68:	b9 2c       	mov	r11, r9
    2d6a:	a4 fe       	sbrs	r10, 4
    2d6c:	0f c0       	rjmp	.+30     	; 0x2d8c <vfprintf+0x2f8>
    2d6e:	fe 01       	movw	r30, r28
    2d70:	e8 0d       	add	r30, r8
    2d72:	f1 1d       	adc	r31, r1
    2d74:	80 81       	ld	r24, Z
    2d76:	80 33       	cpi	r24, 0x30	; 48
    2d78:	21 f4       	brne	.+8      	; 0x2d82 <vfprintf+0x2ee>
    2d7a:	9a 2d       	mov	r25, r10
    2d7c:	99 7e       	andi	r25, 0xE9	; 233
    2d7e:	a9 2e       	mov	r10, r25
    2d80:	09 c0       	rjmp	.+18     	; 0x2d94 <vfprintf+0x300>
    2d82:	a2 fe       	sbrs	r10, 2
    2d84:	06 c0       	rjmp	.+12     	; 0x2d92 <vfprintf+0x2fe>
    2d86:	b3 94       	inc	r11
    2d88:	b3 94       	inc	r11
    2d8a:	04 c0       	rjmp	.+8      	; 0x2d94 <vfprintf+0x300>
    2d8c:	8a 2d       	mov	r24, r10
    2d8e:	86 78       	andi	r24, 0x86	; 134
    2d90:	09 f0       	breq	.+2      	; 0x2d94 <vfprintf+0x300>
    2d92:	b3 94       	inc	r11
    2d94:	a3 fc       	sbrc	r10, 3
    2d96:	11 c0       	rjmp	.+34     	; 0x2dba <vfprintf+0x326>
    2d98:	a0 fe       	sbrs	r10, 0
    2d9a:	06 c0       	rjmp	.+12     	; 0x2da8 <vfprintf+0x314>
    2d9c:	b2 14       	cp	r11, r2
    2d9e:	88 f4       	brcc	.+34     	; 0x2dc2 <vfprintf+0x32e>
    2da0:	28 0c       	add	r2, r8
    2da2:	92 2c       	mov	r9, r2
    2da4:	9b 18       	sub	r9, r11
    2da6:	0e c0       	rjmp	.+28     	; 0x2dc4 <vfprintf+0x330>
    2da8:	b2 14       	cp	r11, r2
    2daa:	60 f4       	brcc	.+24     	; 0x2dc4 <vfprintf+0x330>
    2dac:	b6 01       	movw	r22, r12
    2dae:	80 e2       	ldi	r24, 0x20	; 32
    2db0:	90 e0       	ldi	r25, 0x00	; 0
    2db2:	0e 94 f2 1a 	call	0x35e4	; 0x35e4 <fputc>
    2db6:	b3 94       	inc	r11
    2db8:	f7 cf       	rjmp	.-18     	; 0x2da8 <vfprintf+0x314>
    2dba:	b2 14       	cp	r11, r2
    2dbc:	18 f4       	brcc	.+6      	; 0x2dc4 <vfprintf+0x330>
    2dbe:	2b 18       	sub	r2, r11
    2dc0:	02 c0       	rjmp	.+4      	; 0x2dc6 <vfprintf+0x332>
    2dc2:	98 2c       	mov	r9, r8
    2dc4:	21 2c       	mov	r2, r1
    2dc6:	a4 fe       	sbrs	r10, 4
    2dc8:	10 c0       	rjmp	.+32     	; 0x2dea <vfprintf+0x356>
    2dca:	b6 01       	movw	r22, r12
    2dcc:	80 e3       	ldi	r24, 0x30	; 48
    2dce:	90 e0       	ldi	r25, 0x00	; 0
    2dd0:	0e 94 f2 1a 	call	0x35e4	; 0x35e4 <fputc>
    2dd4:	a2 fe       	sbrs	r10, 2
    2dd6:	17 c0       	rjmp	.+46     	; 0x2e06 <vfprintf+0x372>
    2dd8:	a1 fc       	sbrc	r10, 1
    2dda:	03 c0       	rjmp	.+6      	; 0x2de2 <vfprintf+0x34e>
    2ddc:	88 e7       	ldi	r24, 0x78	; 120
    2dde:	90 e0       	ldi	r25, 0x00	; 0
    2de0:	02 c0       	rjmp	.+4      	; 0x2de6 <vfprintf+0x352>
    2de2:	88 e5       	ldi	r24, 0x58	; 88
    2de4:	90 e0       	ldi	r25, 0x00	; 0
    2de6:	b6 01       	movw	r22, r12
    2de8:	0c c0       	rjmp	.+24     	; 0x2e02 <vfprintf+0x36e>
    2dea:	8a 2d       	mov	r24, r10
    2dec:	86 78       	andi	r24, 0x86	; 134
    2dee:	59 f0       	breq	.+22     	; 0x2e06 <vfprintf+0x372>
    2df0:	a1 fe       	sbrs	r10, 1
    2df2:	02 c0       	rjmp	.+4      	; 0x2df8 <vfprintf+0x364>
    2df4:	8b e2       	ldi	r24, 0x2B	; 43
    2df6:	01 c0       	rjmp	.+2      	; 0x2dfa <vfprintf+0x366>
    2df8:	80 e2       	ldi	r24, 0x20	; 32
    2dfa:	a7 fc       	sbrc	r10, 7
    2dfc:	8d e2       	ldi	r24, 0x2D	; 45
    2dfe:	b6 01       	movw	r22, r12
    2e00:	90 e0       	ldi	r25, 0x00	; 0
    2e02:	0e 94 f2 1a 	call	0x35e4	; 0x35e4 <fputc>
    2e06:	89 14       	cp	r8, r9
    2e08:	38 f4       	brcc	.+14     	; 0x2e18 <vfprintf+0x384>
    2e0a:	b6 01       	movw	r22, r12
    2e0c:	80 e3       	ldi	r24, 0x30	; 48
    2e0e:	90 e0       	ldi	r25, 0x00	; 0
    2e10:	0e 94 f2 1a 	call	0x35e4	; 0x35e4 <fputc>
    2e14:	9a 94       	dec	r9
    2e16:	f7 cf       	rjmp	.-18     	; 0x2e06 <vfprintf+0x372>
    2e18:	8a 94       	dec	r8
    2e1a:	f3 01       	movw	r30, r6
    2e1c:	e8 0d       	add	r30, r8
    2e1e:	f1 1d       	adc	r31, r1
    2e20:	80 81       	ld	r24, Z
    2e22:	b6 01       	movw	r22, r12
    2e24:	90 e0       	ldi	r25, 0x00	; 0
    2e26:	0e 94 f2 1a 	call	0x35e4	; 0x35e4 <fputc>
    2e2a:	81 10       	cpse	r8, r1
    2e2c:	f5 cf       	rjmp	.-22     	; 0x2e18 <vfprintf+0x384>
    2e2e:	22 20       	and	r2, r2
    2e30:	09 f4       	brne	.+2      	; 0x2e34 <vfprintf+0x3a0>
    2e32:	42 ce       	rjmp	.-892    	; 0x2ab8 <vfprintf+0x24>
    2e34:	b6 01       	movw	r22, r12
    2e36:	80 e2       	ldi	r24, 0x20	; 32
    2e38:	90 e0       	ldi	r25, 0x00	; 0
    2e3a:	0e 94 f2 1a 	call	0x35e4	; 0x35e4 <fputc>
    2e3e:	2a 94       	dec	r2
    2e40:	f6 cf       	rjmp	.-20     	; 0x2e2e <vfprintf+0x39a>
    2e42:	f6 01       	movw	r30, r12
    2e44:	86 81       	ldd	r24, Z+6	; 0x06
    2e46:	97 81       	ldd	r25, Z+7	; 0x07
    2e48:	02 c0       	rjmp	.+4      	; 0x2e4e <vfprintf+0x3ba>
    2e4a:	8f ef       	ldi	r24, 0xFF	; 255
    2e4c:	9f ef       	ldi	r25, 0xFF	; 255
    2e4e:	2b 96       	adiw	r28, 0x0b	; 11
    2e50:	e2 e1       	ldi	r30, 0x12	; 18
    2e52:	0c 94 ab 1b 	jmp	0x3756	; 0x3756 <__epilogue_restores__>

00002e56 <dtoa_prf>:
    2e56:	a9 e0       	ldi	r26, 0x09	; 9
    2e58:	b0 e0       	ldi	r27, 0x00	; 0
    2e5a:	e1 e3       	ldi	r30, 0x31	; 49
    2e5c:	f7 e1       	ldi	r31, 0x17	; 23
    2e5e:	0c 94 95 1b 	jmp	0x372a	; 0x372a <__prologue_saves__+0xc>
    2e62:	6a 01       	movw	r12, r20
    2e64:	12 2f       	mov	r17, r18
    2e66:	b0 2e       	mov	r11, r16
    2e68:	2b e3       	ldi	r18, 0x3B	; 59
    2e6a:	20 17       	cp	r18, r16
    2e6c:	20 f0       	brcs	.+8      	; 0x2e76 <dtoa_prf+0x20>
    2e6e:	ff 24       	eor	r15, r15
    2e70:	f3 94       	inc	r15
    2e72:	f0 0e       	add	r15, r16
    2e74:	02 c0       	rjmp	.+4      	; 0x2e7a <dtoa_prf+0x24>
    2e76:	2c e3       	ldi	r18, 0x3C	; 60
    2e78:	f2 2e       	mov	r15, r18
    2e7a:	0f 2d       	mov	r16, r15
    2e7c:	27 e0       	ldi	r18, 0x07	; 7
    2e7e:	ae 01       	movw	r20, r28
    2e80:	4f 5f       	subi	r20, 0xFF	; 255
    2e82:	5f 4f       	sbci	r21, 0xFF	; 255
    2e84:	0e 94 d3 19 	call	0x33a6	; 0x33a6 <__ftoa_engine>
    2e88:	bc 01       	movw	r22, r24
    2e8a:	49 81       	ldd	r20, Y+1	; 0x01
    2e8c:	84 2f       	mov	r24, r20
    2e8e:	89 70       	andi	r24, 0x09	; 9
    2e90:	81 30       	cpi	r24, 0x01	; 1
    2e92:	31 f0       	breq	.+12     	; 0x2ea0 <dtoa_prf+0x4a>
    2e94:	e1 fc       	sbrc	r14, 1
    2e96:	06 c0       	rjmp	.+12     	; 0x2ea4 <dtoa_prf+0x4e>
    2e98:	e0 fe       	sbrs	r14, 0
    2e9a:	06 c0       	rjmp	.+12     	; 0x2ea8 <dtoa_prf+0x52>
    2e9c:	90 e2       	ldi	r25, 0x20	; 32
    2e9e:	05 c0       	rjmp	.+10     	; 0x2eaa <dtoa_prf+0x54>
    2ea0:	9d e2       	ldi	r25, 0x2D	; 45
    2ea2:	03 c0       	rjmp	.+6      	; 0x2eaa <dtoa_prf+0x54>
    2ea4:	9b e2       	ldi	r25, 0x2B	; 43
    2ea6:	01 c0       	rjmp	.+2      	; 0x2eaa <dtoa_prf+0x54>
    2ea8:	90 e0       	ldi	r25, 0x00	; 0
    2eaa:	5e 2d       	mov	r21, r14
    2eac:	50 71       	andi	r21, 0x10	; 16
    2eae:	43 ff       	sbrs	r20, 3
    2eb0:	3c c0       	rjmp	.+120    	; 0x2f2a <dtoa_prf+0xd4>
    2eb2:	91 11       	cpse	r25, r1
    2eb4:	02 c0       	rjmp	.+4      	; 0x2eba <dtoa_prf+0x64>
    2eb6:	83 e0       	ldi	r24, 0x03	; 3
    2eb8:	01 c0       	rjmp	.+2      	; 0x2ebc <dtoa_prf+0x66>
    2eba:	84 e0       	ldi	r24, 0x04	; 4
    2ebc:	81 17       	cp	r24, r17
    2ebe:	18 f4       	brcc	.+6      	; 0x2ec6 <dtoa_prf+0x70>
    2ec0:	21 2f       	mov	r18, r17
    2ec2:	28 1b       	sub	r18, r24
    2ec4:	01 c0       	rjmp	.+2      	; 0x2ec8 <dtoa_prf+0x72>
    2ec6:	20 e0       	ldi	r18, 0x00	; 0
    2ec8:	51 11       	cpse	r21, r1
    2eca:	0b c0       	rjmp	.+22     	; 0x2ee2 <dtoa_prf+0x8c>
    2ecc:	f6 01       	movw	r30, r12
    2ece:	82 2f       	mov	r24, r18
    2ed0:	30 e2       	ldi	r19, 0x20	; 32
    2ed2:	88 23       	and	r24, r24
    2ed4:	19 f0       	breq	.+6      	; 0x2edc <dtoa_prf+0x86>
    2ed6:	31 93       	st	Z+, r19
    2ed8:	81 50       	subi	r24, 0x01	; 1
    2eda:	fb cf       	rjmp	.-10     	; 0x2ed2 <dtoa_prf+0x7c>
    2edc:	c2 0e       	add	r12, r18
    2ede:	d1 1c       	adc	r13, r1
    2ee0:	20 e0       	ldi	r18, 0x00	; 0
    2ee2:	99 23       	and	r25, r25
    2ee4:	29 f0       	breq	.+10     	; 0x2ef0 <dtoa_prf+0x9a>
    2ee6:	d6 01       	movw	r26, r12
    2ee8:	9c 93       	st	X, r25
    2eea:	f6 01       	movw	r30, r12
    2eec:	31 96       	adiw	r30, 0x01	; 1
    2eee:	6f 01       	movw	r12, r30
    2ef0:	c6 01       	movw	r24, r12
    2ef2:	03 96       	adiw	r24, 0x03	; 3
    2ef4:	e2 fe       	sbrs	r14, 2
    2ef6:	0a c0       	rjmp	.+20     	; 0x2f0c <dtoa_prf+0xb6>
    2ef8:	3e e4       	ldi	r19, 0x4E	; 78
    2efa:	d6 01       	movw	r26, r12
    2efc:	3c 93       	st	X, r19
    2efe:	41 e4       	ldi	r20, 0x41	; 65
    2f00:	11 96       	adiw	r26, 0x01	; 1
    2f02:	4c 93       	st	X, r20
    2f04:	11 97       	sbiw	r26, 0x01	; 1
    2f06:	12 96       	adiw	r26, 0x02	; 2
    2f08:	3c 93       	st	X, r19
    2f0a:	06 c0       	rjmp	.+12     	; 0x2f18 <dtoa_prf+0xc2>
    2f0c:	3e e6       	ldi	r19, 0x6E	; 110
    2f0e:	f6 01       	movw	r30, r12
    2f10:	30 83       	st	Z, r19
    2f12:	41 e6       	ldi	r20, 0x61	; 97
    2f14:	41 83       	std	Z+1, r20	; 0x01
    2f16:	32 83       	std	Z+2, r19	; 0x02
    2f18:	fc 01       	movw	r30, r24
    2f1a:	32 2f       	mov	r19, r18
    2f1c:	40 e2       	ldi	r20, 0x20	; 32
    2f1e:	33 23       	and	r19, r19
    2f20:	09 f4       	brne	.+2      	; 0x2f24 <dtoa_prf+0xce>
    2f22:	42 c0       	rjmp	.+132    	; 0x2fa8 <dtoa_prf+0x152>
    2f24:	41 93       	st	Z+, r20
    2f26:	31 50       	subi	r19, 0x01	; 1
    2f28:	fa cf       	rjmp	.-12     	; 0x2f1e <dtoa_prf+0xc8>
    2f2a:	42 ff       	sbrs	r20, 2
    2f2c:	44 c0       	rjmp	.+136    	; 0x2fb6 <dtoa_prf+0x160>
    2f2e:	91 11       	cpse	r25, r1
    2f30:	02 c0       	rjmp	.+4      	; 0x2f36 <dtoa_prf+0xe0>
    2f32:	83 e0       	ldi	r24, 0x03	; 3
    2f34:	01 c0       	rjmp	.+2      	; 0x2f38 <dtoa_prf+0xe2>
    2f36:	84 e0       	ldi	r24, 0x04	; 4
    2f38:	81 17       	cp	r24, r17
    2f3a:	18 f4       	brcc	.+6      	; 0x2f42 <dtoa_prf+0xec>
    2f3c:	21 2f       	mov	r18, r17
    2f3e:	28 1b       	sub	r18, r24
    2f40:	01 c0       	rjmp	.+2      	; 0x2f44 <dtoa_prf+0xee>
    2f42:	20 e0       	ldi	r18, 0x00	; 0
    2f44:	51 11       	cpse	r21, r1
    2f46:	0b c0       	rjmp	.+22     	; 0x2f5e <dtoa_prf+0x108>
    2f48:	f6 01       	movw	r30, r12
    2f4a:	82 2f       	mov	r24, r18
    2f4c:	30 e2       	ldi	r19, 0x20	; 32
    2f4e:	88 23       	and	r24, r24
    2f50:	19 f0       	breq	.+6      	; 0x2f58 <dtoa_prf+0x102>
    2f52:	31 93       	st	Z+, r19
    2f54:	81 50       	subi	r24, 0x01	; 1
    2f56:	fb cf       	rjmp	.-10     	; 0x2f4e <dtoa_prf+0xf8>
    2f58:	c2 0e       	add	r12, r18
    2f5a:	d1 1c       	adc	r13, r1
    2f5c:	20 e0       	ldi	r18, 0x00	; 0
    2f5e:	99 23       	and	r25, r25
    2f60:	29 f0       	breq	.+10     	; 0x2f6c <dtoa_prf+0x116>
    2f62:	d6 01       	movw	r26, r12
    2f64:	9c 93       	st	X, r25
    2f66:	f6 01       	movw	r30, r12
    2f68:	31 96       	adiw	r30, 0x01	; 1
    2f6a:	6f 01       	movw	r12, r30
    2f6c:	c6 01       	movw	r24, r12
    2f6e:	03 96       	adiw	r24, 0x03	; 3
    2f70:	e2 fe       	sbrs	r14, 2
    2f72:	0b c0       	rjmp	.+22     	; 0x2f8a <dtoa_prf+0x134>
    2f74:	39 e4       	ldi	r19, 0x49	; 73
    2f76:	d6 01       	movw	r26, r12
    2f78:	3c 93       	st	X, r19
    2f7a:	3e e4       	ldi	r19, 0x4E	; 78
    2f7c:	11 96       	adiw	r26, 0x01	; 1
    2f7e:	3c 93       	st	X, r19
    2f80:	11 97       	sbiw	r26, 0x01	; 1
    2f82:	36 e4       	ldi	r19, 0x46	; 70
    2f84:	12 96       	adiw	r26, 0x02	; 2
    2f86:	3c 93       	st	X, r19
    2f88:	07 c0       	rjmp	.+14     	; 0x2f98 <dtoa_prf+0x142>
    2f8a:	39 e6       	ldi	r19, 0x69	; 105
    2f8c:	f6 01       	movw	r30, r12
    2f8e:	30 83       	st	Z, r19
    2f90:	3e e6       	ldi	r19, 0x6E	; 110
    2f92:	31 83       	std	Z+1, r19	; 0x01
    2f94:	36 e6       	ldi	r19, 0x66	; 102
    2f96:	32 83       	std	Z+2, r19	; 0x02
    2f98:	fc 01       	movw	r30, r24
    2f9a:	32 2f       	mov	r19, r18
    2f9c:	40 e2       	ldi	r20, 0x20	; 32
    2f9e:	33 23       	and	r19, r19
    2fa0:	19 f0       	breq	.+6      	; 0x2fa8 <dtoa_prf+0x152>
    2fa2:	41 93       	st	Z+, r20
    2fa4:	31 50       	subi	r19, 0x01	; 1
    2fa6:	fb cf       	rjmp	.-10     	; 0x2f9e <dtoa_prf+0x148>
    2fa8:	fc 01       	movw	r30, r24
    2faa:	e2 0f       	add	r30, r18
    2fac:	f1 1d       	adc	r31, r1
    2fae:	10 82       	st	Z, r1
    2fb0:	8e ef       	ldi	r24, 0xFE	; 254
    2fb2:	9f ef       	ldi	r25, 0xFF	; 255
    2fb4:	a6 c0       	rjmp	.+332    	; 0x3102 <dtoa_prf+0x2ac>
    2fb6:	21 e0       	ldi	r18, 0x01	; 1
    2fb8:	30 e0       	ldi	r19, 0x00	; 0
    2fba:	91 11       	cpse	r25, r1
    2fbc:	02 c0       	rjmp	.+4      	; 0x2fc2 <dtoa_prf+0x16c>
    2fbe:	20 e0       	ldi	r18, 0x00	; 0
    2fc0:	30 e0       	ldi	r19, 0x00	; 0
    2fc2:	16 16       	cp	r1, r22
    2fc4:	17 06       	cpc	r1, r23
    2fc6:	1c f4       	brge	.+6      	; 0x2fce <dtoa_prf+0x178>
    2fc8:	fb 01       	movw	r30, r22
    2fca:	31 96       	adiw	r30, 0x01	; 1
    2fcc:	02 c0       	rjmp	.+4      	; 0x2fd2 <dtoa_prf+0x17c>
    2fce:	e1 e0       	ldi	r30, 0x01	; 1
    2fd0:	f0 e0       	ldi	r31, 0x00	; 0
    2fd2:	2e 0f       	add	r18, r30
    2fd4:	3f 1f       	adc	r19, r31
    2fd6:	bb 20       	and	r11, r11
    2fd8:	21 f0       	breq	.+8      	; 0x2fe2 <dtoa_prf+0x18c>
    2fda:	eb 2d       	mov	r30, r11
    2fdc:	f0 e0       	ldi	r31, 0x00	; 0
    2fde:	31 96       	adiw	r30, 0x01	; 1
    2fe0:	02 c0       	rjmp	.+4      	; 0x2fe6 <dtoa_prf+0x190>
    2fe2:	e0 e0       	ldi	r30, 0x00	; 0
    2fe4:	f0 e0       	ldi	r31, 0x00	; 0
    2fe6:	2e 0f       	add	r18, r30
    2fe8:	3f 1f       	adc	r19, r31
    2fea:	e1 2f       	mov	r30, r17
    2fec:	f0 e0       	ldi	r31, 0x00	; 0
    2fee:	2e 17       	cp	r18, r30
    2ff0:	3f 07       	cpc	r19, r31
    2ff2:	1c f4       	brge	.+6      	; 0x2ffa <dtoa_prf+0x1a4>
    2ff4:	12 1b       	sub	r17, r18
    2ff6:	21 2f       	mov	r18, r17
    2ff8:	01 c0       	rjmp	.+2      	; 0x2ffc <dtoa_prf+0x1a6>
    2ffa:	20 e0       	ldi	r18, 0x00	; 0
    2ffc:	8e 2d       	mov	r24, r14
    2ffe:	88 71       	andi	r24, 0x18	; 24
    3000:	59 f4       	brne	.+22     	; 0x3018 <dtoa_prf+0x1c2>
    3002:	f6 01       	movw	r30, r12
    3004:	82 2f       	mov	r24, r18
    3006:	30 e2       	ldi	r19, 0x20	; 32
    3008:	88 23       	and	r24, r24
    300a:	19 f0       	breq	.+6      	; 0x3012 <dtoa_prf+0x1bc>
    300c:	31 93       	st	Z+, r19
    300e:	81 50       	subi	r24, 0x01	; 1
    3010:	fb cf       	rjmp	.-10     	; 0x3008 <dtoa_prf+0x1b2>
    3012:	c2 0e       	add	r12, r18
    3014:	d1 1c       	adc	r13, r1
    3016:	20 e0       	ldi	r18, 0x00	; 0
    3018:	99 23       	and	r25, r25
    301a:	29 f0       	breq	.+10     	; 0x3026 <dtoa_prf+0x1d0>
    301c:	d6 01       	movw	r26, r12
    301e:	9c 93       	st	X, r25
    3020:	f6 01       	movw	r30, r12
    3022:	31 96       	adiw	r30, 0x01	; 1
    3024:	6f 01       	movw	r12, r30
    3026:	51 11       	cpse	r21, r1
    3028:	0b c0       	rjmp	.+22     	; 0x3040 <dtoa_prf+0x1ea>
    302a:	f6 01       	movw	r30, r12
    302c:	82 2f       	mov	r24, r18
    302e:	90 e3       	ldi	r25, 0x30	; 48
    3030:	88 23       	and	r24, r24
    3032:	19 f0       	breq	.+6      	; 0x303a <dtoa_prf+0x1e4>
    3034:	91 93       	st	Z+, r25
    3036:	81 50       	subi	r24, 0x01	; 1
    3038:	fb cf       	rjmp	.-10     	; 0x3030 <dtoa_prf+0x1da>
    303a:	c2 0e       	add	r12, r18
    303c:	d1 1c       	adc	r13, r1
    303e:	20 e0       	ldi	r18, 0x00	; 0
    3040:	0f 2d       	mov	r16, r15
    3042:	06 0f       	add	r16, r22
    3044:	9a 81       	ldd	r25, Y+2	; 0x02
    3046:	34 2f       	mov	r19, r20
    3048:	30 71       	andi	r19, 0x10	; 16
    304a:	44 ff       	sbrs	r20, 4
    304c:	03 c0       	rjmp	.+6      	; 0x3054 <dtoa_prf+0x1fe>
    304e:	91 33       	cpi	r25, 0x31	; 49
    3050:	09 f4       	brne	.+2      	; 0x3054 <dtoa_prf+0x1fe>
    3052:	01 50       	subi	r16, 0x01	; 1
    3054:	10 16       	cp	r1, r16
    3056:	24 f4       	brge	.+8      	; 0x3060 <dtoa_prf+0x20a>
    3058:	09 30       	cpi	r16, 0x09	; 9
    305a:	18 f0       	brcs	.+6      	; 0x3062 <dtoa_prf+0x20c>
    305c:	08 e0       	ldi	r16, 0x08	; 8
    305e:	01 c0       	rjmp	.+2      	; 0x3062 <dtoa_prf+0x20c>
    3060:	01 e0       	ldi	r16, 0x01	; 1
    3062:	ab 01       	movw	r20, r22
    3064:	77 ff       	sbrs	r23, 7
    3066:	02 c0       	rjmp	.+4      	; 0x306c <dtoa_prf+0x216>
    3068:	40 e0       	ldi	r20, 0x00	; 0
    306a:	50 e0       	ldi	r21, 0x00	; 0
    306c:	fb 01       	movw	r30, r22
    306e:	e4 1b       	sub	r30, r20
    3070:	f5 0b       	sbc	r31, r21
    3072:	a1 e0       	ldi	r26, 0x01	; 1
    3074:	b0 e0       	ldi	r27, 0x00	; 0
    3076:	ac 0f       	add	r26, r28
    3078:	bd 1f       	adc	r27, r29
    307a:	ea 0f       	add	r30, r26
    307c:	fb 1f       	adc	r31, r27
    307e:	8e e2       	ldi	r24, 0x2E	; 46
    3080:	a8 2e       	mov	r10, r24
    3082:	4b 01       	movw	r8, r22
    3084:	80 1a       	sub	r8, r16
    3086:	91 08       	sbc	r9, r1
    3088:	0b 2d       	mov	r16, r11
    308a:	10 e0       	ldi	r17, 0x00	; 0
    308c:	11 95       	neg	r17
    308e:	01 95       	neg	r16
    3090:	11 09       	sbc	r17, r1
    3092:	4f 3f       	cpi	r20, 0xFF	; 255
    3094:	bf ef       	ldi	r27, 0xFF	; 255
    3096:	5b 07       	cpc	r21, r27
    3098:	21 f4       	brne	.+8      	; 0x30a2 <dtoa_prf+0x24c>
    309a:	d6 01       	movw	r26, r12
    309c:	ac 92       	st	X, r10
    309e:	11 96       	adiw	r26, 0x01	; 1
    30a0:	6d 01       	movw	r12, r26
    30a2:	64 17       	cp	r22, r20
    30a4:	75 07       	cpc	r23, r21
    30a6:	2c f0       	brlt	.+10     	; 0x30b2 <dtoa_prf+0x25c>
    30a8:	84 16       	cp	r8, r20
    30aa:	95 06       	cpc	r9, r21
    30ac:	14 f4       	brge	.+4      	; 0x30b2 <dtoa_prf+0x25c>
    30ae:	81 81       	ldd	r24, Z+1	; 0x01
    30b0:	01 c0       	rjmp	.+2      	; 0x30b4 <dtoa_prf+0x25e>
    30b2:	80 e3       	ldi	r24, 0x30	; 48
    30b4:	41 50       	subi	r20, 0x01	; 1
    30b6:	51 09       	sbc	r21, r1
    30b8:	31 96       	adiw	r30, 0x01	; 1
    30ba:	d6 01       	movw	r26, r12
    30bc:	11 96       	adiw	r26, 0x01	; 1
    30be:	7d 01       	movw	r14, r26
    30c0:	40 17       	cp	r20, r16
    30c2:	51 07       	cpc	r21, r17
    30c4:	24 f0       	brlt	.+8      	; 0x30ce <dtoa_prf+0x278>
    30c6:	d6 01       	movw	r26, r12
    30c8:	8c 93       	st	X, r24
    30ca:	67 01       	movw	r12, r14
    30cc:	e2 cf       	rjmp	.-60     	; 0x3092 <dtoa_prf+0x23c>
    30ce:	64 17       	cp	r22, r20
    30d0:	75 07       	cpc	r23, r21
    30d2:	39 f4       	brne	.+14     	; 0x30e2 <dtoa_prf+0x28c>
    30d4:	96 33       	cpi	r25, 0x36	; 54
    30d6:	20 f4       	brcc	.+8      	; 0x30e0 <dtoa_prf+0x28a>
    30d8:	95 33       	cpi	r25, 0x35	; 53
    30da:	19 f4       	brne	.+6      	; 0x30e2 <dtoa_prf+0x28c>
    30dc:	31 11       	cpse	r19, r1
    30de:	01 c0       	rjmp	.+2      	; 0x30e2 <dtoa_prf+0x28c>
    30e0:	81 e3       	ldi	r24, 0x31	; 49
    30e2:	f6 01       	movw	r30, r12
    30e4:	80 83       	st	Z, r24
    30e6:	f7 01       	movw	r30, r14
    30e8:	82 2f       	mov	r24, r18
    30ea:	90 e2       	ldi	r25, 0x20	; 32
    30ec:	88 23       	and	r24, r24
    30ee:	19 f0       	breq	.+6      	; 0x30f6 <dtoa_prf+0x2a0>
    30f0:	91 93       	st	Z+, r25
    30f2:	81 50       	subi	r24, 0x01	; 1
    30f4:	fb cf       	rjmp	.-10     	; 0x30ec <dtoa_prf+0x296>
    30f6:	f7 01       	movw	r30, r14
    30f8:	e2 0f       	add	r30, r18
    30fa:	f1 1d       	adc	r31, r1
    30fc:	10 82       	st	Z, r1
    30fe:	80 e0       	ldi	r24, 0x00	; 0
    3100:	90 e0       	ldi	r25, 0x00	; 0
    3102:	29 96       	adiw	r28, 0x09	; 9
    3104:	ec e0       	ldi	r30, 0x0C	; 12
    3106:	0c 94 b1 1b 	jmp	0x3762	; 0x3762 <__epilogue_restores__+0xc>

0000310a <strtod>:
    310a:	a0 e0       	ldi	r26, 0x00	; 0
    310c:	b0 e0       	ldi	r27, 0x00	; 0
    310e:	eb e8       	ldi	r30, 0x8B	; 139
    3110:	f8 e1       	ldi	r31, 0x18	; 24
    3112:	0c 94 95 1b 	jmp	0x372a	; 0x372a <__prologue_saves__+0xc>
    3116:	ec 01       	movw	r28, r24
    3118:	6b 01       	movw	r12, r22
    311a:	61 15       	cp	r22, r1
    311c:	71 05       	cpc	r23, r1
    311e:	19 f0       	breq	.+6      	; 0x3126 <strtod+0x1c>
    3120:	fb 01       	movw	r30, r22
    3122:	91 83       	std	Z+1, r25	; 0x01
    3124:	80 83       	st	Z, r24
    3126:	7e 01       	movw	r14, r28
    3128:	ff ef       	ldi	r31, 0xFF	; 255
    312a:	ef 1a       	sub	r14, r31
    312c:	ff 0a       	sbc	r15, r31
    312e:	08 81       	ld	r16, Y
    3130:	80 2f       	mov	r24, r16
    3132:	90 e0       	ldi	r25, 0x00	; 0
    3134:	0e 94 ab 1a 	call	0x3556	; 0x3556 <isspace>
    3138:	89 2b       	or	r24, r25
    313a:	11 f0       	breq	.+4      	; 0x3140 <strtod+0x36>
    313c:	e7 01       	movw	r28, r14
    313e:	f3 cf       	rjmp	.-26     	; 0x3126 <strtod+0x1c>
    3140:	0d 32       	cpi	r16, 0x2D	; 45
    3142:	39 f4       	brne	.+14     	; 0x3152 <strtod+0x48>
    3144:	7e 01       	movw	r14, r28
    3146:	82 e0       	ldi	r24, 0x02	; 2
    3148:	e8 0e       	add	r14, r24
    314a:	f1 1c       	adc	r15, r1
    314c:	09 81       	ldd	r16, Y+1	; 0x01
    314e:	11 e0       	ldi	r17, 0x01	; 1
    3150:	08 c0       	rjmp	.+16     	; 0x3162 <strtod+0x58>
    3152:	0b 32       	cpi	r16, 0x2B	; 43
    3154:	29 f4       	brne	.+10     	; 0x3160 <strtod+0x56>
    3156:	7e 01       	movw	r14, r28
    3158:	92 e0       	ldi	r25, 0x02	; 2
    315a:	e9 0e       	add	r14, r25
    315c:	f1 1c       	adc	r15, r1
    315e:	09 81       	ldd	r16, Y+1	; 0x01
    3160:	10 e0       	ldi	r17, 0x00	; 0
    3162:	e7 01       	movw	r28, r14
    3164:	21 97       	sbiw	r28, 0x01	; 1
    3166:	43 e0       	ldi	r20, 0x03	; 3
    3168:	50 e0       	ldi	r21, 0x00	; 0
    316a:	64 e8       	ldi	r22, 0x84	; 132
    316c:	70 e0       	ldi	r23, 0x00	; 0
    316e:	ce 01       	movw	r24, r28
    3170:	0e 94 b4 1a 	call	0x3568	; 0x3568 <strncasecmp_P>
    3174:	89 2b       	or	r24, r25
    3176:	c1 f4       	brne	.+48     	; 0x31a8 <strtod+0x9e>
    3178:	23 96       	adiw	r28, 0x03	; 3
    317a:	45 e0       	ldi	r20, 0x05	; 5
    317c:	50 e0       	ldi	r21, 0x00	; 0
    317e:	6f e7       	ldi	r22, 0x7F	; 127
    3180:	70 e0       	ldi	r23, 0x00	; 0
    3182:	ce 01       	movw	r24, r28
    3184:	0e 94 b4 1a 	call	0x3568	; 0x3568 <strncasecmp_P>
    3188:	89 2b       	or	r24, r25
    318a:	09 f4       	brne	.+2      	; 0x318e <strtod+0x84>
    318c:	25 96       	adiw	r28, 0x05	; 5
    318e:	c1 14       	cp	r12, r1
    3190:	d1 04       	cpc	r13, r1
    3192:	19 f0       	breq	.+6      	; 0x319a <strtod+0x90>
    3194:	f6 01       	movw	r30, r12
    3196:	d1 83       	std	Z+1, r29	; 0x01
    3198:	c0 83       	st	Z, r28
    319a:	11 11       	cpse	r17, r1
    319c:	f6 c0       	rjmp	.+492    	; 0x338a <strtod+0x280>
    319e:	60 e0       	ldi	r22, 0x00	; 0
    31a0:	70 e0       	ldi	r23, 0x00	; 0
    31a2:	80 e8       	ldi	r24, 0x80	; 128
    31a4:	9f e7       	ldi	r25, 0x7F	; 127
    31a6:	fa c0       	rjmp	.+500    	; 0x339c <strtod+0x292>
    31a8:	43 e0       	ldi	r20, 0x03	; 3
    31aa:	50 e0       	ldi	r21, 0x00	; 0
    31ac:	6c e7       	ldi	r22, 0x7C	; 124
    31ae:	70 e0       	ldi	r23, 0x00	; 0
    31b0:	ce 01       	movw	r24, r28
    31b2:	0e 94 b4 1a 	call	0x3568	; 0x3568 <strncasecmp_P>
    31b6:	89 2b       	or	r24, r25
    31b8:	59 f4       	brne	.+22     	; 0x31d0 <strtod+0xc6>
    31ba:	c1 14       	cp	r12, r1
    31bc:	d1 04       	cpc	r13, r1
    31be:	09 f4       	brne	.+2      	; 0x31c2 <strtod+0xb8>
    31c0:	e9 c0       	rjmp	.+466    	; 0x3394 <strtod+0x28a>
    31c2:	f2 e0       	ldi	r31, 0x02	; 2
    31c4:	ef 0e       	add	r14, r31
    31c6:	f1 1c       	adc	r15, r1
    31c8:	f6 01       	movw	r30, r12
    31ca:	f1 82       	std	Z+1, r15	; 0x01
    31cc:	e0 82       	st	Z, r14
    31ce:	e2 c0       	rjmp	.+452    	; 0x3394 <strtod+0x28a>
    31d0:	20 e0       	ldi	r18, 0x00	; 0
    31d2:	30 e0       	ldi	r19, 0x00	; 0
    31d4:	a9 01       	movw	r20, r18
    31d6:	c0 e0       	ldi	r28, 0x00	; 0
    31d8:	d0 e0       	ldi	r29, 0x00	; 0
    31da:	f7 01       	movw	r30, r14
    31dc:	80 ed       	ldi	r24, 0xD0	; 208
    31de:	a8 2e       	mov	r10, r24
    31e0:	a0 0e       	add	r10, r16
    31e2:	89 e0       	ldi	r24, 0x09	; 9
    31e4:	8a 15       	cp	r24, r10
    31e6:	30 f1       	brcs	.+76     	; 0x3234 <strtod+0x12a>
    31e8:	91 2f       	mov	r25, r17
    31ea:	92 60       	ori	r25, 0x02	; 2
    31ec:	b9 2e       	mov	r11, r25
    31ee:	81 2f       	mov	r24, r17
    31f0:	88 70       	andi	r24, 0x08	; 8
    31f2:	12 ff       	sbrs	r17, 2
    31f4:	04 c0       	rjmp	.+8      	; 0x31fe <strtod+0xf4>
    31f6:	81 11       	cpse	r24, r1
    31f8:	24 c0       	rjmp	.+72     	; 0x3242 <strtod+0x138>
    31fa:	21 96       	adiw	r28, 0x01	; 1
    31fc:	22 c0       	rjmp	.+68     	; 0x3242 <strtod+0x138>
    31fe:	81 11       	cpse	r24, r1
    3200:	21 97       	sbiw	r28, 0x01	; 1
    3202:	a5 e0       	ldi	r26, 0x05	; 5
    3204:	b0 e0       	ldi	r27, 0x00	; 0
    3206:	0e 94 a2 14 	call	0x2944	; 0x2944 <__muluhisi3>
    320a:	dc 01       	movw	r26, r24
    320c:	cb 01       	movw	r24, r22
    320e:	88 0f       	add	r24, r24
    3210:	99 1f       	adc	r25, r25
    3212:	aa 1f       	adc	r26, r26
    3214:	bb 1f       	adc	r27, r27
    3216:	9c 01       	movw	r18, r24
    3218:	ad 01       	movw	r20, r26
    321a:	2a 0d       	add	r18, r10
    321c:	31 1d       	adc	r19, r1
    321e:	41 1d       	adc	r20, r1
    3220:	51 1d       	adc	r21, r1
    3222:	28 39       	cpi	r18, 0x98	; 152
    3224:	89 e9       	ldi	r24, 0x99	; 153
    3226:	38 07       	cpc	r19, r24
    3228:	48 07       	cpc	r20, r24
    322a:	89 e1       	ldi	r24, 0x19	; 25
    322c:	58 07       	cpc	r21, r24
    322e:	48 f0       	brcs	.+18     	; 0x3242 <strtod+0x138>
    3230:	16 60       	ori	r17, 0x06	; 6
    3232:	06 c0       	rjmp	.+12     	; 0x3240 <strtod+0x136>
    3234:	9e ef       	ldi	r25, 0xFE	; 254
    3236:	a9 12       	cpse	r10, r25
    3238:	0a c0       	rjmp	.+20     	; 0x324e <strtod+0x144>
    323a:	13 fd       	sbrc	r17, 3
    323c:	40 c0       	rjmp	.+128    	; 0x32be <strtod+0x1b4>
    323e:	18 60       	ori	r17, 0x08	; 8
    3240:	b1 2e       	mov	r11, r17
    3242:	8f ef       	ldi	r24, 0xFF	; 255
    3244:	e8 1a       	sub	r14, r24
    3246:	f8 0a       	sbc	r15, r24
    3248:	00 81       	ld	r16, Z
    324a:	1b 2d       	mov	r17, r11
    324c:	c6 cf       	rjmp	.-116    	; 0x31da <strtod+0xd0>
    324e:	80 2f       	mov	r24, r16
    3250:	8f 7d       	andi	r24, 0xDF	; 223
    3252:	85 34       	cpi	r24, 0x45	; 69
    3254:	a1 f5       	brne	.+104    	; 0x32be <strtod+0x1b4>
    3256:	80 81       	ld	r24, Z
    3258:	8d 32       	cpi	r24, 0x2D	; 45
    325a:	11 f4       	brne	.+4      	; 0x3260 <strtod+0x156>
    325c:	10 61       	ori	r17, 0x10	; 16
    325e:	06 c0       	rjmp	.+12     	; 0x326c <strtod+0x162>
    3260:	8b 32       	cpi	r24, 0x2B	; 43
    3262:	21 f0       	breq	.+8      	; 0x326c <strtod+0x162>
    3264:	31 96       	adiw	r30, 0x01	; 1
    3266:	61 e0       	ldi	r22, 0x01	; 1
    3268:	70 e0       	ldi	r23, 0x00	; 0
    326a:	04 c0       	rjmp	.+8      	; 0x3274 <strtod+0x16a>
    326c:	81 81       	ldd	r24, Z+1	; 0x01
    326e:	32 96       	adiw	r30, 0x02	; 2
    3270:	62 e0       	ldi	r22, 0x02	; 2
    3272:	70 e0       	ldi	r23, 0x00	; 0
    3274:	80 53       	subi	r24, 0x30	; 48
    3276:	8a 30       	cpi	r24, 0x0A	; 10
    3278:	18 f0       	brcs	.+6      	; 0x3280 <strtod+0x176>
    327a:	e6 1b       	sub	r30, r22
    327c:	f7 0b       	sbc	r31, r23
    327e:	1f c0       	rjmp	.+62     	; 0x32be <strtod+0x1b4>
    3280:	60 e0       	ldi	r22, 0x00	; 0
    3282:	70 e0       	ldi	r23, 0x00	; 0
    3284:	60 38       	cpi	r22, 0x80	; 128
    3286:	9c e0       	ldi	r25, 0x0C	; 12
    3288:	79 07       	cpc	r23, r25
    328a:	5c f4       	brge	.+22     	; 0x32a2 <strtod+0x198>
    328c:	db 01       	movw	r26, r22
    328e:	aa 0f       	add	r26, r26
    3290:	bb 1f       	adc	r27, r27
    3292:	aa 0f       	add	r26, r26
    3294:	bb 1f       	adc	r27, r27
    3296:	6a 0f       	add	r22, r26
    3298:	7b 1f       	adc	r23, r27
    329a:	66 0f       	add	r22, r22
    329c:	77 1f       	adc	r23, r23
    329e:	68 0f       	add	r22, r24
    32a0:	71 1d       	adc	r23, r1
    32a2:	31 96       	adiw	r30, 0x01	; 1
    32a4:	df 01       	movw	r26, r30
    32a6:	11 97       	sbiw	r26, 0x01	; 1
    32a8:	8c 91       	ld	r24, X
    32aa:	80 53       	subi	r24, 0x30	; 48
    32ac:	8a 30       	cpi	r24, 0x0A	; 10
    32ae:	50 f3       	brcs	.-44     	; 0x3284 <strtod+0x17a>
    32b0:	14 ff       	sbrs	r17, 4
    32b2:	03 c0       	rjmp	.+6      	; 0x32ba <strtod+0x1b0>
    32b4:	71 95       	neg	r23
    32b6:	61 95       	neg	r22
    32b8:	71 09       	sbc	r23, r1
    32ba:	c6 0f       	add	r28, r22
    32bc:	d7 1f       	adc	r29, r23
    32be:	11 ff       	sbrs	r17, 1
    32c0:	08 c0       	rjmp	.+16     	; 0x32d2 <strtod+0x1c8>
    32c2:	c1 14       	cp	r12, r1
    32c4:	d1 04       	cpc	r13, r1
    32c6:	29 f0       	breq	.+10     	; 0x32d2 <strtod+0x1c8>
    32c8:	cf 01       	movw	r24, r30
    32ca:	01 97       	sbiw	r24, 0x01	; 1
    32cc:	f6 01       	movw	r30, r12
    32ce:	91 83       	std	Z+1, r25	; 0x01
    32d0:	80 83       	st	Z, r24
    32d2:	ca 01       	movw	r24, r20
    32d4:	b9 01       	movw	r22, r18
    32d6:	0e 94 09 14 	call	0x2812	; 0x2812 <__floatunsisf>
    32da:	21 2f       	mov	r18, r17
    32dc:	23 70       	andi	r18, 0x03	; 3
    32de:	23 30       	cpi	r18, 0x03	; 3
    32e0:	19 f0       	breq	.+6      	; 0x32e8 <strtod+0x1de>
    32e2:	4b 01       	movw	r8, r22
    32e4:	5c 01       	movw	r10, r24
    32e6:	06 c0       	rjmp	.+12     	; 0x32f4 <strtod+0x1ea>
    32e8:	4b 01       	movw	r8, r22
    32ea:	5c 01       	movw	r10, r24
    32ec:	b7 fa       	bst	r11, 7
    32ee:	b0 94       	com	r11
    32f0:	b7 f8       	bld	r11, 7
    32f2:	b0 94       	com	r11
    32f4:	20 e0       	ldi	r18, 0x00	; 0
    32f6:	30 e0       	ldi	r19, 0x00	; 0
    32f8:	a9 01       	movw	r20, r18
    32fa:	c5 01       	movw	r24, r10
    32fc:	b4 01       	movw	r22, r8
    32fe:	0e 94 92 13 	call	0x2724	; 0x2724 <__cmpsf2>
    3302:	88 23       	and	r24, r24
    3304:	09 f4       	brne	.+2      	; 0x3308 <strtod+0x1fe>
    3306:	3e c0       	rjmp	.+124    	; 0x3384 <strtod+0x27a>
    3308:	d7 ff       	sbrs	r29, 7
    330a:	06 c0       	rjmp	.+12     	; 0x3318 <strtod+0x20e>
    330c:	d1 95       	neg	r29
    330e:	c1 95       	neg	r28
    3310:	d1 09       	sbc	r29, r1
    3312:	0b e9       	ldi	r16, 0x9B	; 155
    3314:	10 e0       	ldi	r17, 0x00	; 0
    3316:	02 c0       	rjmp	.+4      	; 0x331c <strtod+0x212>
    3318:	03 eb       	ldi	r16, 0xB3	; 179
    331a:	10 e0       	ldi	r17, 0x00	; 0
    331c:	68 01       	movw	r12, r16
    331e:	f8 e1       	ldi	r31, 0x18	; 24
    3320:	cf 1a       	sub	r12, r31
    3322:	d1 08       	sbc	r13, r1
    3324:	90 e2       	ldi	r25, 0x20	; 32
    3326:	e9 2e       	mov	r14, r25
    3328:	f1 2c       	mov	r15, r1
    332a:	ce 15       	cp	r28, r14
    332c:	df 05       	cpc	r29, r15
    332e:	74 f0       	brlt	.+28     	; 0x334c <strtod+0x242>
    3330:	f8 01       	movw	r30, r16
    3332:	25 91       	lpm	r18, Z+
    3334:	35 91       	lpm	r19, Z+
    3336:	45 91       	lpm	r20, Z+
    3338:	54 91       	lpm	r21, Z
    333a:	c5 01       	movw	r24, r10
    333c:	b4 01       	movw	r22, r8
    333e:	0e 94 01 05 	call	0xa02	; 0xa02 <__mulsf3>
    3342:	4b 01       	movw	r8, r22
    3344:	5c 01       	movw	r10, r24
    3346:	ce 19       	sub	r28, r14
    3348:	df 09       	sbc	r29, r15
    334a:	ef cf       	rjmp	.-34     	; 0x332a <strtod+0x220>
    334c:	04 50       	subi	r16, 0x04	; 4
    334e:	11 09       	sbc	r17, r1
    3350:	f5 94       	asr	r15
    3352:	e7 94       	ror	r14
    3354:	0c 15       	cp	r16, r12
    3356:	1d 05       	cpc	r17, r13
    3358:	41 f7       	brne	.-48     	; 0x332a <strtod+0x220>
    335a:	8a 2d       	mov	r24, r10
    335c:	88 0f       	add	r24, r24
    335e:	8b 2d       	mov	r24, r11
    3360:	88 1f       	adc	r24, r24
    3362:	8f 3f       	cpi	r24, 0xFF	; 255
    3364:	49 f0       	breq	.+18     	; 0x3378 <strtod+0x26e>
    3366:	20 e0       	ldi	r18, 0x00	; 0
    3368:	30 e0       	ldi	r19, 0x00	; 0
    336a:	a9 01       	movw	r20, r18
    336c:	c5 01       	movw	r24, r10
    336e:	b4 01       	movw	r22, r8
    3370:	0e 94 92 13 	call	0x2724	; 0x2724 <__cmpsf2>
    3374:	81 11       	cpse	r24, r1
    3376:	06 c0       	rjmp	.+12     	; 0x3384 <strtod+0x27a>
    3378:	82 e2       	ldi	r24, 0x22	; 34
    337a:	90 e0       	ldi	r25, 0x00	; 0
    337c:	90 93 02 02 	sts	0x0202, r25	; 0x800202 <errno+0x1>
    3380:	80 93 01 02 	sts	0x0201, r24	; 0x800201 <errno>
    3384:	c5 01       	movw	r24, r10
    3386:	b4 01       	movw	r22, r8
    3388:	09 c0       	rjmp	.+18     	; 0x339c <strtod+0x292>
    338a:	60 e0       	ldi	r22, 0x00	; 0
    338c:	70 e0       	ldi	r23, 0x00	; 0
    338e:	80 e8       	ldi	r24, 0x80	; 128
    3390:	9f ef       	ldi	r25, 0xFF	; 255
    3392:	04 c0       	rjmp	.+8      	; 0x339c <strtod+0x292>
    3394:	60 e0       	ldi	r22, 0x00	; 0
    3396:	70 e0       	ldi	r23, 0x00	; 0
    3398:	80 ec       	ldi	r24, 0xC0	; 192
    339a:	9f e7       	ldi	r25, 0x7F	; 127
    339c:	cd b7       	in	r28, 0x3d	; 61
    339e:	de b7       	in	r29, 0x3e	; 62
    33a0:	ec e0       	ldi	r30, 0x0C	; 12
    33a2:	0c 94 b1 1b 	jmp	0x3762	; 0x3762 <__epilogue_restores__+0xc>

000033a6 <__ftoa_engine>:
    33a6:	28 30       	cpi	r18, 0x08	; 8
    33a8:	08 f0       	brcs	.+2      	; 0x33ac <__ftoa_engine+0x6>
    33aa:	27 e0       	ldi	r18, 0x07	; 7
    33ac:	33 27       	eor	r19, r19
    33ae:	da 01       	movw	r26, r20
    33b0:	99 0f       	add	r25, r25
    33b2:	31 1d       	adc	r19, r1
    33b4:	87 fd       	sbrc	r24, 7
    33b6:	91 60       	ori	r25, 0x01	; 1
    33b8:	00 96       	adiw	r24, 0x00	; 0
    33ba:	61 05       	cpc	r22, r1
    33bc:	71 05       	cpc	r23, r1
    33be:	39 f4       	brne	.+14     	; 0x33ce <__ftoa_engine+0x28>
    33c0:	32 60       	ori	r19, 0x02	; 2
    33c2:	2e 5f       	subi	r18, 0xFE	; 254
    33c4:	3d 93       	st	X+, r19
    33c6:	30 e3       	ldi	r19, 0x30	; 48
    33c8:	2a 95       	dec	r18
    33ca:	e1 f7       	brne	.-8      	; 0x33c4 <__ftoa_engine+0x1e>
    33cc:	08 95       	ret
    33ce:	9f 3f       	cpi	r25, 0xFF	; 255
    33d0:	30 f0       	brcs	.+12     	; 0x33de <__ftoa_engine+0x38>
    33d2:	80 38       	cpi	r24, 0x80	; 128
    33d4:	71 05       	cpc	r23, r1
    33d6:	61 05       	cpc	r22, r1
    33d8:	09 f0       	breq	.+2      	; 0x33dc <__ftoa_engine+0x36>
    33da:	3c 5f       	subi	r19, 0xFC	; 252
    33dc:	3c 5f       	subi	r19, 0xFC	; 252
    33de:	3d 93       	st	X+, r19
    33e0:	91 30       	cpi	r25, 0x01	; 1
    33e2:	08 f0       	brcs	.+2      	; 0x33e6 <__ftoa_engine+0x40>
    33e4:	80 68       	ori	r24, 0x80	; 128
    33e6:	91 1d       	adc	r25, r1
    33e8:	df 93       	push	r29
    33ea:	cf 93       	push	r28
    33ec:	1f 93       	push	r17
    33ee:	0f 93       	push	r16
    33f0:	ff 92       	push	r15
    33f2:	ef 92       	push	r14
    33f4:	19 2f       	mov	r17, r25
    33f6:	98 7f       	andi	r25, 0xF8	; 248
    33f8:	96 95       	lsr	r25
    33fa:	e9 2f       	mov	r30, r25
    33fc:	96 95       	lsr	r25
    33fe:	96 95       	lsr	r25
    3400:	e9 0f       	add	r30, r25
    3402:	ff 27       	eor	r31, r31
    3404:	ef 5e       	subi	r30, 0xEF	; 239
    3406:	fe 4f       	sbci	r31, 0xFE	; 254
    3408:	99 27       	eor	r25, r25
    340a:	33 27       	eor	r19, r19
    340c:	ee 24       	eor	r14, r14
    340e:	ff 24       	eor	r15, r15
    3410:	a7 01       	movw	r20, r14
    3412:	e7 01       	movw	r28, r14
    3414:	05 90       	lpm	r0, Z+
    3416:	08 94       	sec
    3418:	07 94       	ror	r0
    341a:	28 f4       	brcc	.+10     	; 0x3426 <__ftoa_engine+0x80>
    341c:	36 0f       	add	r19, r22
    341e:	e7 1e       	adc	r14, r23
    3420:	f8 1e       	adc	r15, r24
    3422:	49 1f       	adc	r20, r25
    3424:	51 1d       	adc	r21, r1
    3426:	66 0f       	add	r22, r22
    3428:	77 1f       	adc	r23, r23
    342a:	88 1f       	adc	r24, r24
    342c:	99 1f       	adc	r25, r25
    342e:	06 94       	lsr	r0
    3430:	a1 f7       	brne	.-24     	; 0x341a <__ftoa_engine+0x74>
    3432:	05 90       	lpm	r0, Z+
    3434:	07 94       	ror	r0
    3436:	28 f4       	brcc	.+10     	; 0x3442 <__ftoa_engine+0x9c>
    3438:	e7 0e       	add	r14, r23
    343a:	f8 1e       	adc	r15, r24
    343c:	49 1f       	adc	r20, r25
    343e:	56 1f       	adc	r21, r22
    3440:	c1 1d       	adc	r28, r1
    3442:	77 0f       	add	r23, r23
    3444:	88 1f       	adc	r24, r24
    3446:	99 1f       	adc	r25, r25
    3448:	66 1f       	adc	r22, r22
    344a:	06 94       	lsr	r0
    344c:	a1 f7       	brne	.-24     	; 0x3436 <__ftoa_engine+0x90>
    344e:	05 90       	lpm	r0, Z+
    3450:	07 94       	ror	r0
    3452:	28 f4       	brcc	.+10     	; 0x345e <__ftoa_engine+0xb8>
    3454:	f8 0e       	add	r15, r24
    3456:	49 1f       	adc	r20, r25
    3458:	56 1f       	adc	r21, r22
    345a:	c7 1f       	adc	r28, r23
    345c:	d1 1d       	adc	r29, r1
    345e:	88 0f       	add	r24, r24
    3460:	99 1f       	adc	r25, r25
    3462:	66 1f       	adc	r22, r22
    3464:	77 1f       	adc	r23, r23
    3466:	06 94       	lsr	r0
    3468:	a1 f7       	brne	.-24     	; 0x3452 <__ftoa_engine+0xac>
    346a:	05 90       	lpm	r0, Z+
    346c:	07 94       	ror	r0
    346e:	20 f4       	brcc	.+8      	; 0x3478 <__ftoa_engine+0xd2>
    3470:	49 0f       	add	r20, r25
    3472:	56 1f       	adc	r21, r22
    3474:	c7 1f       	adc	r28, r23
    3476:	d8 1f       	adc	r29, r24
    3478:	99 0f       	add	r25, r25
    347a:	66 1f       	adc	r22, r22
    347c:	77 1f       	adc	r23, r23
    347e:	88 1f       	adc	r24, r24
    3480:	06 94       	lsr	r0
    3482:	a9 f7       	brne	.-22     	; 0x346e <__ftoa_engine+0xc8>
    3484:	84 91       	lpm	r24, Z
    3486:	10 95       	com	r17
    3488:	17 70       	andi	r17, 0x07	; 7
    348a:	41 f0       	breq	.+16     	; 0x349c <__ftoa_engine+0xf6>
    348c:	d6 95       	lsr	r29
    348e:	c7 95       	ror	r28
    3490:	57 95       	ror	r21
    3492:	47 95       	ror	r20
    3494:	f7 94       	ror	r15
    3496:	e7 94       	ror	r14
    3498:	1a 95       	dec	r17
    349a:	c1 f7       	brne	.-16     	; 0x348c <__ftoa_engine+0xe6>
    349c:	e7 eb       	ldi	r30, 0xB7	; 183
    349e:	f0 e0       	ldi	r31, 0x00	; 0
    34a0:	68 94       	set
    34a2:	15 90       	lpm	r1, Z+
    34a4:	15 91       	lpm	r17, Z+
    34a6:	35 91       	lpm	r19, Z+
    34a8:	65 91       	lpm	r22, Z+
    34aa:	95 91       	lpm	r25, Z+
    34ac:	05 90       	lpm	r0, Z+
    34ae:	7f e2       	ldi	r23, 0x2F	; 47
    34b0:	73 95       	inc	r23
    34b2:	e1 18       	sub	r14, r1
    34b4:	f1 0a       	sbc	r15, r17
    34b6:	43 0b       	sbc	r20, r19
    34b8:	56 0b       	sbc	r21, r22
    34ba:	c9 0b       	sbc	r28, r25
    34bc:	d0 09       	sbc	r29, r0
    34be:	c0 f7       	brcc	.-16     	; 0x34b0 <__ftoa_engine+0x10a>
    34c0:	e1 0c       	add	r14, r1
    34c2:	f1 1e       	adc	r15, r17
    34c4:	43 1f       	adc	r20, r19
    34c6:	56 1f       	adc	r21, r22
    34c8:	c9 1f       	adc	r28, r25
    34ca:	d0 1d       	adc	r29, r0
    34cc:	7e f4       	brtc	.+30     	; 0x34ec <__ftoa_engine+0x146>
    34ce:	70 33       	cpi	r23, 0x30	; 48
    34d0:	11 f4       	brne	.+4      	; 0x34d6 <__ftoa_engine+0x130>
    34d2:	8a 95       	dec	r24
    34d4:	e6 cf       	rjmp	.-52     	; 0x34a2 <__ftoa_engine+0xfc>
    34d6:	e8 94       	clt
    34d8:	01 50       	subi	r16, 0x01	; 1
    34da:	30 f0       	brcs	.+12     	; 0x34e8 <__ftoa_engine+0x142>
    34dc:	08 0f       	add	r16, r24
    34de:	0a f4       	brpl	.+2      	; 0x34e2 <__ftoa_engine+0x13c>
    34e0:	00 27       	eor	r16, r16
    34e2:	02 17       	cp	r16, r18
    34e4:	08 f4       	brcc	.+2      	; 0x34e8 <__ftoa_engine+0x142>
    34e6:	20 2f       	mov	r18, r16
    34e8:	23 95       	inc	r18
    34ea:	02 2f       	mov	r16, r18
    34ec:	7a 33       	cpi	r23, 0x3A	; 58
    34ee:	28 f0       	brcs	.+10     	; 0x34fa <__ftoa_engine+0x154>
    34f0:	79 e3       	ldi	r23, 0x39	; 57
    34f2:	7d 93       	st	X+, r23
    34f4:	2a 95       	dec	r18
    34f6:	e9 f7       	brne	.-6      	; 0x34f2 <__ftoa_engine+0x14c>
    34f8:	10 c0       	rjmp	.+32     	; 0x351a <__ftoa_engine+0x174>
    34fa:	7d 93       	st	X+, r23
    34fc:	2a 95       	dec	r18
    34fe:	89 f6       	brne	.-94     	; 0x34a2 <__ftoa_engine+0xfc>
    3500:	06 94       	lsr	r0
    3502:	97 95       	ror	r25
    3504:	67 95       	ror	r22
    3506:	37 95       	ror	r19
    3508:	17 95       	ror	r17
    350a:	17 94       	ror	r1
    350c:	e1 18       	sub	r14, r1
    350e:	f1 0a       	sbc	r15, r17
    3510:	43 0b       	sbc	r20, r19
    3512:	56 0b       	sbc	r21, r22
    3514:	c9 0b       	sbc	r28, r25
    3516:	d0 09       	sbc	r29, r0
    3518:	98 f0       	brcs	.+38     	; 0x3540 <__ftoa_engine+0x19a>
    351a:	23 95       	inc	r18
    351c:	7e 91       	ld	r23, -X
    351e:	73 95       	inc	r23
    3520:	7a 33       	cpi	r23, 0x3A	; 58
    3522:	08 f0       	brcs	.+2      	; 0x3526 <__ftoa_engine+0x180>
    3524:	70 e3       	ldi	r23, 0x30	; 48
    3526:	7c 93       	st	X, r23
    3528:	20 13       	cpse	r18, r16
    352a:	b8 f7       	brcc	.-18     	; 0x351a <__ftoa_engine+0x174>
    352c:	7e 91       	ld	r23, -X
    352e:	70 61       	ori	r23, 0x10	; 16
    3530:	7d 93       	st	X+, r23
    3532:	30 f0       	brcs	.+12     	; 0x3540 <__ftoa_engine+0x19a>
    3534:	83 95       	inc	r24
    3536:	71 e3       	ldi	r23, 0x31	; 49
    3538:	7d 93       	st	X+, r23
    353a:	70 e3       	ldi	r23, 0x30	; 48
    353c:	2a 95       	dec	r18
    353e:	e1 f7       	brne	.-8      	; 0x3538 <__ftoa_engine+0x192>
    3540:	11 24       	eor	r1, r1
    3542:	ef 90       	pop	r14
    3544:	ff 90       	pop	r15
    3546:	0f 91       	pop	r16
    3548:	1f 91       	pop	r17
    354a:	cf 91       	pop	r28
    354c:	df 91       	pop	r29
    354e:	99 27       	eor	r25, r25
    3550:	87 fd       	sbrc	r24, 7
    3552:	90 95       	com	r25
    3554:	08 95       	ret

00003556 <isspace>:
    3556:	91 11       	cpse	r25, r1
    3558:	0c 94 8c 1b 	jmp	0x3718	; 0x3718 <__ctype_isfalse>
    355c:	80 32       	cpi	r24, 0x20	; 32
    355e:	19 f0       	breq	.+6      	; 0x3566 <isspace+0x10>
    3560:	89 50       	subi	r24, 0x09	; 9
    3562:	85 50       	subi	r24, 0x05	; 5
    3564:	c8 f7       	brcc	.-14     	; 0x3558 <isspace+0x2>
    3566:	08 95       	ret

00003568 <strncasecmp_P>:
    3568:	fb 01       	movw	r30, r22
    356a:	dc 01       	movw	r26, r24
    356c:	41 50       	subi	r20, 0x01	; 1
    356e:	50 40       	sbci	r21, 0x00	; 0
    3570:	88 f0       	brcs	.+34     	; 0x3594 <strncasecmp_P+0x2c>
    3572:	8d 91       	ld	r24, X+
    3574:	81 34       	cpi	r24, 0x41	; 65
    3576:	1c f0       	brlt	.+6      	; 0x357e <strncasecmp_P+0x16>
    3578:	8b 35       	cpi	r24, 0x5B	; 91
    357a:	0c f4       	brge	.+2      	; 0x357e <strncasecmp_P+0x16>
    357c:	80 5e       	subi	r24, 0xE0	; 224
    357e:	65 91       	lpm	r22, Z+
    3580:	61 34       	cpi	r22, 0x41	; 65
    3582:	1c f0       	brlt	.+6      	; 0x358a <strncasecmp_P+0x22>
    3584:	6b 35       	cpi	r22, 0x5B	; 91
    3586:	0c f4       	brge	.+2      	; 0x358a <strncasecmp_P+0x22>
    3588:	60 5e       	subi	r22, 0xE0	; 224
    358a:	86 1b       	sub	r24, r22
    358c:	61 11       	cpse	r22, r1
    358e:	71 f3       	breq	.-36     	; 0x356c <strncasecmp_P+0x4>
    3590:	99 0b       	sbc	r25, r25
    3592:	08 95       	ret
    3594:	88 1b       	sub	r24, r24
    3596:	fc cf       	rjmp	.-8      	; 0x3590 <strncasecmp_P+0x28>

00003598 <strnlen_P>:
    3598:	fc 01       	movw	r30, r24
    359a:	05 90       	lpm	r0, Z+
    359c:	61 50       	subi	r22, 0x01	; 1
    359e:	70 40       	sbci	r23, 0x00	; 0
    35a0:	01 10       	cpse	r0, r1
    35a2:	d8 f7       	brcc	.-10     	; 0x359a <strnlen_P+0x2>
    35a4:	80 95       	com	r24
    35a6:	90 95       	com	r25
    35a8:	8e 0f       	add	r24, r30
    35aa:	9f 1f       	adc	r25, r31
    35ac:	08 95       	ret

000035ae <strnlen>:
    35ae:	fc 01       	movw	r30, r24
    35b0:	61 50       	subi	r22, 0x01	; 1
    35b2:	70 40       	sbci	r23, 0x00	; 0
    35b4:	01 90       	ld	r0, Z+
    35b6:	01 10       	cpse	r0, r1
    35b8:	d8 f7       	brcc	.-10     	; 0x35b0 <strnlen+0x2>
    35ba:	80 95       	com	r24
    35bc:	90 95       	com	r25
    35be:	8e 0f       	add	r24, r30
    35c0:	9f 1f       	adc	r25, r31
    35c2:	08 95       	ret

000035c4 <strrev>:
    35c4:	dc 01       	movw	r26, r24
    35c6:	fc 01       	movw	r30, r24
    35c8:	67 2f       	mov	r22, r23
    35ca:	71 91       	ld	r23, Z+
    35cc:	77 23       	and	r23, r23
    35ce:	e1 f7       	brne	.-8      	; 0x35c8 <strrev+0x4>
    35d0:	32 97       	sbiw	r30, 0x02	; 2
    35d2:	04 c0       	rjmp	.+8      	; 0x35dc <strrev+0x18>
    35d4:	7c 91       	ld	r23, X
    35d6:	6d 93       	st	X+, r22
    35d8:	70 83       	st	Z, r23
    35da:	62 91       	ld	r22, -Z
    35dc:	ae 17       	cp	r26, r30
    35de:	bf 07       	cpc	r27, r31
    35e0:	c8 f3       	brcs	.-14     	; 0x35d4 <strrev+0x10>
    35e2:	08 95       	ret

000035e4 <fputc>:
    35e4:	0f 93       	push	r16
    35e6:	1f 93       	push	r17
    35e8:	cf 93       	push	r28
    35ea:	df 93       	push	r29
    35ec:	fb 01       	movw	r30, r22
    35ee:	23 81       	ldd	r18, Z+3	; 0x03
    35f0:	21 fd       	sbrc	r18, 1
    35f2:	03 c0       	rjmp	.+6      	; 0x35fa <fputc+0x16>
    35f4:	8f ef       	ldi	r24, 0xFF	; 255
    35f6:	9f ef       	ldi	r25, 0xFF	; 255
    35f8:	2c c0       	rjmp	.+88     	; 0x3652 <fputc+0x6e>
    35fa:	22 ff       	sbrs	r18, 2
    35fc:	16 c0       	rjmp	.+44     	; 0x362a <fputc+0x46>
    35fe:	46 81       	ldd	r20, Z+6	; 0x06
    3600:	57 81       	ldd	r21, Z+7	; 0x07
    3602:	24 81       	ldd	r18, Z+4	; 0x04
    3604:	35 81       	ldd	r19, Z+5	; 0x05
    3606:	42 17       	cp	r20, r18
    3608:	53 07       	cpc	r21, r19
    360a:	44 f4       	brge	.+16     	; 0x361c <fputc+0x38>
    360c:	a0 81       	ld	r26, Z
    360e:	b1 81       	ldd	r27, Z+1	; 0x01
    3610:	9d 01       	movw	r18, r26
    3612:	2f 5f       	subi	r18, 0xFF	; 255
    3614:	3f 4f       	sbci	r19, 0xFF	; 255
    3616:	31 83       	std	Z+1, r19	; 0x01
    3618:	20 83       	st	Z, r18
    361a:	8c 93       	st	X, r24
    361c:	26 81       	ldd	r18, Z+6	; 0x06
    361e:	37 81       	ldd	r19, Z+7	; 0x07
    3620:	2f 5f       	subi	r18, 0xFF	; 255
    3622:	3f 4f       	sbci	r19, 0xFF	; 255
    3624:	37 83       	std	Z+7, r19	; 0x07
    3626:	26 83       	std	Z+6, r18	; 0x06
    3628:	14 c0       	rjmp	.+40     	; 0x3652 <fputc+0x6e>
    362a:	8b 01       	movw	r16, r22
    362c:	ec 01       	movw	r28, r24
    362e:	fb 01       	movw	r30, r22
    3630:	00 84       	ldd	r0, Z+8	; 0x08
    3632:	f1 85       	ldd	r31, Z+9	; 0x09
    3634:	e0 2d       	mov	r30, r0
    3636:	09 95       	icall
    3638:	89 2b       	or	r24, r25
    363a:	e1 f6       	brne	.-72     	; 0x35f4 <fputc+0x10>
    363c:	d8 01       	movw	r26, r16
    363e:	16 96       	adiw	r26, 0x06	; 6
    3640:	8d 91       	ld	r24, X+
    3642:	9c 91       	ld	r25, X
    3644:	17 97       	sbiw	r26, 0x07	; 7
    3646:	01 96       	adiw	r24, 0x01	; 1
    3648:	17 96       	adiw	r26, 0x07	; 7
    364a:	9c 93       	st	X, r25
    364c:	8e 93       	st	-X, r24
    364e:	16 97       	sbiw	r26, 0x06	; 6
    3650:	ce 01       	movw	r24, r28
    3652:	df 91       	pop	r29
    3654:	cf 91       	pop	r28
    3656:	1f 91       	pop	r17
    3658:	0f 91       	pop	r16
    365a:	08 95       	ret

0000365c <__ultoa_invert>:
    365c:	fa 01       	movw	r30, r20
    365e:	aa 27       	eor	r26, r26
    3660:	28 30       	cpi	r18, 0x08	; 8
    3662:	51 f1       	breq	.+84     	; 0x36b8 <__ultoa_invert+0x5c>
    3664:	20 31       	cpi	r18, 0x10	; 16
    3666:	81 f1       	breq	.+96     	; 0x36c8 <__ultoa_invert+0x6c>
    3668:	e8 94       	clt
    366a:	6f 93       	push	r22
    366c:	6e 7f       	andi	r22, 0xFE	; 254
    366e:	6e 5f       	subi	r22, 0xFE	; 254
    3670:	7f 4f       	sbci	r23, 0xFF	; 255
    3672:	8f 4f       	sbci	r24, 0xFF	; 255
    3674:	9f 4f       	sbci	r25, 0xFF	; 255
    3676:	af 4f       	sbci	r26, 0xFF	; 255
    3678:	b1 e0       	ldi	r27, 0x01	; 1
    367a:	3e d0       	rcall	.+124    	; 0x36f8 <__ultoa_invert+0x9c>
    367c:	b4 e0       	ldi	r27, 0x04	; 4
    367e:	3c d0       	rcall	.+120    	; 0x36f8 <__ultoa_invert+0x9c>
    3680:	67 0f       	add	r22, r23
    3682:	78 1f       	adc	r23, r24
    3684:	89 1f       	adc	r24, r25
    3686:	9a 1f       	adc	r25, r26
    3688:	a1 1d       	adc	r26, r1
    368a:	68 0f       	add	r22, r24
    368c:	79 1f       	adc	r23, r25
    368e:	8a 1f       	adc	r24, r26
    3690:	91 1d       	adc	r25, r1
    3692:	a1 1d       	adc	r26, r1
    3694:	6a 0f       	add	r22, r26
    3696:	71 1d       	adc	r23, r1
    3698:	81 1d       	adc	r24, r1
    369a:	91 1d       	adc	r25, r1
    369c:	a1 1d       	adc	r26, r1
    369e:	20 d0       	rcall	.+64     	; 0x36e0 <__ultoa_invert+0x84>
    36a0:	09 f4       	brne	.+2      	; 0x36a4 <__ultoa_invert+0x48>
    36a2:	68 94       	set
    36a4:	3f 91       	pop	r19
    36a6:	2a e0       	ldi	r18, 0x0A	; 10
    36a8:	26 9f       	mul	r18, r22
    36aa:	11 24       	eor	r1, r1
    36ac:	30 19       	sub	r19, r0
    36ae:	30 5d       	subi	r19, 0xD0	; 208
    36b0:	31 93       	st	Z+, r19
    36b2:	de f6       	brtc	.-74     	; 0x366a <__ultoa_invert+0xe>
    36b4:	cf 01       	movw	r24, r30
    36b6:	08 95       	ret
    36b8:	46 2f       	mov	r20, r22
    36ba:	47 70       	andi	r20, 0x07	; 7
    36bc:	40 5d       	subi	r20, 0xD0	; 208
    36be:	41 93       	st	Z+, r20
    36c0:	b3 e0       	ldi	r27, 0x03	; 3
    36c2:	0f d0       	rcall	.+30     	; 0x36e2 <__ultoa_invert+0x86>
    36c4:	c9 f7       	brne	.-14     	; 0x36b8 <__ultoa_invert+0x5c>
    36c6:	f6 cf       	rjmp	.-20     	; 0x36b4 <__ultoa_invert+0x58>
    36c8:	46 2f       	mov	r20, r22
    36ca:	4f 70       	andi	r20, 0x0F	; 15
    36cc:	40 5d       	subi	r20, 0xD0	; 208
    36ce:	4a 33       	cpi	r20, 0x3A	; 58
    36d0:	18 f0       	brcs	.+6      	; 0x36d8 <__ultoa_invert+0x7c>
    36d2:	49 5d       	subi	r20, 0xD9	; 217
    36d4:	31 fd       	sbrc	r19, 1
    36d6:	40 52       	subi	r20, 0x20	; 32
    36d8:	41 93       	st	Z+, r20
    36da:	02 d0       	rcall	.+4      	; 0x36e0 <__ultoa_invert+0x84>
    36dc:	a9 f7       	brne	.-22     	; 0x36c8 <__ultoa_invert+0x6c>
    36de:	ea cf       	rjmp	.-44     	; 0x36b4 <__ultoa_invert+0x58>
    36e0:	b4 e0       	ldi	r27, 0x04	; 4
    36e2:	a6 95       	lsr	r26
    36e4:	97 95       	ror	r25
    36e6:	87 95       	ror	r24
    36e8:	77 95       	ror	r23
    36ea:	67 95       	ror	r22
    36ec:	ba 95       	dec	r27
    36ee:	c9 f7       	brne	.-14     	; 0x36e2 <__ultoa_invert+0x86>
    36f0:	00 97       	sbiw	r24, 0x00	; 0
    36f2:	61 05       	cpc	r22, r1
    36f4:	71 05       	cpc	r23, r1
    36f6:	08 95       	ret
    36f8:	9b 01       	movw	r18, r22
    36fa:	ac 01       	movw	r20, r24
    36fc:	0a 2e       	mov	r0, r26
    36fe:	06 94       	lsr	r0
    3700:	57 95       	ror	r21
    3702:	47 95       	ror	r20
    3704:	37 95       	ror	r19
    3706:	27 95       	ror	r18
    3708:	ba 95       	dec	r27
    370a:	c9 f7       	brne	.-14     	; 0x36fe <__ultoa_invert+0xa2>
    370c:	62 0f       	add	r22, r18
    370e:	73 1f       	adc	r23, r19
    3710:	84 1f       	adc	r24, r20
    3712:	95 1f       	adc	r25, r21
    3714:	a0 1d       	adc	r26, r0
    3716:	08 95       	ret

00003718 <__ctype_isfalse>:
    3718:	99 27       	eor	r25, r25
    371a:	88 27       	eor	r24, r24

0000371c <__ctype_istrue>:
    371c:	08 95       	ret

0000371e <__prologue_saves__>:
    371e:	2f 92       	push	r2
    3720:	3f 92       	push	r3
    3722:	4f 92       	push	r4
    3724:	5f 92       	push	r5
    3726:	6f 92       	push	r6
    3728:	7f 92       	push	r7
    372a:	8f 92       	push	r8
    372c:	9f 92       	push	r9
    372e:	af 92       	push	r10
    3730:	bf 92       	push	r11
    3732:	cf 92       	push	r12
    3734:	df 92       	push	r13
    3736:	ef 92       	push	r14
    3738:	ff 92       	push	r15
    373a:	0f 93       	push	r16
    373c:	1f 93       	push	r17
    373e:	cf 93       	push	r28
    3740:	df 93       	push	r29
    3742:	cd b7       	in	r28, 0x3d	; 61
    3744:	de b7       	in	r29, 0x3e	; 62
    3746:	ca 1b       	sub	r28, r26
    3748:	db 0b       	sbc	r29, r27
    374a:	0f b6       	in	r0, 0x3f	; 63
    374c:	f8 94       	cli
    374e:	de bf       	out	0x3e, r29	; 62
    3750:	0f be       	out	0x3f, r0	; 63
    3752:	cd bf       	out	0x3d, r28	; 61
    3754:	09 94       	ijmp

00003756 <__epilogue_restores__>:
    3756:	2a 88       	ldd	r2, Y+18	; 0x12
    3758:	39 88       	ldd	r3, Y+17	; 0x11
    375a:	48 88       	ldd	r4, Y+16	; 0x10
    375c:	5f 84       	ldd	r5, Y+15	; 0x0f
    375e:	6e 84       	ldd	r6, Y+14	; 0x0e
    3760:	7d 84       	ldd	r7, Y+13	; 0x0d
    3762:	8c 84       	ldd	r8, Y+12	; 0x0c
    3764:	9b 84       	ldd	r9, Y+11	; 0x0b
    3766:	aa 84       	ldd	r10, Y+10	; 0x0a
    3768:	b9 84       	ldd	r11, Y+9	; 0x09
    376a:	c8 84       	ldd	r12, Y+8	; 0x08
    376c:	df 80       	ldd	r13, Y+7	; 0x07
    376e:	ee 80       	ldd	r14, Y+6	; 0x06
    3770:	fd 80       	ldd	r15, Y+5	; 0x05
    3772:	0c 81       	ldd	r16, Y+4	; 0x04
    3774:	1b 81       	ldd	r17, Y+3	; 0x03
    3776:	aa 81       	ldd	r26, Y+2	; 0x02
    3778:	b9 81       	ldd	r27, Y+1	; 0x01
    377a:	ce 0f       	add	r28, r30
    377c:	d1 1d       	adc	r29, r1
    377e:	0f b6       	in	r0, 0x3f	; 63
    3780:	f8 94       	cli
    3782:	de bf       	out	0x3e, r29	; 62
    3784:	0f be       	out	0x3f, r0	; 63
    3786:	cd bf       	out	0x3d, r28	; 61
    3788:	ed 01       	movw	r28, r26
    378a:	08 95       	ret

0000378c <_exit>:
    378c:	f8 94       	cli

0000378e <__stop_program>:
    378e:	ff cf       	rjmp	.-2      	; 0x378e <__stop_program>
