
LCD Shield.elf:     file format elf32-avr

Sections:
Idx Name          Size      VMA       LMA       File off  Algn
  0 .data         00000024  00800100  00004684  00004738  2**0
                  CONTENTS, ALLOC, LOAD, DATA
  1 .text         00004684  00000000  00000000  000000b4  2**1
                  CONTENTS, ALLOC, LOAD, READONLY, CODE
  2 .bss          00000404  00800124  00800124  0000475c  2**0
                  ALLOC
  3 .eeprom       0000000a  00810000  00810000  0000475c  2**0
                  CONTENTS, ALLOC, LOAD, DATA
  4 .comment      0000005c  00000000  00000000  00004766  2**0
                  CONTENTS, READONLY
  5 .note.gnu.avr.deviceinfo 00000040  00000000  00000000  000047c4  2**2
                  CONTENTS, READONLY
  6 .debug_aranges 00000680  00000000  00000000  00004808  2**3
                  CONTENTS, READONLY, DEBUGGING
  7 .debug_info   0000a0bc  00000000  00000000  00004e88  2**0
                  CONTENTS, READONLY, DEBUGGING
  8 .debug_abbrev 000029a8  00000000  00000000  0000ef44  2**0
                  CONTENTS, READONLY, DEBUGGING
  9 .debug_line   00004221  00000000  00000000  000118ec  2**0
                  CONTENTS, READONLY, DEBUGGING
 10 .debug_frame  00001214  00000000  00000000  00015b10  2**2
                  CONTENTS, READONLY, DEBUGGING
 11 .debug_str    0000165e  00000000  00000000  00016d24  2**0
                  CONTENTS, READONLY, DEBUGGING
 12 .debug_loc    000049ac  00000000  00000000  00018382  2**0
                  CONTENTS, READONLY, DEBUGGING
 13 .debug_ranges 000005f8  00000000  00000000  0001cd2e  2**0
                  CONTENTS, READONLY, DEBUGGING

Disassembly of section .text:

00000000 <__vectors>:
       0:	0c 94 b0 04 	jmp	0x960	; 0x960 <__ctors_end>
       4:	0c 94 51 11 	jmp	0x22a2	; 0x22a2 <__vector_1>
       8:	0c 94 7d 11 	jmp	0x22fa	; 0x22fa <__vector_2>
       c:	0c 94 cd 04 	jmp	0x99a	; 0x99a <__bad_interrupt>
      10:	0c 94 cd 04 	jmp	0x99a	; 0x99a <__bad_interrupt>
      14:	0c 94 cd 04 	jmp	0x99a	; 0x99a <__bad_interrupt>
      18:	0c 94 cd 04 	jmp	0x99a	; 0x99a <__bad_interrupt>
      1c:	0c 94 cd 04 	jmp	0x99a	; 0x99a <__bad_interrupt>
      20:	0c 94 cd 04 	jmp	0x99a	; 0x99a <__bad_interrupt>
      24:	0c 94 cd 04 	jmp	0x99a	; 0x99a <__bad_interrupt>
      28:	0c 94 cd 04 	jmp	0x99a	; 0x99a <__bad_interrupt>
      2c:	0c 94 cd 04 	jmp	0x99a	; 0x99a <__bad_interrupt>
      30:	0c 94 cd 04 	jmp	0x99a	; 0x99a <__bad_interrupt>
      34:	0c 94 cd 04 	jmp	0x99a	; 0x99a <__bad_interrupt>
      38:	0c 94 cd 04 	jmp	0x99a	; 0x99a <__bad_interrupt>
      3c:	0c 94 cd 04 	jmp	0x99a	; 0x99a <__bad_interrupt>
      40:	0c 94 cc 16 	jmp	0x2d98	; 0x2d98 <__vector_16>
      44:	0c 94 cd 04 	jmp	0x99a	; 0x99a <__bad_interrupt>
      48:	0c 94 cd 04 	jmp	0x99a	; 0x99a <__bad_interrupt>
      4c:	0c 94 cd 04 	jmp	0x99a	; 0x99a <__bad_interrupt>
      50:	0c 94 57 18 	jmp	0x30ae	; 0x30ae <__vector_20>
      54:	0c 94 85 18 	jmp	0x310a	; 0x310a <__vector_21>
      58:	0c 94 cd 04 	jmp	0x99a	; 0x99a <__bad_interrupt>
      5c:	0c 94 cd 04 	jmp	0x99a	; 0x99a <__bad_interrupt>
      60:	0c 94 cd 04 	jmp	0x99a	; 0x99a <__bad_interrupt>
      64:	0c 94 cd 04 	jmp	0x99a	; 0x99a <__bad_interrupt>
      68:	0c 94 cd 04 	jmp	0x99a	; 0x99a <__bad_interrupt>
      6c:	0c 94 cd 04 	jmp	0x99a	; 0x99a <__bad_interrupt>
      70:	0c 94 1c 19 	jmp	0x3238	; 0x3238 <__vector_28>
      74:	0c 94 4a 19 	jmp	0x3294	; 0x3294 <__vector_29>
      78:	0c 94 cd 04 	jmp	0x99a	; 0x99a <__bad_interrupt>

0000007c <__trampolines_end>:
      7c:	6e 61       	ori	r22, 0x1E	; 30
      7e:	6e 00       	.word	0x006e	; ????

00000080 <__c.2332>:
      80:	69 6e 66 00 00 40 7a 10 f3 5a 00 a0 72 4e 18 09     inf..@z..Z..rN..
      90:	00 10 a5 d4 e8 00 00 e8 76 48 17 00 00 e4 0b 54     ........vH.....T
      a0:	02 00 00 ca 9a 3b 00 00 00 e1 f5 05 00 00 80 96     .....;..........
      b0:	98 00 00 00 40 42 0f 00 00 00 a0 86 01 00 00 00     ....@B..........
      c0:	10 27 00 00 00 00 e8 03 00 00 00 00 64 00 00 00     .'..........d...
      d0:	00 00 0a 00 00 00 00 00 01 00 00 00 00 00 2c 76     ..............,v
      e0:	d8 88 dc 67 4f 08 23 df c1 df ae 59 e1 b1 b7 96     ...gO.#....Y....
      f0:	e5 e3 e4 53 c6 3a e6 51 99 76 96 e8 e6 c2 84 26     ...S.:.Q.v.....&
     100:	eb 89 8c 9b 62 ed 40 7c 6f fc ef bc 9c 9f 40 f2     ....b.@|o.....@.
     110:	ba a5 6f a5 f4 90 05 5a 2a f7 5c 93 6b 6c f9 67     ..o....Z*.\.kl.g
     120:	6d c1 1b fc e0 e4 0d 47 fe f5 20 e6 b5 00 d0 ed     m......G.. .....
     130:	90 2e 03 00 94 35 77 05 00 80 84 1e 08 00 00 20     .....5w........ 
     140:	4e 0a 00 00 00 c8 0c 33 33 33 33 0f 98 6e 12 83     N......3333..n..
     150:	11 41 ef 8d 21 14 89 3b e6 55 16 cf fe e6 db 18     .A..!..;.U......
     160:	d1 84 4b 38 1b f7 7c 1d 90 1d a4 bb e4 24 20 32     ..K8..|......$ 2
     170:	84 72 5e 22 81 00 c9 f1 24 ec a1 e5 3d 27           .r^"....$...='

0000017e <pstr_nan>:
     17e:	4e 41 4e                                            NAN

00000181 <pstr_inity>:
     181:	49 4e 49 54 59                                      INITY

00000186 <pstr_inf>:
     186:	49 4e 46                                            INF

00000189 <pwr_m10>:
     189:	cd cc cc 3d 0a d7 23 3c 17 b7 d1 38 77 cc 2b 32     ...=..#<...8w.+2
     199:	95 95 e6 24 1f b1 4f 0a                             ...$..O.

000001a1 <pwr_p10>:
     1a1:	00 00 20 41 00 00 c8 42 00 40 1c 46 20 bc be 4c     .. A...B.@.F ..L
     1b1:	ca 1b 0e 5a ae c5 9d 74                             ...Z...t

000001b9 <__c.2613>:
     1b9:	52 20 20 25 33 69 00                                R  %3i.

000001c0 <__c.2611>:
     1c0:	4c 20 20 25 33 69 00                                L  %3i.

000001c7 <__c.2609>:
     1c7:	4d 54 5f 50 57 4d 00                                MT_PWM.

000001ce <__c.2607>:
     1ce:	52 20 25 34 69 00                                   R %4i.

000001d4 <__c.2605>:
     1d4:	4c 20 25 34 69 00                                   L %4i.

000001da <__c.2603>:
     1da:	52 20 25 34 69 3a 25 31 69 00                       R %4i:%1i.

000001e4 <__c.2601>:
     1e4:	52 43 25 34 69 3a 25 31 69 00                       RC%4i:%1i.

000001ee <__c.2599>:
     1ee:	43 20 25 34 69 3a 25 31 69 00                       C %4i:%1i.

000001f8 <__c.2597>:
     1f8:	4c 43 25 34 69 3a 25 31 69 00                       LC%4i:%1i.

00000202 <__c.2595>:
     202:	4c 20 25 34 69 3a 25 31 69 00                       L %4i:%1i.

0000020c <__c.2593>:
     20c:	2a 4c 49 4e 45 41 3a 44 20 45 4e 43 20 2a 00        *LINEA:D ENC *.

0000021b <__c.2587>:
     21b:	4c 49 4e 45 3a 25 69 00                             LINE:%i.

00000223 <__c.2585>:
     223:	45 52 52 3a 20 25 69 00                             ERR: %i.

0000022b <__c.2583>:
     22b:	45 6e 63 3a 20 25 69 00                             Enc: %i.

00000233 <__c.2581>:
     233:	42 4c 54 48 3a 25 69 00                             BLTH:%i.

0000023b <__c.2579>:
     23b:	42 4c 45 44 3a 25 69 00                             BLED:%i.

00000243 <__c.2577>:
     243:	50 6f 77 3a 20 25 69 00                             Pow: %i.

0000024b <__c.2575>:
     24b:	54 49 4d 45 3a 20 25 32 69 6d 20 25 32 69 73 00     TIME: %2im %2is.

0000025b <__c.2573>:
     25b:	42 41 54 54 3a 20 25 33 69 25 25 00                 BATT: %3i%%.

00000267 <__c.2571>:
     267:	2a 53 59 53 54 45 4d 20 53 41 54 55 53 2a 00        *SYSTEM SATUS*.

00000276 <__c.2769>:
     276:	0a 53 65 74 20 53 70 65 65 64 3a 00                 .Set Speed:.

00000282 <__c.2766>:
     282:	0a 42 6f 74 20 53 74 61 72 74 2e 00                 .Bot Start..

0000028e <__c.2764>:
     28e:	0a 42 6f 74 20 53 74 6f 70 2e 00                    .Bot Stop..

00000299 <__c.2754>:
     299:	41 6b 6b 75 3a 25 69 00                             Akku:%i.

000002a1 <__c.2752>:
     2a1:	50 49 44 2d 4f 75 74 3a 25 69 00                    PID-Out:%i.

000002ac <__c.2750>:
     2ac:	4c 69 6e 65 2d 52 65 66 3a 25 69 00                 Line-Ref:%i.

000002b8 <__c.2748>:
     2b8:	4d 6f 74 6f 72 20 4c 65 66 74 3a 25 69 20 52 69     Motor Left:%i Ri
     2c8:	67 68 74 3a 25 69 00                                ght:%i.

000002cf <__c.2746>:
     2cf:	0a 4c 69 6e 65 20 69 73 20 6c 6f 73 74 21 0a 42     .Line is lost!.B
     2df:	6f 74 20 73 74 6f 70 70 65 64 2e 0a 00              ot stopped...

000002ec <__c.2732>:
     2ec:	0a 52 65 67 65 6c 70 61 72 61 6d 65 74 65 72 20     .Regelparameter 
     2fc:	75 65 62 65 72 6e 6f 6d 6d 65 6e 2e 00              uebernommen..

00000309 <__c.2730>:
     309:	0a 53 65 74 20 4b 44 3a 20 00                       .Set KD: .

00000313 <__c.2728>:
     313:	0a 53 65 74 20 4b 49 3a 20 00                       .Set KI: .

0000031d <__c.2726>:
     31d:	0a 53 65 74 20 4b 50 3a 20 00                       .Set KP: .

00000327 <__c.2724>:
     327:	0a 50 49 44 2d 52 65 67 6c 65 72 70 61 72 61 6d     .PID-Reglerparam
     337:	65 74 65 72 20 65 69 6e 73 74 65 6c 6c 65 6e 2e     eter einstellen.
	...

00000348 <__c.2708>:
     348:	0a 42 61 74 74 65 72 79 3a 20 00                    .Battery: .

00000353 <__c.2706>:
     353:	0a 53 70 65 65 64 3a 00                             .Speed:.

0000035b <__c.2704>:
     35b:	0a 4b 44 3a 00                                      .KD:.

00000360 <__c.2702>:
     360:	0a 4b 49 3a 00                                      .KI:.

00000365 <__c.2700>:
     365:	0a 4b 50 3a 20 00                                   .KP: .

0000036b <__c.2698>:
     36b:	0a 43 75 72 72 65 6e 74 20 76 61 6c 75 65 73 00     .Current values.

0000037b <__c.2696>:
     37b:	0a 27 74 27 20 2d 20 53 65 28 74 29 20 53 70 65     .'t' - Se(t) Spe
     38b:	65 64 00                                            ed.

0000038e <__c.2694>:
     38e:	0a 27 67 27 20 2d 20 28 47 29 6f 20 44 72 69 76     .'g' - (G)o Driv
     39e:	65 00                                               e.

000003a0 <__c.2692>:
     3a0:	0a 27 73 27 20 2d 20 28 53 29 74 6f 70 20 52 6f     .'s' - (S)top Ro
     3b0:	62 6f 74 00                                         bot.

000003b4 <__c.2690>:
     3b4:	0a 27 70 27 20 2d 20 53 65 74 20 28 50 29 61 72     .'p' - Set (P)ar
     3c4:	61 6d 65 74 65 72 2e 00                             ameter..

000003cc <__c.2688>:
     3cc:	0a 0a 50 72 6f 67 72 61 6d 6d 20 50 49 44 2d 52     ..Programm PID-R
     3dc:	65 67 6c 65 72 20 4c 69 6e 69 65 6e 66 6f 6c 67     egler Linienfolg
     3ec:	65 72 2e 00                                         er..

000003f0 <line_menu>:
     3f0:	24 04 00 00 1d 04 5f 0a 0e 04 5e 0a 00 04 79 0a     $....._...^...y.

00000400 <menu_string34>:
     400:	3e 42 61 63 6b 20 74 6f 20 4d 61 69 6e 00           >Back to Main.

0000040e <menu_string33>:
     40e:	3e 43 6f 6e 66 69 67 20 50 61 72 61 6d 2e 00        >Config Param..

0000041d <menu_string32>:
     41d:	3e 53 74 61 72 74 00                                >Start.

00000424 <menu_string31>:
     424:	2a 50 49 44 20 4c 69 6e 65 20 46 6f 6c 2a 00        *PID Line Fol*.

00000433 <menu>:
     433:	b2 04 00 00 a4 04 0c 0c 98 04 19 0c 8a 04 3d 0c     ..............=.
     443:	7c 04 7d 0b 6e 04 7e 0b 61 04 7f 0b 53 04 80 0b     |.}.n.~.a...S...

00000453 <menu_string08>:
     453:	3e 54 65 73 74 20 50 72 6f 67 72 61 6d 00           >Test Program.

00000461 <menu_string07>:
     461:	3e 43 6f 6e 66 69 67 20 53 79 73 2e 00              >Config Sys..

0000046e <menu_string06>:
     46e:	3e 4d 61 7a 65 20 53 6f 6c 76 2e 49 49 00           >Maze Solv.II.

0000047c <menu_string05>:
     47c:	3e 4d 61 7a 65 20 53 6f 6c 76 2e 20 49 00           >Maze Solv. I.

0000048a <menu_string04>:
     48a:	3e 4c 69 6e 65 20 46 6f 6c 6c 77 65 72 00           >Line Follwer.

00000498 <menu_string03>:
     498:	3e 53 6f 75 6e 64 20 54 65 73 74 00                 >Sound Test.

000004a4 <menu_string02>:
     4a4:	3e 52 65 6d 6f 74 65 20 43 6f 6e 74 2e 00           >Remote Cont..

000004b2 <menu_string01>:
     4b2:	2a 53 70 65 65 64 79 42 6f 74 56 32 2a 00           *SpeedyBotV2*.

000004c0 <__c.2597>:
     4c0:	2a 45 58 49 54 2a 00                                *EXIT*.

000004c7 <CHARSET>:
     4c7:	00 00 00 00 00 00 00 5f 00 00 00 07 00 07 00 14     ......._........
     4d7:	7f 14 7f 14 24 2a 7f 2a 12 23 13 08 64 62 36 49     ....$*.*.#..db6I
     4e7:	55 22 50 00 05 03 00 00 00 1c 22 41 00 00 41 22     U"P......."A..A"
     4f7:	1c 00 14 08 3e 08 14 08 08 3e 08 08 00 50 30 00     ....>....>...P0.
     507:	00 08 08 08 08 08 00 60 60 00 00 20 10 08 04 02     .......``.. ....
     517:	3e 51 49 45 3e 00 42 7f 40 00 42 61 51 49 46 21     >QIE>.B.@.BaQIF!
     527:	41 45 4b 31 18 14 12 7f 10 27 45 45 45 39 3c 4a     AEK1.....'EEE9<J
     537:	49 49 30 01 71 09 05 03 36 49 49 49 36 06 49 49     II0.q...6III6.II
     547:	29 1e 00 36 36 00 00 00 56 36 00 00 08 14 22 41     )..66...V6...."A
     557:	00 14 14 14 14 14 00 41 22 14 08 02 01 51 09 06     .......A"....Q..
     567:	32 49 79 41 3e 7e 11 11 11 7e 7f 49 49 49 36 3e     2IyA>~...~.III6>
     577:	41 41 41 22 7f 41 41 22 1c 7f 49 49 49 41 7f 09     AAA".AA"..IIIA..
     587:	09 09 01 3e 41 49 49 7a 7f 08 08 08 7f 00 41 7f     ...>AIIz......A.
     597:	41 00 20 40 41 3f 01 7f 08 14 22 41 7f 40 40 40     A. @A?...."A.@@@
     5a7:	40 7f 02 0c 02 7f 7f 04 08 10 7f 3e 41 41 41 3e     @..........>AAA>
     5b7:	7f 09 09 09 06 3e 41 51 21 5e 7f 09 19 29 46 46     .....>AQ!^...)FF
     5c7:	49 49 49 31 01 01 7f 01 01 3f 40 40 40 3f 1f 20     III1.....?@@@?. 
     5d7:	40 20 1f 3f 40 38 40 3f 63 14 08 14 63 07 08 70     @ .?@8@?c...c..p
     5e7:	08 07 61 51 49 45 43 00 7f 41 41 00 02 04 08 10     ..aQIEC..AA.....
     5f7:	20 00 41 41 7f 00 04 02 01 02 04 40 40 40 40 40      .AA.......@@@@@
     607:	00 01 02 04 00 20 54 54 54 78 7f 48 44 44 38 38     ..... TTTx.HDD88
     617:	44 44 44 20 38 44 44 48 7f 38 54 54 54 18 08 7e     DDD 8DDH.8TTT..~
     627:	09 01 02 0c 52 52 52 3e 7f 08 04 04 78 00 44 7d     ....RRR>....x.D}
     637:	40 00 20 40 44 3d 00 7f 10 28 44 00 00 41 7f 40     @. @D=...(D..A.@
     647:	00 7c 04 18 04 78 7c 08 04 04 78 38 44 44 44 38     .|...x|...x8DDD8
     657:	7c 14 14 14 08 08 14 14 18 7c 7c 08 04 04 08 48     |........||....H
     667:	54 54 54 20 04 3f 44 40 20 3c 40 40 20 7c 1c 20     TTT .?D@ <@@ |. 
     677:	40 20 1c 3c 40 30 40 3c 44 28 10 28 44 0c 50 50     @ .<@0@<D(.(D.PP
     687:	50 3c 44 64 54 4c 44 00 08 36 41 00 00 00 7f 00     P<DdTLD..6A.....
     697:	00 00 41 36 08 00 10 08 08 10 08 00 00 00 00 00     ..A6............

000006a7 <sound_menu>:
     6a7:	35 07 00 00 29 07 6e 0f 21 07 73 0f 16 07 78 0f     5...).n.!.s...x.
     6b7:	09 07 7d 0f fe 06 82 0f f1 06 87 0f e9 06 8c 0f     ..}.............
     6c7:	dd 06 91 0f cf 06 96 0f                             ........

000006cf <menu_string20>:
     6cf:	3e 42 61 63 6b 20 74 6f 20 4d 61 69 6e 00           >Back to Main.

000006dd <menu_string19>:
     6dd:	3e 42 65 65 70 20 53 6f 75 6e 64 00                 >Beep Sound.

000006e9 <menu_string18>:
     6e9:	3e 50 61 63 6d 61 6e 00                             >Pacman.

000006f1 <menu_string17>:
     6f1:	3e 4d 61 72 69 6f 20 42 72 6f 74 2e 00              >Mario Brot..

000006fe <menu_string16>:
     6fe:	3e 4b 6e 69 67 68 74 20 52 2e 00                    >Knight R..

00000709 <menu_string15>:
     709:	3e 4d 6f 6e 6b 65 79 20 49 73 6c 2e 00              >Monkey Isl..

00000716 <menu_string14>:
     716:	3e 42 65 65 74 68 6f 76 65 6e 00                    >Beethoven.

00000721 <menu_string13>:
     721:	3e 54 65 74 72 69 73 00                             >Tetris.

00000729 <menu_string12>:
     729:	3e 49 6e 64 69 61 6e 61 20 4a 2e 00                 >Indiana J..

00000735 <menu_string11>:
     735:	2a 53 6f 75 6e 64 20 54 65 73 74 2a 00              *Sound Test*.

00000742 <error_str>:
     742:	2d 45 52 52 4f 52 2d 20 00                          -ERROR- .

0000074b <debug_str>:
     74b:	2d 44 45 42 55 47 2d 20 00                          -DEBUG- .

00000754 <monkey_theme>:
     754:	f1 b4 65 6f 65 68 67 65 43 25 6f 63 6f 63 61 6e     ..eoehgeC%ococan
     764:	0c 63 61 6f 61 6f 4e 0c 4f 65 6f 55 68 67 65 43     .caoaoN.OeoUhgeC
     774:	25 6f 67 68 6f 68 6f 4a 4f 47 6f 68 67 65 63 67     %oghohoJOGohgecg
     784:	68 6f 68 6f 47 00                                   hohoG.

0000078a <knightraider>:
     78a:	f0 3f 85 a6 a5 6c 8e 15 ae 16 ae 15 6c 85 a6 a5     .?...l......l...
     79a:	8c 8e 15 4e 13 6f 00                                ...N.o.

000007a1 <mario>:
     7a1:	f1 64 85 85 af 65 81 65 68 6f 6e 08 6f 61 8f 6e     .d...e.ehon.oa.n
     7b1:	08 8f 6e 05 8f 6e 0a 6e 0c 8e 0b 6e 0a 9e 08 85     ..n..n.n...n....
     7c1:	88 6a 86 68 65 81 83 6e 0c 8f 61 8f 6e 08 8f 6e     .j.he..n..a.n..n
     7d1:	05 8f 6e 0a 6e 0c 8e 0b 6e 0a 9e 08 85 88 6a 86     ..n.n...n.....j.
     7e1:	68 65 81 83 6e 0c 6f 88 87 86 84 8f 85 8f 8e 09     he..n.o.........
     7f1:	8e 0a 81 8f 8e 0a 81 83 6f 88 87 86 84 8f 85 8f     ........o.......
     801:	8e 21 8f 8e 21 8e 21 4f 88 87 86 84 8f 85 8f 8e     .!..!.!O........
     811:	09 8e 0a 81 8f 8e 0a 81 83 6f 84 6f 83 6f 81 00     .........o.o.o..

00000821 <indiaJones>:
     821:	f0 7d 45 86 68 2e 11 43 85 06 48 8a 6c 2e 16 4a     .}E.h..C..H.l..J
     831:	8c 4e 11 4e 13 4e 15 45 86 68 0e 11 4e 13 8e 15     .N.N.N.E.h..N...
     841:	2e 16 48 88 4e 15 4e 13 88 4e 15 4e 13 88 4e 16     ..H.N.N..N.N..N.
     851:	4e 15 8e 13 2e 11 00                                N......

00000858 <pacman1>:
     858:	f1 70 ae 0c af ac af a7 af a4 af ac a7 8f 84 8f     .p..............
     868:	a1 af ae 21 af a8 af a5 af ae 21 a8 8f 85 8f ae     ...!......!.....
     878:	0c af ac af a7 af a4 af ac a7 8f 84 8f a4 a5 a6     ................
     888:	af a6 a7 a8 af a8 a9 aa af bc 00                    ...........

00000893 <tetris1>:
     893:	f1 a0 45 6e 0c 61 63 85 83 61 6e 0c 4e 0a 6e 0a     ..En.ac..an.N.n.
     8a3:	61 45 63 61 4e 0c 6e 0c 61 43 45 41 4e 0a 2e 0a     aEcaN.n.aCEAN...
     8b3:	6f 43 66 4a 68 66 45 65 61 45 63 61 4e 0c 6e 0c     oCfJhfEeaEcaN.n.
     8c3:	61 43 45 41 4e 0a 4e 0a 00                          aCEAN.N..

000008cc <beethoven>:
     8cc:	f0 c4 68 68 68 24 6f 66 66 66 23 6f 68 68 68 64     ..hhh$offf#ohhhd
     8dc:	69 69 69 68 6e 14 6e 14 6e 14 2e 11 6f 66 66 66     iiihn.n.n...offf
     8ec:	63 69 69 69 68 6e 16 6e 16 6e 16 2e 13 6f 6e 18     ciiihn.n.n...on.
     8fc:	6e 18 6e 16 2e 14 6e 11 6e 18 6e 18 6e 16 2e 14     n.n...n.n.n.n...
     90c:	6e 11 6e 18 6e 18 6e 16 2e 14 2e 11 2e 18 00        n.n.n.n........

0000091b <beep>:
     91b:	f1 fa 66 61 66 00                                   ..faf.

00000921 <frequencies>:
     921:	76 70 69 63 5e 58 53 4f 4a 46 42 3e 3b 37 34 31     vpic^XSOJFB>;741
     931:	2e 2c 29 27 25 23 21 1f 1d 1b 1a 18 17 15 14 13     .,)'%#!.........
     941:	12 11 10 0f 0e 0d 0c 0c 0b 0a 0a 09 08 08 07 07     ................

00000951 <__c.2707>:
     951:	4c 6f 77 20 42 61 74 74 65 72 79 3a 25 69 00        Low Battery:%i.

00000960 <__ctors_end>:
     960:	11 24       	eor	r1, r1
     962:	1f be       	out	0x3f, r1	; 63
     964:	cf ef       	ldi	r28, 0xFF	; 255
     966:	d0 e1       	ldi	r29, 0x10	; 16
     968:	de bf       	out	0x3e, r29	; 62
     96a:	cd bf       	out	0x3d, r28	; 61

0000096c <__do_copy_data>:
     96c:	11 e0       	ldi	r17, 0x01	; 1
     96e:	a0 e0       	ldi	r26, 0x00	; 0
     970:	b1 e0       	ldi	r27, 0x01	; 1
     972:	e4 e8       	ldi	r30, 0x84	; 132
     974:	f6 e4       	ldi	r31, 0x46	; 70
     976:	02 c0       	rjmp	.+4      	; 0x97c <__do_copy_data+0x10>
     978:	05 90       	lpm	r0, Z+
     97a:	0d 92       	st	X+, r0
     97c:	a4 32       	cpi	r26, 0x24	; 36
     97e:	b1 07       	cpc	r27, r17
     980:	d9 f7       	brne	.-10     	; 0x978 <__do_copy_data+0xc>

00000982 <__do_clear_bss>:
     982:	25 e0       	ldi	r18, 0x05	; 5
     984:	a4 e2       	ldi	r26, 0x24	; 36
     986:	b1 e0       	ldi	r27, 0x01	; 1
     988:	01 c0       	rjmp	.+2      	; 0x98c <.do_clear_bss_start>

0000098a <.do_clear_bss_loop>:
     98a:	1d 92       	st	X+, r1

0000098c <.do_clear_bss_start>:
     98c:	a8 32       	cpi	r26, 0x28	; 40
     98e:	b2 07       	cpc	r27, r18
     990:	e1 f7       	brne	.-8      	; 0x98a <.do_clear_bss_loop>
     992:	0e 94 5a 0d 	call	0x1ab4	; 0x1ab4 <main>
     996:	0c 94 40 23 	jmp	0x4680	; 0x4680 <_exit>

0000099a <__bad_interrupt>:
     99a:	0c 94 00 00 	jmp	0	; 0x0 <__vectors>

0000099e <readSwitch>:
     99e:	81 e7       	ldi	r24, 0x71	; 113
     9a0:	0e 94 e2 17 	call	0x2fc4	; 0x2fc4 <i2c_start>
     9a4:	0e 94 4c 18 	call	0x3098	; 0x3098 <i2c_readNak>
     9a8:	80 93 7c 04 	sts	0x047C, r24	; 0x80047c <PCF8574_data>
     9ac:	0e 94 31 18 	call	0x3062	; 0x3062 <i2c_stop>
     9b0:	08 95       	ret

000009b2 <dispStatus>:
     9b2:	ef 92       	push	r14
     9b4:	ff 92       	push	r15
     9b6:	0f 93       	push	r16
     9b8:	1f 93       	push	r17
     9ba:	cf 93       	push	r28
     9bc:	df 93       	push	r29
     9be:	cd b7       	in	r28, 0x3d	; 61
     9c0:	de b7       	in	r29, 0x3e	; 62
     9c2:	64 97       	sbiw	r28, 0x14	; 20
     9c4:	0f b6       	in	r0, 0x3f	; 63
     9c6:	f8 94       	cli
     9c8:	de bf       	out	0x3e, r29	; 62
     9ca:	0f be       	out	0x3f, r0	; 63
     9cc:	cd bf       	out	0x3d, r28	; 61
     9ce:	0e 94 bd 0d 	call	0x1b7a	; 0x1b7a <lcd_clear>
     9d2:	20 91 7e 04 	lds	r18, 0x047E	; 0x80047e <systemStatus+0x1>
     9d6:	30 91 7f 04 	lds	r19, 0x047F	; 0x80047f <systemStatus+0x2>
     9da:	c9 01       	movw	r24, r18
     9dc:	a0 e0       	ldi	r26, 0x00	; 0
     9de:	b0 e0       	ldi	r27, 0x00	; 0
     9e0:	9c 01       	movw	r18, r24
     9e2:	ad 01       	movw	r20, r26
     9e4:	20 59       	subi	r18, 0x90	; 144
     9e6:	3a 41       	sbci	r19, 0x1A	; 26
     9e8:	41 09       	sbc	r20, r1
     9ea:	51 09       	sbc	r21, r1
     9ec:	a4 e6       	ldi	r26, 0x64	; 100
     9ee:	b0 e0       	ldi	r27, 0x00	; 0
     9f0:	0e 94 61 1d 	call	0x3ac2	; 0x3ac2 <__muluhisi3>
     9f4:	20 eb       	ldi	r18, 0xB0	; 176
     9f6:	34 e0       	ldi	r19, 0x04	; 4
     9f8:	40 e0       	ldi	r20, 0x00	; 0
     9fa:	50 e0       	ldi	r21, 0x00	; 0
     9fc:	0e 94 11 1d 	call	0x3a22	; 0x3a22 <__udivmodsi4>
     a00:	e2 2e       	mov	r14, r18
     a02:	f3 2e       	mov	r15, r19
     a04:	04 2f       	mov	r16, r20
     a06:	15 2f       	mov	r17, r21
     a08:	60 e0       	ldi	r22, 0x00	; 0
     a0a:	80 e0       	ldi	r24, 0x00	; 0
     a0c:	0e 94 25 0f 	call	0x1e4a	; 0x1e4a <lcd_set_cursor>
     a10:	40 e0       	ldi	r20, 0x00	; 0
     a12:	61 e0       	ldi	r22, 0x01	; 1
     a14:	87 e6       	ldi	r24, 0x67	; 103
     a16:	92 e0       	ldi	r25, 0x02	; 2
     a18:	0e 94 0b 0f 	call	0x1e16	; 0x1e16 <lcd_write_string_p>
     a1c:	68 e0       	ldi	r22, 0x08	; 8
     a1e:	80 e0       	ldi	r24, 0x00	; 0
     a20:	0e 94 25 0f 	call	0x1e4a	; 0x1e4a <lcd_set_cursor>
     a24:	8e 2d       	mov	r24, r14
     a26:	9f 2d       	mov	r25, r15
     a28:	a0 2f       	mov	r26, r16
     a2a:	b1 2f       	mov	r27, r17
     a2c:	85 36       	cpi	r24, 0x65	; 101
     a2e:	91 05       	cpc	r25, r1
     a30:	a1 05       	cpc	r26, r1
     a32:	b1 05       	cpc	r27, r1
     a34:	20 f0       	brcs	.+8      	; 0xa3e <dispStatus+0x8c>
     a36:	84 e6       	ldi	r24, 0x64	; 100
     a38:	90 e0       	ldi	r25, 0x00	; 0
     a3a:	a0 e0       	ldi	r26, 0x00	; 0
     a3c:	b0 e0       	ldi	r27, 0x00	; 0
     a3e:	9f 93       	push	r25
     a40:	8f 93       	push	r24
     a42:	8b e5       	ldi	r24, 0x5B	; 91
     a44:	92 e0       	ldi	r25, 0x02	; 2
     a46:	9f 93       	push	r25
     a48:	8f 93       	push	r24
     a4a:	8e 01       	movw	r16, r28
     a4c:	0f 5f       	subi	r16, 0xFF	; 255
     a4e:	1f 4f       	sbci	r17, 0xFF	; 255
     a50:	1f 93       	push	r17
     a52:	0f 93       	push	r16
     a54:	0e 94 5f 1f 	call	0x3ebe	; 0x3ebe <sprintf_P>
     a58:	41 e0       	ldi	r20, 0x01	; 1
     a5a:	61 e0       	ldi	r22, 0x01	; 1
     a5c:	c8 01       	movw	r24, r16
     a5e:	0e 94 f4 0e 	call	0x1de8	; 0x1de8 <lcd_write_string>
     a62:	60 e1       	ldi	r22, 0x10	; 16
     a64:	80 e0       	ldi	r24, 0x00	; 0
     a66:	0e 94 25 0f 	call	0x1e4a	; 0x1e4a <lcd_set_cursor>
     a6a:	0e 94 a5 15 	call	0x2b4a	; 0x2b4a <get_time_s>
     a6e:	7c 01       	movw	r14, r24
     a70:	0e 94 a5 15 	call	0x2b4a	; 0x2b4a <get_time_s>
     a74:	ac 01       	movw	r20, r24
     a76:	97 01       	movw	r18, r14
     a78:	a9 e8       	ldi	r26, 0x89	; 137
     a7a:	b8 e8       	ldi	r27, 0x88	; 136
     a7c:	0e 94 52 1d 	call	0x3aa4	; 0x3aa4 <__umulhisi3>
     a80:	96 95       	lsr	r25
     a82:	87 95       	ror	r24
     a84:	92 95       	swap	r25
     a86:	82 95       	swap	r24
     a88:	8f 70       	andi	r24, 0x0F	; 15
     a8a:	89 27       	eor	r24, r25
     a8c:	9f 70       	andi	r25, 0x0F	; 15
     a8e:	89 27       	eor	r24, r25
     a90:	6c e3       	ldi	r22, 0x3C	; 60
     a92:	68 9f       	mul	r22, r24
     a94:	90 01       	movw	r18, r0
     a96:	69 9f       	mul	r22, r25
     a98:	30 0d       	add	r19, r0
     a9a:	11 24       	eor	r1, r1
     a9c:	e2 1a       	sub	r14, r18
     a9e:	f3 0a       	sbc	r15, r19
     aa0:	ff 92       	push	r15
     aa2:	ef 92       	push	r14
     aa4:	9a 01       	movw	r18, r20
     aa6:	0e 94 52 1d 	call	0x3aa4	; 0x3aa4 <__umulhisi3>
     aaa:	96 95       	lsr	r25
     aac:	87 95       	ror	r24
     aae:	92 95       	swap	r25
     ab0:	82 95       	swap	r24
     ab2:	8f 70       	andi	r24, 0x0F	; 15
     ab4:	89 27       	eor	r24, r25
     ab6:	9f 70       	andi	r25, 0x0F	; 15
     ab8:	89 27       	eor	r24, r25
     aba:	9f 93       	push	r25
     abc:	8f 93       	push	r24
     abe:	8b e4       	ldi	r24, 0x4B	; 75
     ac0:	92 e0       	ldi	r25, 0x02	; 2
     ac2:	9f 93       	push	r25
     ac4:	8f 93       	push	r24
     ac6:	1f 93       	push	r17
     ac8:	0f 93       	push	r16
     aca:	0e 94 5f 1f 	call	0x3ebe	; 0x3ebe <sprintf_P>
     ace:	41 e0       	ldi	r20, 0x01	; 1
     ad0:	61 e0       	ldi	r22, 0x01	; 1
     ad2:	c8 01       	movw	r24, r16
     ad4:	0e 94 f4 0e 	call	0x1de8	; 0x1de8 <lcd_write_string>
     ad8:	44 e5       	ldi	r20, 0x54	; 84
     ada:	67 e1       	ldi	r22, 0x17	; 23
     adc:	80 e0       	ldi	r24, 0x00	; 0
     ade:	0e 94 2a 0f 	call	0x1e54	; 0x1e54 <lcd_drawHLine>
     ae2:	48 e1       	ldi	r20, 0x18	; 24
     ae4:	68 e1       	ldi	r22, 0x18	; 24
     ae6:	8a e2       	ldi	r24, 0x2A	; 42
     ae8:	0e 94 3f 0f 	call	0x1e7e	; 0x1e7e <lcd_drawVLine>
     aec:	68 e1       	ldi	r22, 0x18	; 24
     aee:	80 e0       	ldi	r24, 0x00	; 0
     af0:	0e 94 25 0f 	call	0x1e4a	; 0x1e4a <lcd_set_cursor>
     af4:	0f 2e       	mov	r0, r31
     af6:	fd e7       	ldi	r31, 0x7D	; 125
     af8:	ef 2e       	mov	r14, r31
     afa:	f4 e0       	ldi	r31, 0x04	; 4
     afc:	ff 2e       	mov	r15, r31
     afe:	f0 2d       	mov	r31, r0
     b00:	f7 01       	movw	r30, r14
     b02:	80 81       	ld	r24, Z
     b04:	81 70       	andi	r24, 0x01	; 1
     b06:	1f 92       	push	r1
     b08:	8f 93       	push	r24
     b0a:	83 e4       	ldi	r24, 0x43	; 67
     b0c:	92 e0       	ldi	r25, 0x02	; 2
     b0e:	9f 93       	push	r25
     b10:	8f 93       	push	r24
     b12:	1f 93       	push	r17
     b14:	0f 93       	push	r16
     b16:	0e 94 5f 1f 	call	0x3ebe	; 0x3ebe <sprintf_P>
     b1a:	41 e0       	ldi	r20, 0x01	; 1
     b1c:	61 e0       	ldi	r22, 0x01	; 1
     b1e:	c8 01       	movw	r24, r16
     b20:	0e 94 f4 0e 	call	0x1de8	; 0x1de8 <lcd_write_string>
     b24:	60 e2       	ldi	r22, 0x20	; 32
     b26:	80 e0       	ldi	r24, 0x00	; 0
     b28:	0e 94 25 0f 	call	0x1e4a	; 0x1e4a <lcd_set_cursor>
     b2c:	f7 01       	movw	r30, r14
     b2e:	80 81       	ld	r24, Z
     b30:	86 95       	lsr	r24
     b32:	81 70       	andi	r24, 0x01	; 1
     b34:	1f 92       	push	r1
     b36:	8f 93       	push	r24
     b38:	8b e3       	ldi	r24, 0x3B	; 59
     b3a:	92 e0       	ldi	r25, 0x02	; 2
     b3c:	9f 93       	push	r25
     b3e:	8f 93       	push	r24
     b40:	1f 93       	push	r17
     b42:	0f 93       	push	r16
     b44:	0e 94 5f 1f 	call	0x3ebe	; 0x3ebe <sprintf_P>
     b48:	41 e0       	ldi	r20, 0x01	; 1
     b4a:	61 e0       	ldi	r22, 0x01	; 1
     b4c:	c8 01       	movw	r24, r16
     b4e:	0e 94 f4 0e 	call	0x1de8	; 0x1de8 <lcd_write_string>
     b52:	68 e2       	ldi	r22, 0x28	; 40
     b54:	80 e0       	ldi	r24, 0x00	; 0
     b56:	0e 94 25 0f 	call	0x1e4a	; 0x1e4a <lcd_set_cursor>
     b5a:	f7 01       	movw	r30, r14
     b5c:	80 81       	ld	r24, Z
     b5e:	82 fb       	bst	r24, 2
     b60:	88 27       	eor	r24, r24
     b62:	80 f9       	bld	r24, 0
     b64:	1f 92       	push	r1
     b66:	8f 93       	push	r24
     b68:	83 e3       	ldi	r24, 0x33	; 51
     b6a:	92 e0       	ldi	r25, 0x02	; 2
     b6c:	9f 93       	push	r25
     b6e:	8f 93       	push	r24
     b70:	1f 93       	push	r17
     b72:	0f 93       	push	r16
     b74:	0e 94 5f 1f 	call	0x3ebe	; 0x3ebe <sprintf_P>
     b78:	0f b6       	in	r0, 0x3f	; 63
     b7a:	f8 94       	cli
     b7c:	de bf       	out	0x3e, r29	; 62
     b7e:	0f be       	out	0x3f, r0	; 63
     b80:	cd bf       	out	0x3d, r28	; 61
     b82:	41 e0       	ldi	r20, 0x01	; 1
     b84:	61 e0       	ldi	r22, 0x01	; 1
     b86:	c8 01       	movw	r24, r16
     b88:	0e 94 f4 0e 	call	0x1de8	; 0x1de8 <lcd_write_string>
     b8c:	68 e1       	ldi	r22, 0x18	; 24
     b8e:	80 e3       	ldi	r24, 0x30	; 48
     b90:	0e 94 25 0f 	call	0x1e4a	; 0x1e4a <lcd_set_cursor>
     b94:	f7 01       	movw	r30, r14
     b96:	80 81       	ld	r24, Z
     b98:	82 95       	swap	r24
     b9a:	81 70       	andi	r24, 0x01	; 1
     b9c:	1f 92       	push	r1
     b9e:	8f 93       	push	r24
     ba0:	8b e2       	ldi	r24, 0x2B	; 43
     ba2:	92 e0       	ldi	r25, 0x02	; 2
     ba4:	9f 93       	push	r25
     ba6:	8f 93       	push	r24
     ba8:	1f 93       	push	r17
     baa:	0f 93       	push	r16
     bac:	0e 94 5f 1f 	call	0x3ebe	; 0x3ebe <sprintf_P>
     bb0:	41 e0       	ldi	r20, 0x01	; 1
     bb2:	61 e0       	ldi	r22, 0x01	; 1
     bb4:	c8 01       	movw	r24, r16
     bb6:	0e 94 f4 0e 	call	0x1de8	; 0x1de8 <lcd_write_string>
     bba:	60 e2       	ldi	r22, 0x20	; 32
     bbc:	80 e3       	ldi	r24, 0x30	; 48
     bbe:	0e 94 25 0f 	call	0x1e4a	; 0x1e4a <lcd_set_cursor>
     bc2:	f7 01       	movw	r30, r14
     bc4:	80 81       	ld	r24, Z
     bc6:	85 fb       	bst	r24, 5
     bc8:	88 27       	eor	r24, r24
     bca:	80 f9       	bld	r24, 0
     bcc:	1f 92       	push	r1
     bce:	8f 93       	push	r24
     bd0:	83 e2       	ldi	r24, 0x23	; 35
     bd2:	92 e0       	ldi	r25, 0x02	; 2
     bd4:	9f 93       	push	r25
     bd6:	8f 93       	push	r24
     bd8:	1f 93       	push	r17
     bda:	0f 93       	push	r16
     bdc:	0e 94 5f 1f 	call	0x3ebe	; 0x3ebe <sprintf_P>
     be0:	41 e0       	ldi	r20, 0x01	; 1
     be2:	61 e0       	ldi	r22, 0x01	; 1
     be4:	c8 01       	movw	r24, r16
     be6:	0e 94 f4 0e 	call	0x1de8	; 0x1de8 <lcd_write_string>
     bea:	68 e2       	ldi	r22, 0x28	; 40
     bec:	80 e3       	ldi	r24, 0x30	; 48
     bee:	0e 94 25 0f 	call	0x1e4a	; 0x1e4a <lcd_set_cursor>
     bf2:	80 91 84 04 	lds	r24, 0x0484	; 0x800484 <lineSensors>
     bf6:	86 95       	lsr	r24
     bf8:	81 70       	andi	r24, 0x01	; 1
     bfa:	1f 92       	push	r1
     bfc:	8f 93       	push	r24
     bfe:	8b e1       	ldi	r24, 0x1B	; 27
     c00:	92 e0       	ldi	r25, 0x02	; 2
     c02:	9f 93       	push	r25
     c04:	8f 93       	push	r24
     c06:	1f 93       	push	r17
     c08:	0f 93       	push	r16
     c0a:	0e 94 5f 1f 	call	0x3ebe	; 0x3ebe <sprintf_P>
     c0e:	41 e0       	ldi	r20, 0x01	; 1
     c10:	61 e0       	ldi	r22, 0x01	; 1
     c12:	c8 01       	movw	r24, r16
     c14:	0e 94 f4 0e 	call	0x1de8	; 0x1de8 <lcd_write_string>
     c18:	0e 94 54 0f 	call	0x1ea8	; 0x1ea8 <lcd_render>
     c1c:	0f b6       	in	r0, 0x3f	; 63
     c1e:	f8 94       	cli
     c20:	de bf       	out	0x3e, r29	; 62
     c22:	0f be       	out	0x3f, r0	; 63
     c24:	cd bf       	out	0x3d, r28	; 61
     c26:	64 96       	adiw	r28, 0x14	; 20
     c28:	0f b6       	in	r0, 0x3f	; 63
     c2a:	f8 94       	cli
     c2c:	de bf       	out	0x3e, r29	; 62
     c2e:	0f be       	out	0x3f, r0	; 63
     c30:	cd bf       	out	0x3d, r28	; 61
     c32:	df 91       	pop	r29
     c34:	cf 91       	pop	r28
     c36:	1f 91       	pop	r17
     c38:	0f 91       	pop	r16
     c3a:	ff 90       	pop	r15
     c3c:	ef 90       	pop	r14
     c3e:	08 95       	ret

00000c40 <dispSensors>:
     c40:	ef 92       	push	r14
     c42:	ff 92       	push	r15
     c44:	0f 93       	push	r16
     c46:	1f 93       	push	r17
     c48:	cf 93       	push	r28
     c4a:	df 93       	push	r29
     c4c:	cd b7       	in	r28, 0x3d	; 61
     c4e:	de b7       	in	r29, 0x3e	; 62
     c50:	64 97       	sbiw	r28, 0x14	; 20
     c52:	0f b6       	in	r0, 0x3f	; 63
     c54:	f8 94       	cli
     c56:	de bf       	out	0x3e, r29	; 62
     c58:	0f be       	out	0x3f, r0	; 63
     c5a:	cd bf       	out	0x3d, r28	; 61
     c5c:	0e 94 bd 0d 	call	0x1b7a	; 0x1b7a <lcd_clear>
     c60:	60 e0       	ldi	r22, 0x00	; 0
     c62:	80 e0       	ldi	r24, 0x00	; 0
     c64:	0e 94 25 0f 	call	0x1e4a	; 0x1e4a <lcd_set_cursor>
     c68:	40 e0       	ldi	r20, 0x00	; 0
     c6a:	61 e0       	ldi	r22, 0x01	; 1
     c6c:	8c e0       	ldi	r24, 0x0C	; 12
     c6e:	92 e0       	ldi	r25, 0x02	; 2
     c70:	0e 94 0b 0f 	call	0x1e16	; 0x1e16 <lcd_write_string_p>
     c74:	68 e0       	ldi	r22, 0x08	; 8
     c76:	80 e0       	ldi	r24, 0x00	; 0
     c78:	0e 94 25 0f 	call	0x1e4a	; 0x1e4a <lcd_set_cursor>
     c7c:	0f 2e       	mov	r0, r31
     c7e:	f4 e8       	ldi	r31, 0x84	; 132
     c80:	ef 2e       	mov	r14, r31
     c82:	f4 e0       	ldi	r31, 0x04	; 4
     c84:	ff 2e       	mov	r15, r31
     c86:	f0 2d       	mov	r31, r0
     c88:	f7 01       	movw	r30, r14
     c8a:	85 89       	ldd	r24, Z+21	; 0x15
     c8c:	1f 92       	push	r1
     c8e:	8f 93       	push	r24
     c90:	82 81       	ldd	r24, Z+2	; 0x02
     c92:	8f 93       	push	r24
     c94:	81 81       	ldd	r24, Z+1	; 0x01
     c96:	8f 93       	push	r24
     c98:	82 e0       	ldi	r24, 0x02	; 2
     c9a:	92 e0       	ldi	r25, 0x02	; 2
     c9c:	9f 93       	push	r25
     c9e:	8f 93       	push	r24
     ca0:	8e 01       	movw	r16, r28
     ca2:	0f 5f       	subi	r16, 0xFF	; 255
     ca4:	1f 4f       	sbci	r17, 0xFF	; 255
     ca6:	1f 93       	push	r17
     ca8:	0f 93       	push	r16
     caa:	0e 94 5f 1f 	call	0x3ebe	; 0x3ebe <sprintf_P>
     cae:	41 e0       	ldi	r20, 0x01	; 1
     cb0:	61 e0       	ldi	r22, 0x01	; 1
     cb2:	c8 01       	movw	r24, r16
     cb4:	0e 94 f4 0e 	call	0x1de8	; 0x1de8 <lcd_write_string>
     cb8:	60 e1       	ldi	r22, 0x10	; 16
     cba:	80 e0       	ldi	r24, 0x00	; 0
     cbc:	0e 94 25 0f 	call	0x1e4a	; 0x1e4a <lcd_set_cursor>
     cc0:	f7 01       	movw	r30, r14
     cc2:	86 89       	ldd	r24, Z+22	; 0x16
     cc4:	1f 92       	push	r1
     cc6:	8f 93       	push	r24
     cc8:	84 81       	ldd	r24, Z+4	; 0x04
     cca:	8f 93       	push	r24
     ccc:	83 81       	ldd	r24, Z+3	; 0x03
     cce:	8f 93       	push	r24
     cd0:	88 ef       	ldi	r24, 0xF8	; 248
     cd2:	91 e0       	ldi	r25, 0x01	; 1
     cd4:	9f 93       	push	r25
     cd6:	8f 93       	push	r24
     cd8:	1f 93       	push	r17
     cda:	0f 93       	push	r16
     cdc:	0e 94 5f 1f 	call	0x3ebe	; 0x3ebe <sprintf_P>
     ce0:	41 e0       	ldi	r20, 0x01	; 1
     ce2:	61 e0       	ldi	r22, 0x01	; 1
     ce4:	c8 01       	movw	r24, r16
     ce6:	0e 94 f4 0e 	call	0x1de8	; 0x1de8 <lcd_write_string>
     cea:	68 e1       	ldi	r22, 0x18	; 24
     cec:	80 e0       	ldi	r24, 0x00	; 0
     cee:	0e 94 25 0f 	call	0x1e4a	; 0x1e4a <lcd_set_cursor>
     cf2:	f7 01       	movw	r30, r14
     cf4:	87 89       	ldd	r24, Z+23	; 0x17
     cf6:	1f 92       	push	r1
     cf8:	8f 93       	push	r24
     cfa:	86 81       	ldd	r24, Z+6	; 0x06
     cfc:	8f 93       	push	r24
     cfe:	85 81       	ldd	r24, Z+5	; 0x05
     d00:	8f 93       	push	r24
     d02:	8e ee       	ldi	r24, 0xEE	; 238
     d04:	91 e0       	ldi	r25, 0x01	; 1
     d06:	9f 93       	push	r25
     d08:	8f 93       	push	r24
     d0a:	1f 93       	push	r17
     d0c:	0f 93       	push	r16
     d0e:	0e 94 5f 1f 	call	0x3ebe	; 0x3ebe <sprintf_P>
     d12:	41 e0       	ldi	r20, 0x01	; 1
     d14:	61 e0       	ldi	r22, 0x01	; 1
     d16:	c8 01       	movw	r24, r16
     d18:	0e 94 f4 0e 	call	0x1de8	; 0x1de8 <lcd_write_string>
     d1c:	60 e2       	ldi	r22, 0x20	; 32
     d1e:	80 e0       	ldi	r24, 0x00	; 0
     d20:	0e 94 25 0f 	call	0x1e4a	; 0x1e4a <lcd_set_cursor>
     d24:	f7 01       	movw	r30, r14
     d26:	80 8d       	ldd	r24, Z+24	; 0x18
     d28:	1f 92       	push	r1
     d2a:	8f 93       	push	r24
     d2c:	80 85       	ldd	r24, Z+8	; 0x08
     d2e:	8f 93       	push	r24
     d30:	87 81       	ldd	r24, Z+7	; 0x07
     d32:	8f 93       	push	r24
     d34:	84 ee       	ldi	r24, 0xE4	; 228
     d36:	91 e0       	ldi	r25, 0x01	; 1
     d38:	9f 93       	push	r25
     d3a:	8f 93       	push	r24
     d3c:	1f 93       	push	r17
     d3e:	0f 93       	push	r16
     d40:	0e 94 5f 1f 	call	0x3ebe	; 0x3ebe <sprintf_P>
     d44:	0f b6       	in	r0, 0x3f	; 63
     d46:	f8 94       	cli
     d48:	de bf       	out	0x3e, r29	; 62
     d4a:	0f be       	out	0x3f, r0	; 63
     d4c:	cd bf       	out	0x3d, r28	; 61
     d4e:	41 e0       	ldi	r20, 0x01	; 1
     d50:	61 e0       	ldi	r22, 0x01	; 1
     d52:	c8 01       	movw	r24, r16
     d54:	0e 94 f4 0e 	call	0x1de8	; 0x1de8 <lcd_write_string>
     d58:	68 e2       	ldi	r22, 0x28	; 40
     d5a:	80 e0       	ldi	r24, 0x00	; 0
     d5c:	0e 94 25 0f 	call	0x1e4a	; 0x1e4a <lcd_set_cursor>
     d60:	f7 01       	movw	r30, r14
     d62:	81 8d       	ldd	r24, Z+25	; 0x19
     d64:	1f 92       	push	r1
     d66:	8f 93       	push	r24
     d68:	82 85       	ldd	r24, Z+10	; 0x0a
     d6a:	8f 93       	push	r24
     d6c:	81 85       	ldd	r24, Z+9	; 0x09
     d6e:	8f 93       	push	r24
     d70:	8a ed       	ldi	r24, 0xDA	; 218
     d72:	91 e0       	ldi	r25, 0x01	; 1
     d74:	9f 93       	push	r25
     d76:	8f 93       	push	r24
     d78:	1f 93       	push	r17
     d7a:	0f 93       	push	r16
     d7c:	0e 94 5f 1f 	call	0x3ebe	; 0x3ebe <sprintf_P>
     d80:	41 e0       	ldi	r20, 0x01	; 1
     d82:	61 e0       	ldi	r22, 0x01	; 1
     d84:	c8 01       	movw	r24, r16
     d86:	0e 94 f4 0e 	call	0x1de8	; 0x1de8 <lcd_write_string>
     d8a:	40 e3       	ldi	r20, 0x30	; 48
     d8c:	60 e0       	ldi	r22, 0x00	; 0
     d8e:	8f e2       	ldi	r24, 0x2F	; 47
     d90:	0e 94 3f 0f 	call	0x1e7e	; 0x1e7e <lcd_drawVLine>
     d94:	68 e0       	ldi	r22, 0x08	; 8
     d96:	80 e3       	ldi	r24, 0x30	; 48
     d98:	0e 94 25 0f 	call	0x1e4a	; 0x1e4a <lcd_set_cursor>
     d9c:	0f 2e       	mov	r0, r31
     d9e:	fb e6       	ldi	r31, 0x6B	; 107
     da0:	ef 2e       	mov	r14, r31
     da2:	f4 e0       	ldi	r31, 0x04	; 4
     da4:	ff 2e       	mov	r15, r31
     da6:	f0 2d       	mov	r31, r0
     da8:	f7 01       	movw	r30, r14
     daa:	87 81       	ldd	r24, Z+7	; 0x07
     dac:	8f 93       	push	r24
     dae:	86 81       	ldd	r24, Z+6	; 0x06
     db0:	8f 93       	push	r24
     db2:	84 ed       	ldi	r24, 0xD4	; 212
     db4:	91 e0       	ldi	r25, 0x01	; 1
     db6:	9f 93       	push	r25
     db8:	8f 93       	push	r24
     dba:	1f 93       	push	r17
     dbc:	0f 93       	push	r16
     dbe:	0e 94 5f 1f 	call	0x3ebe	; 0x3ebe <sprintf_P>
     dc2:	41 e0       	ldi	r20, 0x01	; 1
     dc4:	61 e0       	ldi	r22, 0x01	; 1
     dc6:	c8 01       	movw	r24, r16
     dc8:	0e 94 f4 0e 	call	0x1de8	; 0x1de8 <lcd_write_string>
     dcc:	60 e1       	ldi	r22, 0x10	; 16
     dce:	80 e3       	ldi	r24, 0x30	; 48
     dd0:	0e 94 25 0f 	call	0x1e4a	; 0x1e4a <lcd_set_cursor>
     dd4:	f7 01       	movw	r30, r14
     dd6:	81 85       	ldd	r24, Z+9	; 0x09
     dd8:	8f 93       	push	r24
     dda:	80 85       	ldd	r24, Z+8	; 0x08
     ddc:	8f 93       	push	r24
     dde:	8e ec       	ldi	r24, 0xCE	; 206
     de0:	91 e0       	ldi	r25, 0x01	; 1
     de2:	9f 93       	push	r25
     de4:	8f 93       	push	r24
     de6:	1f 93       	push	r17
     de8:	0f 93       	push	r16
     dea:	0e 94 5f 1f 	call	0x3ebe	; 0x3ebe <sprintf_P>
     dee:	41 e0       	ldi	r20, 0x01	; 1
     df0:	61 e0       	ldi	r22, 0x01	; 1
     df2:	c8 01       	movw	r24, r16
     df4:	0e 94 f4 0e 	call	0x1de8	; 0x1de8 <lcd_write_string>
     df8:	68 e1       	ldi	r22, 0x18	; 24
     dfa:	80 e3       	ldi	r24, 0x30	; 48
     dfc:	0e 94 25 0f 	call	0x1e4a	; 0x1e4a <lcd_set_cursor>
     e00:	40 e0       	ldi	r20, 0x00	; 0
     e02:	61 e0       	ldi	r22, 0x01	; 1
     e04:	87 ec       	ldi	r24, 0xC7	; 199
     e06:	91 e0       	ldi	r25, 0x01	; 1
     e08:	0e 94 0b 0f 	call	0x1e16	; 0x1e16 <lcd_write_string_p>
     e0c:	60 e2       	ldi	r22, 0x20	; 32
     e0e:	80 e3       	ldi	r24, 0x30	; 48
     e10:	0e 94 25 0f 	call	0x1e4a	; 0x1e4a <lcd_set_cursor>
     e14:	f7 01       	movw	r30, r14
     e16:	82 81       	ldd	r24, Z+2	; 0x02
     e18:	8f 93       	push	r24
     e1a:	81 81       	ldd	r24, Z+1	; 0x01
     e1c:	8f 93       	push	r24
     e1e:	80 ec       	ldi	r24, 0xC0	; 192
     e20:	91 e0       	ldi	r25, 0x01	; 1
     e22:	9f 93       	push	r25
     e24:	8f 93       	push	r24
     e26:	1f 93       	push	r17
     e28:	0f 93       	push	r16
     e2a:	0e 94 5f 1f 	call	0x3ebe	; 0x3ebe <sprintf_P>
     e2e:	41 e0       	ldi	r20, 0x01	; 1
     e30:	61 e0       	ldi	r22, 0x01	; 1
     e32:	c8 01       	movw	r24, r16
     e34:	0e 94 f4 0e 	call	0x1de8	; 0x1de8 <lcd_write_string>
     e38:	68 e2       	ldi	r22, 0x28	; 40
     e3a:	80 e3       	ldi	r24, 0x30	; 48
     e3c:	0e 94 25 0f 	call	0x1e4a	; 0x1e4a <lcd_set_cursor>
     e40:	f7 01       	movw	r30, r14
     e42:	84 81       	ldd	r24, Z+4	; 0x04
     e44:	8f 93       	push	r24
     e46:	83 81       	ldd	r24, Z+3	; 0x03
     e48:	8f 93       	push	r24
     e4a:	89 eb       	ldi	r24, 0xB9	; 185
     e4c:	91 e0       	ldi	r25, 0x01	; 1
     e4e:	9f 93       	push	r25
     e50:	8f 93       	push	r24
     e52:	1f 93       	push	r17
     e54:	0f 93       	push	r16
     e56:	0e 94 5f 1f 	call	0x3ebe	; 0x3ebe <sprintf_P>
     e5a:	0f b6       	in	r0, 0x3f	; 63
     e5c:	f8 94       	cli
     e5e:	de bf       	out	0x3e, r29	; 62
     e60:	0f be       	out	0x3f, r0	; 63
     e62:	cd bf       	out	0x3d, r28	; 61
     e64:	41 e0       	ldi	r20, 0x01	; 1
     e66:	61 e0       	ldi	r22, 0x01	; 1
     e68:	c8 01       	movw	r24, r16
     e6a:	0e 94 f4 0e 	call	0x1de8	; 0x1de8 <lcd_write_string>
     e6e:	0e 94 54 0f 	call	0x1ea8	; 0x1ea8 <lcd_render>
     e72:	64 96       	adiw	r28, 0x14	; 20
     e74:	0f b6       	in	r0, 0x3f	; 63
     e76:	f8 94       	cli
     e78:	de bf       	out	0x3e, r29	; 62
     e7a:	0f be       	out	0x3f, r0	; 63
     e7c:	cd bf       	out	0x3d, r28	; 61
     e7e:	df 91       	pop	r29
     e80:	cf 91       	pop	r28
     e82:	1f 91       	pop	r17
     e84:	0f 91       	pop	r16
     e86:	ff 90       	pop	r15
     e88:	ef 90       	pop	r14
     e8a:	08 95       	ret

00000e8c <dispSetCusor>:
     e8c:	94 2f       	mov	r25, r20
     e8e:	99 0f       	add	r25, r25
     e90:	99 0f       	add	r25, r25
     e92:	99 0f       	add	r25, r25
     e94:	96 9f       	mul	r25, r22
     e96:	60 2d       	mov	r22, r0
     e98:	11 24       	eor	r1, r1
     e9a:	98 2f       	mov	r25, r24
     e9c:	99 0f       	add	r25, r25
     e9e:	89 0f       	add	r24, r25
     ea0:	88 0f       	add	r24, r24
     ea2:	84 9f       	mul	r24, r20
     ea4:	80 2d       	mov	r24, r0
     ea6:	11 24       	eor	r1, r1
     ea8:	0e 94 25 0f 	call	0x1e4a	; 0x1e4a <lcd_set_cursor>
     eac:	08 95       	ret

00000eae <shieldInit>:
     eae:	0e 94 77 0d 	call	0x1aee	; 0x1aee <lcd_init>
     eb2:	8f ef       	ldi	r24, 0xFF	; 255
     eb4:	80 93 7c 04 	sts	0x047C, r24	; 0x80047c <PCF8574_data>
     eb8:	80 e7       	ldi	r24, 0x70	; 112
     eba:	0e 94 09 18 	call	0x3012	; 0x3012 <i2c_start_wait>
     ebe:	80 91 7c 04 	lds	r24, 0x047C	; 0x80047c <PCF8574_data>
     ec2:	0e 94 3a 18 	call	0x3074	; 0x3074 <i2c_write>
     ec6:	0e 94 31 18 	call	0x3062	; 0x3062 <i2c_stop>
     eca:	44 e6       	ldi	r20, 0x64	; 100
     ecc:	50 e0       	ldi	r21, 0x00	; 0
     ece:	6a e0       	ldi	r22, 0x0A	; 10
     ed0:	70 e0       	ldi	r23, 0x00	; 0
     ed2:	8f ec       	ldi	r24, 0xCF	; 207
     ed4:	94 e0       	ldi	r25, 0x04	; 4
     ed6:	0e 94 6c 14 	call	0x28d8	; 0x28d8 <schedulerAddTask>
     eda:	80 93 06 05 	sts	0x0506, r24	; 0x800506 <taskID+0x1>
     ede:	08 95       	ret

00000ee0 <driveHandler>:
	dispSetCusor(0, 4, 1);
	sprintf_P(buffer, PSTR("K_D: %2.2f"), k_d);
	lcd_write_string(buffer, 1, LCD_BLACK);
	
	lcd_render();
}
     ee0:	cf 93       	push	r28
     ee2:	df 93       	push	r29
     ee4:	80 91 25 01 	lds	r24, 0x0125	; 0x800125 <drive>
     ee8:	88 23       	and	r24, r24
     eea:	09 f4       	brne	.+2      	; 0xeee <driveHandler+0xe>
     eec:	ab c0       	rjmp	.+342    	; 0x1044 <driveHandler+0x164>
     eee:	ef e0       	ldi	r30, 0x0F	; 15
     ef0:	f5 e0       	ldi	r31, 0x05	; 5
     ef2:	80 81       	ld	r24, Z
     ef4:	81 60       	ori	r24, 0x01	; 1
     ef6:	80 83       	st	Z, r24
     ef8:	80 81       	ld	r24, Z
     efa:	82 60       	ori	r24, 0x02	; 2
     efc:	80 83       	st	Z, r24
     efe:	80 81       	ld	r24, Z
     f00:	84 60       	ori	r24, 0x04	; 4
     f02:	80 83       	st	Z, r24
     f04:	81 e0       	ldi	r24, 0x01	; 1
     f06:	0e 94 9a 17 	call	0x2f34	; 0x2f34 <getStopwatch>
     f0a:	44 97       	sbiw	r24, 0x14	; 20
     f0c:	08 f4       	brcc	.+2      	; 0xf10 <driveHandler+0x30>
     f0e:	a5 c0       	rjmp	.+330    	; 0x105a <driveHandler+0x17a>
     f10:	0e 94 a9 11 	call	0x2352	; 0x2352 <lineRead>
     f14:	0e 94 ee 11 	call	0x23dc	; 0x23dc <followTrack>
     f18:	90 93 a7 04 	sts	0x04A7, r25	; 0x8004a7 <lineReference+0x1>
     f1c:	80 93 a6 04 	sts	0x04A6, r24	; 0x8004a6 <lineReference>
     f20:	60 e0       	ldi	r22, 0x00	; 0
     f22:	70 e0       	ldi	r23, 0x00	; 0
     f24:	81 e0       	ldi	r24, 0x01	; 1
     f26:	90 e0       	ldi	r25, 0x00	; 0
     f28:	0e 94 55 17 	call	0x2eaa	; 0x2eaa <setStopwatch>
     f2c:	60 91 a6 04 	lds	r22, 0x04A6	; 0x8004a6 <lineReference>
     f30:	70 91 a7 04 	lds	r23, 0x04A7	; 0x8004a7 <lineReference+0x1>
     f34:	4c ea       	ldi	r20, 0xAC	; 172
     f36:	54 e0       	ldi	r21, 0x04	; 4
     f38:	80 e0       	ldi	r24, 0x00	; 0
     f3a:	90 e0       	ldi	r25, 0x00	; 0
     f3c:	0e 94 0e 13 	call	0x261c	; 0x261c <pid_Controller>
     f40:	ec 01       	movw	r28, r24
     f42:	80 91 01 01 	lds	r24, 0x0101	; 0x800101 <baseSpeed>
     f46:	90 91 02 01 	lds	r25, 0x0102	; 0x800102 <baseSpeed+0x1>
     f4a:	bc 01       	movw	r22, r24
     f4c:	6c 1b       	sub	r22, r28
     f4e:	7d 0b       	sbc	r23, r29
     f50:	8c 0f       	add	r24, r28
     f52:	9d 1f       	adc	r25, r29
     f54:	0e 94 94 12 	call	0x2528	; 0x2528 <motor_speed>
     f58:	e9 e9       	ldi	r30, 0x99	; 153
     f5a:	f4 e0       	ldi	r31, 0x04	; 4
     f5c:	2e e9       	ldi	r18, 0x9E	; 158
     f5e:	34 e0       	ldi	r19, 0x04	; 4
     f60:	91 e0       	ldi	r25, 0x01	; 1
     f62:	40 e0       	ldi	r20, 0x00	; 0
     f64:	81 91       	ld	r24, Z+
     f66:	81 11       	cpse	r24, r1
     f68:	94 2f       	mov	r25, r20
     f6a:	e2 17       	cp	r30, r18
     f6c:	f3 07       	cpc	r31, r19
     f6e:	d1 f7       	brne	.-12     	; 0xf64 <driveHandler+0x84>
     f70:	99 23       	and	r25, r25
     f72:	29 f0       	breq	.+10     	; 0xf7e <driveHandler+0x9e>
     f74:	80 91 24 01 	lds	r24, 0x0124	; 0x800124 <__data_end>
     f78:	8f 5f       	subi	r24, 0xFF	; 255
     f7a:	80 93 24 01 	sts	0x0124, r24	; 0x800124 <__data_end>
     f7e:	80 91 24 01 	lds	r24, 0x0124	; 0x800124 <__data_end>
     f82:	8a 30       	cpi	r24, 0x0A	; 10
     f84:	68 f0       	brcs	.+26     	; 0xfa0 <driveHandler+0xc0>
     f86:	10 92 25 01 	sts	0x0125, r1	; 0x800125 <drive>
     f8a:	60 e0       	ldi	r22, 0x00	; 0
     f8c:	80 e0       	ldi	r24, 0x00	; 0
     f8e:	0e 94 58 12 	call	0x24b0	; 0x24b0 <motorDirection>
     f92:	83 e0       	ldi	r24, 0x03	; 3
     f94:	0e 94 4d 15 	call	0x2a9a	; 0x2a9a <setStatusLED>
     f98:	8f ec       	ldi	r24, 0xCF	; 207
     f9a:	92 e0       	ldi	r25, 0x02	; 2
     f9c:	0e 94 0a 19 	call	0x3214	; 0x3214 <uart_puts_p>
     fa0:	84 e0       	ldi	r24, 0x04	; 4
     fa2:	0e 94 9a 17 	call	0x2f34	; 0x2f34 <getStopwatch>
     fa6:	81 39       	cpi	r24, 0x91	; 145
     fa8:	91 40       	sbci	r25, 0x01	; 1
     faa:	40 f0       	brcs	.+16     	; 0xfbc <driveHandler+0xdc>
     fac:	60 e0       	ldi	r22, 0x00	; 0
     fae:	70 e0       	ldi	r23, 0x00	; 0
     fb0:	84 e0       	ldi	r24, 0x04	; 4
     fb2:	90 e0       	ldi	r25, 0x00	; 0
     fb4:	0e 94 55 17 	call	0x2eaa	; 0x2eaa <setStopwatch>
     fb8:	10 92 24 01 	sts	0x0124, r1	; 0x800124 <__data_end>
     fbc:	82 e0       	ldi	r24, 0x02	; 2
     fbe:	0e 94 9a 17 	call	0x2f34	; 0x2f34 <getStopwatch>
     fc2:	85 36       	cpi	r24, 0x65	; 101
     fc4:	91 05       	cpc	r25, r1
     fc6:	08 f4       	brcc	.+2      	; 0xfca <driveHandler+0xea>
     fc8:	48 c0       	rjmp	.+144    	; 0x105a <driveHandler+0x17a>
     fca:	eb e6       	ldi	r30, 0x6B	; 107
     fcc:	f4 e0       	ldi	r31, 0x04	; 4
     fce:	84 81       	ldd	r24, Z+4	; 0x04
     fd0:	8f 93       	push	r24
     fd2:	83 81       	ldd	r24, Z+3	; 0x03
     fd4:	8f 93       	push	r24
     fd6:	82 81       	ldd	r24, Z+2	; 0x02
     fd8:	8f 93       	push	r24
     fda:	81 81       	ldd	r24, Z+1	; 0x01
     fdc:	8f 93       	push	r24
     fde:	88 eb       	ldi	r24, 0xB8	; 184
     fe0:	92 e0       	ldi	r25, 0x02	; 2
     fe2:	9f 93       	push	r25
     fe4:	8f 93       	push	r24
     fe6:	0e 94 0e 12 	call	0x241c	; 0x241c <_log_Debug>
     fea:	80 91 a7 04 	lds	r24, 0x04A7	; 0x8004a7 <lineReference+0x1>
     fee:	8f 93       	push	r24
     ff0:	80 91 a6 04 	lds	r24, 0x04A6	; 0x8004a6 <lineReference>
     ff4:	8f 93       	push	r24
     ff6:	8c ea       	ldi	r24, 0xAC	; 172
     ff8:	92 e0       	ldi	r25, 0x02	; 2
     ffa:	9f 93       	push	r25
     ffc:	8f 93       	push	r24
     ffe:	0e 94 0e 12 	call	0x241c	; 0x241c <_log_Debug>
    1002:	df 93       	push	r29
    1004:	cf 93       	push	r28
    1006:	81 ea       	ldi	r24, 0xA1	; 161
    1008:	92 e0       	ldi	r25, 0x02	; 2
    100a:	9f 93       	push	r25
    100c:	8f 93       	push	r24
    100e:	0e 94 0e 12 	call	0x241c	; 0x241c <_log_Debug>
    1012:	0e 94 32 15 	call	0x2a64	; 0x2a64 <batt_voltage>
    1016:	9f 93       	push	r25
    1018:	8f 93       	push	r24
    101a:	89 e9       	ldi	r24, 0x99	; 153
    101c:	92 e0       	ldi	r25, 0x02	; 2
    101e:	9f 93       	push	r25
    1020:	8f 93       	push	r24
    1022:	0e 94 0e 12 	call	0x241c	; 0x241c <_log_Debug>
    1026:	60 e0       	ldi	r22, 0x00	; 0
    1028:	70 e0       	ldi	r23, 0x00	; 0
    102a:	82 e0       	ldi	r24, 0x02	; 2
    102c:	90 e0       	ldi	r25, 0x00	; 0
    102e:	0e 94 55 17 	call	0x2eaa	; 0x2eaa <setStopwatch>
    1032:	8d b7       	in	r24, 0x3d	; 61
    1034:	9e b7       	in	r25, 0x3e	; 62
    1036:	42 96       	adiw	r24, 0x12	; 18
    1038:	0f b6       	in	r0, 0x3f	; 63
    103a:	f8 94       	cli
    103c:	9e bf       	out	0x3e, r25	; 62
    103e:	0f be       	out	0x3f, r0	; 63
    1040:	8d bf       	out	0x3d, r24	; 61
    1042:	0b c0       	rjmp	.+22     	; 0x105a <driveHandler+0x17a>
    1044:	ef e0       	ldi	r30, 0x0F	; 15
    1046:	f5 e0       	ldi	r31, 0x05	; 5
    1048:	80 81       	ld	r24, Z
    104a:	8e 7f       	andi	r24, 0xFE	; 254
    104c:	80 83       	st	Z, r24
    104e:	80 81       	ld	r24, Z
    1050:	8d 7f       	andi	r24, 0xFD	; 253
    1052:	80 83       	st	Z, r24
    1054:	80 81       	ld	r24, Z
    1056:	8b 7f       	andi	r24, 0xFB	; 251
    1058:	80 83       	st	Z, r24
    105a:	df 91       	pop	r29
    105c:	cf 91       	pop	r28
    105e:	08 95       	ret

00001060 <printMenu>:
    1060:	0f 93       	push	r16
    1062:	1f 93       	push	r17
    1064:	cf 93       	push	r28
    1066:	df 93       	push	r29
    1068:	cd b7       	in	r28, 0x3d	; 61
    106a:	de b7       	in	r29, 0x3e	; 62
    106c:	2f 97       	sbiw	r28, 0x0f	; 15
    106e:	0f b6       	in	r0, 0x3f	; 63
    1070:	f8 94       	cli
    1072:	de bf       	out	0x3e, r29	; 62
    1074:	0f be       	out	0x3f, r0	; 63
    1076:	cd bf       	out	0x3d, r28	; 61
    1078:	8c ec       	ldi	r24, 0xCC	; 204
    107a:	93 e0       	ldi	r25, 0x03	; 3
    107c:	0e 94 0a 19 	call	0x3214	; 0x3214 <uart_puts_p>
    1080:	84 eb       	ldi	r24, 0xB4	; 180
    1082:	93 e0       	ldi	r25, 0x03	; 3
    1084:	0e 94 0a 19 	call	0x3214	; 0x3214 <uart_puts_p>
    1088:	80 ea       	ldi	r24, 0xA0	; 160
    108a:	93 e0       	ldi	r25, 0x03	; 3
    108c:	0e 94 0a 19 	call	0x3214	; 0x3214 <uart_puts_p>
    1090:	8e e8       	ldi	r24, 0x8E	; 142
    1092:	93 e0       	ldi	r25, 0x03	; 3
    1094:	0e 94 0a 19 	call	0x3214	; 0x3214 <uart_puts_p>
    1098:	8b e7       	ldi	r24, 0x7B	; 123
    109a:	93 e0       	ldi	r25, 0x03	; 3
    109c:	0e 94 0a 19 	call	0x3214	; 0x3214 <uart_puts_p>
    10a0:	8b e6       	ldi	r24, 0x6B	; 107
    10a2:	93 e0       	ldi	r25, 0x03	; 3
    10a4:	0e 94 0a 19 	call	0x3214	; 0x3214 <uart_puts_p>
    10a8:	85 e6       	ldi	r24, 0x65	; 101
    10aa:	93 e0       	ldi	r25, 0x03	; 3
    10ac:	0e 94 0a 19 	call	0x3214	; 0x3214 <uart_puts_p>
    10b0:	60 91 a8 04 	lds	r22, 0x04A8	; 0x8004a8 <k_p>
    10b4:	70 91 a9 04 	lds	r23, 0x04A9	; 0x8004a9 <k_p+0x1>
    10b8:	80 91 aa 04 	lds	r24, 0x04AA	; 0x8004aa <k_p+0x2>
    10bc:	90 91 ab 04 	lds	r25, 0x04AB	; 0x8004ab <k_p+0x3>
    10c0:	8e 01       	movw	r16, r28
    10c2:	0f 5f       	subi	r16, 0xFF	; 255
    10c4:	1f 4f       	sbci	r17, 0xFF	; 255
    10c6:	21 e0       	ldi	r18, 0x01	; 1
    10c8:	44 e0       	ldi	r20, 0x04	; 4
    10ca:	0e 94 bf 1d 	call	0x3b7e	; 0x3b7e <dtostrf>
    10ce:	0e 94 fb 18 	call	0x31f6	; 0x31f6 <uart_puts>
    10d2:	80 e6       	ldi	r24, 0x60	; 96
    10d4:	93 e0       	ldi	r25, 0x03	; 3
    10d6:	0e 94 0a 19 	call	0x3214	; 0x3214 <uart_puts_p>
    10da:	60 91 a2 04 	lds	r22, 0x04A2	; 0x8004a2 <k_i>
    10de:	70 91 a3 04 	lds	r23, 0x04A3	; 0x8004a3 <k_i+0x1>
    10e2:	80 91 a4 04 	lds	r24, 0x04A4	; 0x8004a4 <k_i+0x2>
    10e6:	90 91 a5 04 	lds	r25, 0x04A5	; 0x8004a5 <k_i+0x3>
    10ea:	21 e0       	ldi	r18, 0x01	; 1
    10ec:	44 e0       	ldi	r20, 0x04	; 4
    10ee:	0e 94 bf 1d 	call	0x3b7e	; 0x3b7e <dtostrf>
    10f2:	0e 94 fb 18 	call	0x31f6	; 0x31f6 <uart_puts>
    10f6:	8b e5       	ldi	r24, 0x5B	; 91
    10f8:	93 e0       	ldi	r25, 0x03	; 3
    10fa:	0e 94 0a 19 	call	0x3214	; 0x3214 <uart_puts_p>
    10fe:	60 91 9e 04 	lds	r22, 0x049E	; 0x80049e <k_d>
    1102:	70 91 9f 04 	lds	r23, 0x049F	; 0x80049f <k_d+0x1>
    1106:	80 91 a0 04 	lds	r24, 0x04A0	; 0x8004a0 <k_d+0x2>
    110a:	90 91 a1 04 	lds	r25, 0x04A1	; 0x8004a1 <k_d+0x3>
    110e:	21 e0       	ldi	r18, 0x01	; 1
    1110:	44 e0       	ldi	r20, 0x04	; 4
    1112:	0e 94 bf 1d 	call	0x3b7e	; 0x3b7e <dtostrf>
    1116:	0e 94 fb 18 	call	0x31f6	; 0x31f6 <uart_puts>
    111a:	83 e5       	ldi	r24, 0x53	; 83
    111c:	93 e0       	ldi	r25, 0x03	; 3
    111e:	0e 94 0a 19 	call	0x3214	; 0x3214 <uart_puts_p>
    1122:	80 91 01 01 	lds	r24, 0x0101	; 0x800101 <baseSpeed>
    1126:	90 91 02 01 	lds	r25, 0x0102	; 0x800102 <baseSpeed+0x1>
    112a:	0e 94 af 15 	call	0x2b5e	; 0x2b5e <uart_putInt>
    112e:	80 e0       	ldi	r24, 0x00	; 0
    1130:	0e 94 4d 15 	call	0x2a9a	; 0x2a9a <setStatusLED>
    1134:	88 e4       	ldi	r24, 0x48	; 72
    1136:	93 e0       	ldi	r25, 0x03	; 3
    1138:	0e 94 0a 19 	call	0x3214	; 0x3214 <uart_puts_p>
    113c:	80 91 7e 04 	lds	r24, 0x047E	; 0x80047e <systemStatus+0x1>
    1140:	90 91 7f 04 	lds	r25, 0x047F	; 0x80047f <systemStatus+0x2>
    1144:	0e 94 af 15 	call	0x2b5e	; 0x2b5e <uart_putInt>
    1148:	2f 96       	adiw	r28, 0x0f	; 15
    114a:	0f b6       	in	r0, 0x3f	; 63
    114c:	f8 94       	cli
    114e:	de bf       	out	0x3e, r29	; 62
    1150:	0f be       	out	0x3f, r0	; 63
    1152:	cd bf       	out	0x3d, r28	; 61
    1154:	df 91       	pop	r29
    1156:	cf 91       	pop	r28
    1158:	1f 91       	pop	r17
    115a:	0f 91       	pop	r16
    115c:	08 95       	ret

0000115e <receiverNumber>:
    115e:	0f 93       	push	r16
    1160:	1f 93       	push	r17
    1162:	cf 93       	push	r28
    1164:	df 93       	push	r29
    1166:	8c 01       	movw	r16, r24
    1168:	c1 e0       	ldi	r28, 0x01	; 1
    116a:	df ef       	ldi	r29, 0xFF	; 255
    116c:	dc 0f       	add	r29, r28
    116e:	0e 94 c8 18 	call	0x3190	; 0x3190 <uart_getc>
    1172:	81 15       	cp	r24, r1
    1174:	21 e0       	ldi	r18, 0x01	; 1
    1176:	92 07       	cpc	r25, r18
    1178:	d1 f3       	breq	.-12     	; 0x116e <receiverNumber+0x10>
    117a:	8a 30       	cpi	r24, 0x0A	; 10
    117c:	29 f4       	brne	.+10     	; 0x1188 <receiverNumber+0x2a>
    117e:	f8 01       	movw	r30, r16
    1180:	ed 0f       	add	r30, r29
    1182:	f1 1d       	adc	r31, r1
    1184:	10 82       	st	Z, r1
    1186:	06 c0       	rjmp	.+12     	; 0x1194 <receiverNumber+0x36>
    1188:	f8 01       	movw	r30, r16
    118a:	ed 0f       	add	r30, r29
    118c:	f1 1d       	adc	r31, r1
    118e:	80 83       	st	Z, r24
    1190:	cf 5f       	subi	r28, 0xFF	; 255
    1192:	eb cf       	rjmp	.-42     	; 0x116a <receiverNumber+0xc>
    1194:	df 91       	pop	r29
    1196:	cf 91       	pop	r28
    1198:	1f 91       	pop	r17
    119a:	0f 91       	pop	r16
    119c:	08 95       	ret

0000119e <receiveParameters>:
    119e:	cf 93       	push	r28
    11a0:	df 93       	push	r29
    11a2:	cd b7       	in	r28, 0x3d	; 61
    11a4:	de b7       	in	r29, 0x3e	; 62
    11a6:	2a 97       	sbiw	r28, 0x0a	; 10
    11a8:	0f b6       	in	r0, 0x3f	; 63
    11aa:	f8 94       	cli
    11ac:	de bf       	out	0x3e, r29	; 62
    11ae:	0f be       	out	0x3f, r0	; 63
    11b0:	cd bf       	out	0x3d, r28	; 61
    11b2:	87 e2       	ldi	r24, 0x27	; 39
    11b4:	93 e0       	ldi	r25, 0x03	; 3
    11b6:	0e 94 0a 19 	call	0x3214	; 0x3214 <uart_puts_p>
    11ba:	8d e1       	ldi	r24, 0x1D	; 29
    11bc:	93 e0       	ldi	r25, 0x03	; 3
    11be:	0e 94 0a 19 	call	0x3214	; 0x3214 <uart_puts_p>
    11c2:	ce 01       	movw	r24, r28
    11c4:	01 96       	adiw	r24, 0x01	; 1
    11c6:	0e 94 af 08 	call	0x115e	; 0x115e <receiverNumber>
    11ca:	ce 01       	movw	r24, r28
    11cc:	01 96       	adiw	r24, 0x01	; 1
    11ce:	0e 94 fb 18 	call	0x31f6	; 0x31f6 <uart_puts>
    11d2:	ce 01       	movw	r24, r28
    11d4:	01 96       	adiw	r24, 0x01	; 1
    11d6:	0e 94 df 1d 	call	0x3bbe	; 0x3bbe <atof>
    11da:	60 93 a8 04 	sts	0x04A8, r22	; 0x8004a8 <k_p>
    11de:	70 93 a9 04 	sts	0x04A9, r23	; 0x8004a9 <k_p+0x1>
    11e2:	80 93 aa 04 	sts	0x04AA, r24	; 0x8004aa <k_p+0x2>
    11e6:	90 93 ab 04 	sts	0x04AB, r25	; 0x8004ab <k_p+0x3>
    11ea:	83 e1       	ldi	r24, 0x13	; 19
    11ec:	93 e0       	ldi	r25, 0x03	; 3
    11ee:	0e 94 0a 19 	call	0x3214	; 0x3214 <uart_puts_p>
    11f2:	ce 01       	movw	r24, r28
    11f4:	01 96       	adiw	r24, 0x01	; 1
    11f6:	0e 94 af 08 	call	0x115e	; 0x115e <receiverNumber>
    11fa:	ce 01       	movw	r24, r28
    11fc:	01 96       	adiw	r24, 0x01	; 1
    11fe:	0e 94 fb 18 	call	0x31f6	; 0x31f6 <uart_puts>
    1202:	ce 01       	movw	r24, r28
    1204:	01 96       	adiw	r24, 0x01	; 1
    1206:	0e 94 df 1d 	call	0x3bbe	; 0x3bbe <atof>
    120a:	60 93 a2 04 	sts	0x04A2, r22	; 0x8004a2 <k_i>
    120e:	70 93 a3 04 	sts	0x04A3, r23	; 0x8004a3 <k_i+0x1>
    1212:	80 93 a4 04 	sts	0x04A4, r24	; 0x8004a4 <k_i+0x2>
    1216:	90 93 a5 04 	sts	0x04A5, r25	; 0x8004a5 <k_i+0x3>
    121a:	89 e0       	ldi	r24, 0x09	; 9
    121c:	93 e0       	ldi	r25, 0x03	; 3
    121e:	0e 94 0a 19 	call	0x3214	; 0x3214 <uart_puts_p>
    1222:	ce 01       	movw	r24, r28
    1224:	01 96       	adiw	r24, 0x01	; 1
    1226:	0e 94 af 08 	call	0x115e	; 0x115e <receiverNumber>
    122a:	ce 01       	movw	r24, r28
    122c:	01 96       	adiw	r24, 0x01	; 1
    122e:	0e 94 fb 18 	call	0x31f6	; 0x31f6 <uart_puts>
    1232:	ce 01       	movw	r24, r28
    1234:	01 96       	adiw	r24, 0x01	; 1
    1236:	0e 94 df 1d 	call	0x3bbe	; 0x3bbe <atof>
    123a:	60 93 9e 04 	sts	0x049E, r22	; 0x80049e <k_d>
    123e:	70 93 9f 04 	sts	0x049F, r23	; 0x80049f <k_d+0x1>
    1242:	80 93 a0 04 	sts	0x04A0, r24	; 0x8004a0 <k_d+0x2>
    1246:	90 93 a1 04 	sts	0x04A1, r25	; 0x8004a1 <k_d+0x3>
    124a:	8c ee       	ldi	r24, 0xEC	; 236
    124c:	92 e0       	ldi	r25, 0x02	; 2
    124e:	0e 94 0a 19 	call	0x3214	; 0x3214 <uart_puts_p>
    1252:	2a 96       	adiw	r28, 0x0a	; 10
    1254:	0f b6       	in	r0, 0x3f	; 63
    1256:	f8 94       	cli
    1258:	de bf       	out	0x3e, r29	; 62
    125a:	0f be       	out	0x3f, r0	; 63
    125c:	cd bf       	out	0x3d, r28	; 61
    125e:	df 91       	pop	r29
    1260:	cf 91       	pop	r28
    1262:	08 95       	ret

00001264 <commandProcessor>:
    1264:	8f 92       	push	r8
    1266:	9f 92       	push	r9
    1268:	af 92       	push	r10
    126a:	bf 92       	push	r11
    126c:	cf 92       	push	r12
    126e:	df 92       	push	r13
    1270:	ef 92       	push	r14
    1272:	ff 92       	push	r15
    1274:	1f 93       	push	r17
    1276:	cf 93       	push	r28
    1278:	df 93       	push	r29
    127a:	cd b7       	in	r28, 0x3d	; 61
    127c:	de b7       	in	r29, 0x3e	; 62
    127e:	2a 97       	sbiw	r28, 0x0a	; 10
    1280:	0f b6       	in	r0, 0x3f	; 63
    1282:	f8 94       	cli
    1284:	de bf       	out	0x3e, r29	; 62
    1286:	0f be       	out	0x3f, r0	; 63
    1288:	cd bf       	out	0x3d, r28	; 61
    128a:	0e 94 c8 18 	call	0x3190	; 0x3190 <uart_getc>
    128e:	8f 3f       	cpi	r24, 0xFF	; 255
    1290:	91 05       	cpc	r25, r1
    1292:	11 f0       	breq	.+4      	; 0x1298 <commandProcessor+0x34>
    1294:	08 f0       	brcs	.+2      	; 0x1298 <commandProcessor+0x34>
    1296:	9b c0       	rjmp	.+310    	; 0x13ce <commandProcessor+0x16a>
    1298:	18 2f       	mov	r17, r24
    129a:	0e 94 c8 18 	call	0x3190	; 0x3190 <uart_getc>
    129e:	0a 97       	sbiw	r24, 0x0a	; 10
    12a0:	e1 f7       	brne	.-8      	; 0x129a <commandProcessor+0x36>
    12a2:	10 37       	cpi	r17, 0x70	; 112
    12a4:	09 f0       	breq	.+2      	; 0x12a8 <commandProcessor+0x44>
    12a6:	49 c0       	rjmp	.+146    	; 0x133a <commandProcessor+0xd6>
    12a8:	60 e0       	ldi	r22, 0x00	; 0
    12aa:	80 e0       	ldi	r24, 0x00	; 0
    12ac:	0e 94 58 12 	call	0x24b0	; 0x24b0 <motorDirection>
    12b0:	83 e0       	ldi	r24, 0x03	; 3
    12b2:	0e 94 4d 15 	call	0x2a9a	; 0x2a9a <setStatusLED>
    12b6:	0e 94 cf 08 	call	0x119e	; 0x119e <receiveParameters>
    12ba:	20 e0       	ldi	r18, 0x00	; 0
    12bc:	30 e0       	ldi	r19, 0x00	; 0
    12be:	40 e0       	ldi	r20, 0x00	; 0
    12c0:	53 e4       	ldi	r21, 0x43	; 67
    12c2:	60 91 9e 04 	lds	r22, 0x049E	; 0x80049e <k_d>
    12c6:	70 91 9f 04 	lds	r23, 0x049F	; 0x80049f <k_d+0x1>
    12ca:	80 91 a0 04 	lds	r24, 0x04A0	; 0x8004a0 <k_d+0x2>
    12ce:	90 91 a1 04 	lds	r25, 0x04A1	; 0x8004a1 <k_d+0x3>
    12d2:	0e 94 aa 10 	call	0x2154	; 0x2154 <__mulsf3>
    12d6:	0e 94 4b 10 	call	0x2096	; 0x2096 <__fixsfsi>
    12da:	4b 01       	movw	r8, r22
    12dc:	5c 01       	movw	r10, r24
    12de:	20 e0       	ldi	r18, 0x00	; 0
    12e0:	30 e0       	ldi	r19, 0x00	; 0
    12e2:	40 e0       	ldi	r20, 0x00	; 0
    12e4:	53 e4       	ldi	r21, 0x43	; 67
    12e6:	60 91 a2 04 	lds	r22, 0x04A2	; 0x8004a2 <k_i>
    12ea:	70 91 a3 04 	lds	r23, 0x04A3	; 0x8004a3 <k_i+0x1>
    12ee:	80 91 a4 04 	lds	r24, 0x04A4	; 0x8004a4 <k_i+0x2>
    12f2:	90 91 a5 04 	lds	r25, 0x04A5	; 0x8004a5 <k_i+0x3>
    12f6:	0e 94 aa 10 	call	0x2154	; 0x2154 <__mulsf3>
    12fa:	0e 94 4b 10 	call	0x2096	; 0x2096 <__fixsfsi>
    12fe:	6b 01       	movw	r12, r22
    1300:	7c 01       	movw	r14, r24
    1302:	20 e0       	ldi	r18, 0x00	; 0
    1304:	30 e0       	ldi	r19, 0x00	; 0
    1306:	40 e0       	ldi	r20, 0x00	; 0
    1308:	53 e4       	ldi	r21, 0x43	; 67
    130a:	60 91 a8 04 	lds	r22, 0x04A8	; 0x8004a8 <k_p>
    130e:	70 91 a9 04 	lds	r23, 0x04A9	; 0x8004a9 <k_p+0x1>
    1312:	80 91 aa 04 	lds	r24, 0x04AA	; 0x8004aa <k_p+0x2>
    1316:	90 91 ab 04 	lds	r25, 0x04AB	; 0x8004ab <k_p+0x3>
    131a:	0e 94 aa 10 	call	0x2154	; 0x2154 <__mulsf3>
    131e:	0e 94 4b 10 	call	0x2096	; 0x2096 <__fixsfsi>
    1322:	dc 01       	movw	r26, r24
    1324:	cb 01       	movw	r24, r22
    1326:	2c ea       	ldi	r18, 0xAC	; 172
    1328:	34 e0       	ldi	r19, 0x04	; 4
    132a:	a4 01       	movw	r20, r8
    132c:	b6 01       	movw	r22, r12
    132e:	0e 94 e3 12 	call	0x25c6	; 0x25c6 <pid_Init>
    1332:	80 e0       	ldi	r24, 0x00	; 0
    1334:	0e 94 4d 15 	call	0x2a9a	; 0x2a9a <setStatusLED>
    1338:	4a c0       	rjmp	.+148    	; 0x13ce <commandProcessor+0x16a>
    133a:	13 37       	cpi	r17, 0x73	; 115
    133c:	81 f4       	brne	.+32     	; 0x135e <commandProcessor+0xfa>
    133e:	8e e8       	ldi	r24, 0x8E	; 142
    1340:	92 e0       	ldi	r25, 0x02	; 2
    1342:	0e 94 0a 19 	call	0x3214	; 0x3214 <uart_puts_p>
    1346:	60 e0       	ldi	r22, 0x00	; 0
    1348:	80 e0       	ldi	r24, 0x00	; 0
    134a:	0e 94 58 12 	call	0x24b0	; 0x24b0 <motorDirection>
    134e:	0e 94 30 08 	call	0x1060	; 0x1060 <printMenu>
    1352:	80 e0       	ldi	r24, 0x00	; 0
    1354:	0e 94 4d 15 	call	0x2a9a	; 0x2a9a <setStatusLED>
    1358:	10 92 25 01 	sts	0x0125, r1	; 0x800125 <drive>
    135c:	38 c0       	rjmp	.+112    	; 0x13ce <commandProcessor+0x16a>
    135e:	17 36       	cpi	r17, 0x67	; 103
    1360:	d1 f4       	brne	.+52     	; 0x1396 <commandProcessor+0x132>
    1362:	82 e8       	ldi	r24, 0x82	; 130
    1364:	92 e0       	ldi	r25, 0x02	; 2
    1366:	0e 94 0a 19 	call	0x3214	; 0x3214 <uart_puts_p>
    136a:	61 e0       	ldi	r22, 0x01	; 1
    136c:	81 e0       	ldi	r24, 0x01	; 1
    136e:	0e 94 58 12 	call	0x24b0	; 0x24b0 <motorDirection>
    1372:	80 91 01 01 	lds	r24, 0x0101	; 0x800101 <baseSpeed>
    1376:	90 91 02 01 	lds	r25, 0x0102	; 0x800102 <baseSpeed+0x1>
    137a:	bc 01       	movw	r22, r24
    137c:	0e 94 94 12 	call	0x2528	; 0x2528 <motor_speed>
    1380:	8c ea       	ldi	r24, 0xAC	; 172
    1382:	94 e0       	ldi	r25, 0x04	; 4
    1384:	0e 94 bc 13 	call	0x2778	; 0x2778 <pid_Reset_Integrator>
    1388:	81 e0       	ldi	r24, 0x01	; 1
    138a:	0e 94 4d 15 	call	0x2a9a	; 0x2a9a <setStatusLED>
    138e:	81 e0       	ldi	r24, 0x01	; 1
    1390:	80 93 25 01 	sts	0x0125, r24	; 0x800125 <drive>
    1394:	1c c0       	rjmp	.+56     	; 0x13ce <commandProcessor+0x16a>
    1396:	14 37       	cpi	r17, 0x74	; 116
    1398:	d1 f4       	brne	.+52     	; 0x13ce <commandProcessor+0x16a>
    139a:	86 e7       	ldi	r24, 0x76	; 118
    139c:	92 e0       	ldi	r25, 0x02	; 2
    139e:	0e 94 0a 19 	call	0x3214	; 0x3214 <uart_puts_p>
    13a2:	83 e0       	ldi	r24, 0x03	; 3
    13a4:	0e 94 4d 15 	call	0x2a9a	; 0x2a9a <setStatusLED>
    13a8:	ce 01       	movw	r24, r28
    13aa:	01 96       	adiw	r24, 0x01	; 1
    13ac:	0e 94 af 08 	call	0x115e	; 0x115e <receiverNumber>
    13b0:	ce 01       	movw	r24, r28
    13b2:	01 96       	adiw	r24, 0x01	; 1
    13b4:	0e 94 e3 1d 	call	0x3bc6	; 0x3bc6 <atoi>
    13b8:	90 93 02 01 	sts	0x0102, r25	; 0x800102 <baseSpeed+0x1>
    13bc:	80 93 01 01 	sts	0x0101, r24	; 0x800101 <baseSpeed>
    13c0:	ce 01       	movw	r24, r28
    13c2:	01 96       	adiw	r24, 0x01	; 1
    13c4:	0e 94 fb 18 	call	0x31f6	; 0x31f6 <uart_puts>
    13c8:	80 e0       	ldi	r24, 0x00	; 0
    13ca:	0e 94 4d 15 	call	0x2a9a	; 0x2a9a <setStatusLED>
    13ce:	2a 96       	adiw	r28, 0x0a	; 10
    13d0:	0f b6       	in	r0, 0x3f	; 63
    13d2:	f8 94       	cli
    13d4:	de bf       	out	0x3e, r29	; 62
    13d6:	0f be       	out	0x3f, r0	; 63
    13d8:	cd bf       	out	0x3d, r28	; 61
    13da:	df 91       	pop	r29
    13dc:	cf 91       	pop	r28
    13de:	1f 91       	pop	r17
    13e0:	ff 90       	pop	r15
    13e2:	ef 90       	pop	r14
    13e4:	df 90       	pop	r13
    13e6:	cf 90       	pop	r12
    13e8:	bf 90       	pop	r11
    13ea:	af 90       	pop	r10
    13ec:	9f 90       	pop	r9
    13ee:	8f 90       	pop	r8
    13f0:	08 95       	ret

000013f2 <stop_run>:

void stop_run(void)
{
    13f2:	cf 93       	push	r28
    13f4:	df 93       	push	r29
	if( !PCF8574_data.select || !PCF8574_data.start || !PCF8574_data.down || !PCF8574_data.up )
    13f6:	80 91 7c 04 	lds	r24, 0x047C	; 0x80047c <PCF8574_data>
    13fa:	8f 70       	andi	r24, 0x0F	; 15
    13fc:	8f 30       	cpi	r24, 0x0F	; 15
    13fe:	d9 f0       	breq	.+54     	; 0x1436 <stop_run+0x44>
	{
		motorDirection(MOT_BREAK, MOT_BREAK);
    1400:	60 e0       	ldi	r22, 0x00	; 0
    1402:	80 e0       	ldi	r24, 0x00	; 0
    1404:	0e 94 58 12 	call	0x24b0	; 0x24b0 <motorDirection>
		
		schedulerDeleteTask(taskID[4]);
    1408:	c5 e0       	ldi	r28, 0x05	; 5
    140a:	d5 e0       	ldi	r29, 0x05	; 5
    140c:	8c 81       	ldd	r24, Y+4	; 0x04
    140e:	0e 94 a8 14 	call	0x2950	; 0x2950 <schedulerDeleteTask>
		taskID[2] = schedulerAddTask(task_pid_line_menu_render, 0, 400);
    1412:	40 e9       	ldi	r20, 0x90	; 144
    1414:	51 e0       	ldi	r21, 0x01	; 1
    1416:	60 e0       	ldi	r22, 0x00	; 0
    1418:	70 e0       	ldi	r23, 0x00	; 0
    141a:	82 e8       	ldi	r24, 0x82	; 130
    141c:	9a e0       	ldi	r25, 0x0A	; 10
    141e:	0e 94 6c 14 	call	0x28d8	; 0x28d8 <schedulerAddTask>
    1422:	8a 83       	std	Y+2, r24	; 0x02
		taskID[3] = schedulerAddTask(task_pid_line_keyHandler, 0, 100);
    1424:	44 e6       	ldi	r20, 0x64	; 100
    1426:	50 e0       	ldi	r21, 0x00	; 0
    1428:	60 e0       	ldi	r22, 0x00	; 0
    142a:	70 e0       	ldi	r23, 0x00	; 0
    142c:	87 ee       	ldi	r24, 0xE7	; 231
    142e:	9a e0       	ldi	r25, 0x0A	; 10
    1430:	0e 94 6c 14 	call	0x28d8	; 0x28d8 <schedulerAddTask>
    1434:	8b 83       	std	Y+3, r24	; 0x03
	}
}
    1436:	df 91       	pop	r29
    1438:	cf 91       	pop	r28
    143a:	08 95       	ret

0000143c <task_pid_line_follow_main>:
void task_pid_line_follow_main(void)
{
	static bool _firstRun = true;
	
	// Init
	if (_firstRun)
    143c:	80 91 00 01 	lds	r24, 0x0100	; 0x800100 <__data_start>
    1440:	88 23       	and	r24, r24
    1442:	b9 f1       	breq	.+110    	; 0x14b2 <task_pid_line_follow_main+0x76>
	{	
		_firstRun = false;
    1444:	10 92 00 01 	sts	0x0100, r1	; 0x800100 <__data_start>
		
		drive_setStateChangedHandler(driveHandler);
    1448:	80 e7       	ldi	r24, 0x70	; 112
    144a:	97 e0       	ldi	r25, 0x07	; 7
    144c:	0e 94 31 16 	call	0x2c62	; 0x2c62 <drive_setStateChangedHandler>
			 
		k_p = K_P;
    1450:	80 e0       	ldi	r24, 0x00	; 0
    1452:	90 e0       	ldi	r25, 0x00	; 0
    1454:	a0 e0       	ldi	r26, 0x00	; 0
    1456:	bf e3       	ldi	r27, 0x3F	; 63
    1458:	80 93 a8 04 	sts	0x04A8, r24	; 0x8004a8 <k_p>
    145c:	90 93 a9 04 	sts	0x04A9, r25	; 0x8004a9 <k_p+0x1>
    1460:	a0 93 aa 04 	sts	0x04AA, r26	; 0x8004aa <k_p+0x2>
    1464:	b0 93 ab 04 	sts	0x04AB, r27	; 0x8004ab <k_p+0x3>
		k_i = K_I;
    1468:	10 92 a2 04 	sts	0x04A2, r1	; 0x8004a2 <k_i>
    146c:	10 92 a3 04 	sts	0x04A3, r1	; 0x8004a3 <k_i+0x1>
    1470:	10 92 a4 04 	sts	0x04A4, r1	; 0x8004a4 <k_i+0x2>
    1474:	10 92 a5 04 	sts	0x04A5, r1	; 0x8004a5 <k_i+0x3>
		k_d = K_D;
    1478:	8d ec       	ldi	r24, 0xCD	; 205
    147a:	9c ec       	ldi	r25, 0xCC	; 204
    147c:	ac e4       	ldi	r26, 0x4C	; 76
    147e:	bf e3       	ldi	r27, 0x3F	; 63
    1480:	80 93 9e 04 	sts	0x049E, r24	; 0x80049e <k_d>
    1484:	90 93 9f 04 	sts	0x049F, r25	; 0x80049f <k_d+0x1>
    1488:	a0 93 a0 04 	sts	0x04A0, r26	; 0x8004a0 <k_d+0x2>
    148c:	b0 93 a1 04 	sts	0x04A1, r27	; 0x8004a1 <k_d+0x3>
		printMenu();
    1490:	0e 94 30 08 	call	0x1060	; 0x1060 <printMenu>
		//lcd_pid_show();
		pid_Init(K_P*SCALING_FACTOR, K_I*SCALING_FACTOR, K_D*SCALING_FACTOR, &pidLineData);
    1494:	2c ea       	ldi	r18, 0xAC	; 172
    1496:	34 e0       	ldi	r19, 0x04	; 4
    1498:	46 e6       	ldi	r20, 0x66	; 102
    149a:	50 e0       	ldi	r21, 0x00	; 0
    149c:	60 e0       	ldi	r22, 0x00	; 0
    149e:	70 e0       	ldi	r23, 0x00	; 0
    14a0:	80 e4       	ldi	r24, 0x40	; 64
    14a2:	90 e0       	ldi	r25, 0x00	; 0
    14a4:	0e 94 e3 12 	call	0x25c6	; 0x25c6 <pid_Init>
		systemStatus.pwrON = true;
    14a8:	ed e7       	ldi	r30, 0x7D	; 125
    14aa:	f4 e0       	ldi	r31, 0x04	; 4
    14ac:	80 81       	ld	r24, Z
    14ae:	81 60       	ori	r24, 0x01	; 1
    14b0:	80 83       	st	Z, r24
	}
		
	commandProcessor();
    14b2:	0e 94 32 09 	call	0x1264	; 0x1264 <commandProcessor>
	
	stop_run();
    14b6:	0e 94 f9 09 	call	0x13f2	; 0x13f2 <stop_run>
    14ba:	08 95       	ret

000014bc <menu_function33>:
	
	_delay_ms(500);
}

void menu_function33(void)
{
    14bc:	08 95       	ret

000014be <menu_function32>:
}


void menu_function32(void)
{	
	menu_scheduler_emty();
    14be:	0e 94 ff 0b 	call	0x17fe	; 0x17fe <menu_scheduler_emty>
	taskID[4] = schedulerAddTask(task_pid_line_follow_main, 10,20);
    14c2:	44 e1       	ldi	r20, 0x14	; 20
    14c4:	50 e0       	ldi	r21, 0x00	; 0
    14c6:	6a e0       	ldi	r22, 0x0A	; 10
    14c8:	70 e0       	ldi	r23, 0x00	; 0
    14ca:	8e e1       	ldi	r24, 0x1E	; 30
    14cc:	9a e0       	ldi	r25, 0x0A	; 10
    14ce:	0e 94 6c 14 	call	0x28d8	; 0x28d8 <schedulerAddTask>
    14d2:	80 93 09 05 	sts	0x0509, r24	; 0x800509 <taskID+0x4>
	lcd_clear();
    14d6:	0e 94 bd 0d 	call	0x1b7a	; 0x1b7a <lcd_clear>
	lcd_render();
    14da:	0e 94 54 0f 	call	0x1ea8	; 0x1ea8 <lcd_render>
	#else
		//round up by default
		__ticks_dc = (uint32_t)(ceil(fabs(__tmp)));
	#endif

	__builtin_avr_delay_cycles(__ticks_dc);
    14de:	2f ef       	ldi	r18, 0xFF	; 255
    14e0:	89 e6       	ldi	r24, 0x69	; 105
    14e2:	98 e1       	ldi	r25, 0x18	; 24
    14e4:	21 50       	subi	r18, 0x01	; 1
    14e6:	80 40       	sbci	r24, 0x00	; 0
    14e8:	90 40       	sbci	r25, 0x00	; 0
    14ea:	e1 f7       	brne	.-8      	; 0x14e4 <menu_function32+0x26>
    14ec:	00 c0       	rjmp	.+0      	; 0x14ee <menu_function32+0x30>
    14ee:	00 00       	nop
    14f0:	08 95       	ret

000014f2 <menu_function34>:
	
}

void menu_function34(void)
{
	menu_scheduler_emty();
    14f2:	0e 94 ff 0b 	call	0x17fe	; 0x17fe <menu_scheduler_emty>
	schedulerDeleteTask(taskID[4]);
    14f6:	80 91 09 05 	lds	r24, 0x0509	; 0x800509 <taskID+0x4>
    14fa:	0e 94 a8 14 	call	0x2950	; 0x2950 <schedulerDeleteTask>
	menu_scheduler_restore();
    14fe:	0e 94 e6 0b 	call	0x17cc	; 0x17cc <menu_scheduler_restore>
    1502:	08 95       	ret

00001504 <task_pid_line_menu_render>:
	{ menu_string34, menu_function34 }
};
		

void task_pid_line_menu_render(void)
{
    1504:	cf 92       	push	r12
    1506:	df 92       	push	r13
    1508:	ef 92       	push	r14
    150a:	ff 92       	push	r15
    150c:	0f 93       	push	r16
    150e:	1f 93       	push	r17
    1510:	cf 93       	push	r28
    1512:	df 93       	push	r29
    1514:	cd b7       	in	r28, 0x3d	; 61
    1516:	de b7       	in	r29, 0x3e	; 62
    1518:	60 97       	sbiw	r28, 0x10	; 16
    151a:	0f b6       	in	r0, 0x3f	; 63
    151c:	f8 94       	cli
    151e:	de bf       	out	0x3e, r29	; 62
    1520:	0f be       	out	0x3f, r0	; 63
    1522:	cd bf       	out	0x3d, r28	; 61
	char buffer[16];
	int8_t menu_offset = 0;
	
	
	if (line_cursor >= MENU_DISP_NUM) menu_offset = line_cursor + 1 - MENU_DISP_NUM;
    1524:	80 91 06 01 	lds	r24, 0x0106	; 0x800106 <line_cursor>
    1528:	86 30       	cpi	r24, 0x06	; 6
    152a:	1c f0       	brlt	.+6      	; 0x1532 <task_pid_line_menu_render+0x2e>
    152c:	1b ef       	ldi	r17, 0xFB	; 251
    152e:	18 0f       	add	r17, r24
    1530:	01 c0       	rjmp	.+2      	; 0x1534 <task_pid_line_menu_render+0x30>
		

void task_pid_line_menu_render(void)
{
	char buffer[16];
	int8_t menu_offset = 0;
    1532:	10 e0       	ldi	r17, 0x00	; 0
	
	
	if (line_cursor >= MENU_DISP_NUM) menu_offset = line_cursor + 1 - MENU_DISP_NUM;
	
	lcd_clear();
    1534:	0e 94 bd 0d 	call	0x1b7a	; 0x1b7a <lcd_clear>
    1538:	c1 2e       	mov	r12, r17
    153a:	11 0f       	add	r17, r17
    153c:	dd 08       	sbc	r13, r13
    153e:	c6 01       	movw	r24, r12
    1540:	88 0f       	add	r24, r24
    1542:	99 1f       	adc	r25, r25
    1544:	88 0f       	add	r24, r24
    1546:	99 1f       	adc	r25, r25
    1548:	9c 01       	movw	r18, r24
    154a:	20 51       	subi	r18, 0x10	; 16
    154c:	3c 4f       	sbci	r19, 0xFC	; 252
    154e:	79 01       	movw	r14, r18
    1550:	00 e0       	ldi	r16, 0x00	; 0
    1552:	10 e0       	ldi	r17, 0x00	; 0
	
	for (uint8_t menuPointer=0; menuPointer<MENU_MAX; menuPointer++)
	{
		dispSetCusor(0, menuPointer, 1);
    1554:	41 e0       	ldi	r20, 0x01	; 1
    1556:	60 2f       	mov	r22, r16
    1558:	80 e0       	ldi	r24, 0x00	; 0
    155a:	0e 94 46 07 	call	0xe8c	; 0xe8c <dispSetCusor>
		strcpy_P(buffer, (char*)pgm_read_word(&(line_menu[menuPointer + menu_offset].text)));
    155e:	f7 01       	movw	r30, r14
    1560:	65 91       	lpm	r22, Z+
    1562:	74 91       	lpm	r23, Z
    1564:	ce 01       	movw	r24, r28
    1566:	01 96       	adiw	r24, 0x01	; 1
    1568:	0e 94 d9 1e 	call	0x3db2	; 0x3db2 <strcpy_P>
		
		if (line_cursor == menuPointer + menu_offset)	 lcd_write_string(buffer, 1, LCD_WHITE);
    156c:	80 91 06 01 	lds	r24, 0x0106	; 0x800106 <line_cursor>
    1570:	08 2e       	mov	r0, r24
    1572:	00 0c       	add	r0, r0
    1574:	99 0b       	sbc	r25, r25
    1576:	98 01       	movw	r18, r16
    1578:	2c 0d       	add	r18, r12
    157a:	3d 1d       	adc	r19, r13
    157c:	82 17       	cp	r24, r18
    157e:	93 07       	cpc	r25, r19
    1580:	39 f4       	brne	.+14     	; 0x1590 <task_pid_line_menu_render+0x8c>
    1582:	40 e0       	ldi	r20, 0x00	; 0
    1584:	61 e0       	ldi	r22, 0x01	; 1
    1586:	ce 01       	movw	r24, r28
    1588:	01 96       	adiw	r24, 0x01	; 1
    158a:	0e 94 f4 0e 	call	0x1de8	; 0x1de8 <lcd_write_string>
    158e:	06 c0       	rjmp	.+12     	; 0x159c <task_pid_line_menu_render+0x98>
		else											 lcd_write_string(buffer, 1, LCD_BLACK);
    1590:	41 e0       	ldi	r20, 0x01	; 1
    1592:	61 e0       	ldi	r22, 0x01	; 1
    1594:	ce 01       	movw	r24, r28
    1596:	01 96       	adiw	r24, 0x01	; 1
    1598:	0e 94 f4 0e 	call	0x1de8	; 0x1de8 <lcd_write_string>
    159c:	0f 5f       	subi	r16, 0xFF	; 255
    159e:	1f 4f       	sbci	r17, 0xFF	; 255
    15a0:	34 e0       	ldi	r19, 0x04	; 4
    15a2:	e3 0e       	add	r14, r19
    15a4:	f1 1c       	adc	r15, r1
	
	if (line_cursor >= MENU_DISP_NUM) menu_offset = line_cursor + 1 - MENU_DISP_NUM;
	
	lcd_clear();
	
	for (uint8_t menuPointer=0; menuPointer<MENU_MAX; menuPointer++)
    15a6:	04 30       	cpi	r16, 0x04	; 4
    15a8:	11 05       	cpc	r17, r1
    15aa:	a1 f6       	brne	.-88     	; 0x1554 <task_pid_line_menu_render+0x50>
		
		if (line_cursor == menuPointer + menu_offset)	 lcd_write_string(buffer, 1, LCD_WHITE);
		else											 lcd_write_string(buffer, 1, LCD_BLACK);
	}
	
	lcd_render();
    15ac:	0e 94 54 0f 	call	0x1ea8	; 0x1ea8 <lcd_render>
	
}
    15b0:	60 96       	adiw	r28, 0x10	; 16
    15b2:	0f b6       	in	r0, 0x3f	; 63
    15b4:	f8 94       	cli
    15b6:	de bf       	out	0x3e, r29	; 62
    15b8:	0f be       	out	0x3f, r0	; 63
    15ba:	cd bf       	out	0x3d, r28	; 61
    15bc:	df 91       	pop	r29
    15be:	cf 91       	pop	r28
    15c0:	1f 91       	pop	r17
    15c2:	0f 91       	pop	r16
    15c4:	ff 90       	pop	r15
    15c6:	ef 90       	pop	r14
    15c8:	df 90       	pop	r13
    15ca:	cf 90       	pop	r12
    15cc:	08 95       	ret

000015ce <task_pid_line_keyHandler>:
	if (!PCF8574_data.select && select_sw)
	{
		// NOP
	}
	
	if (!PCF8574_data.start && start_sw)
    15ce:	80 91 7c 04 	lds	r24, 0x047C	; 0x80047c <PCF8574_data>
    15d2:	81 fd       	sbrc	r24, 1
    15d4:	10 c0       	rjmp	.+32     	; 0x15f6 <task_pid_line_keyHandler+0x28>
    15d6:	80 91 05 01 	lds	r24, 0x0105	; 0x800105 <start_sw.2691>
    15da:	88 23       	and	r24, r24
    15dc:	61 f0       	breq	.+24     	; 0x15f6 <task_pid_line_keyHandler+0x28>
	{
		entryCall = (generic_func_ptr) pgm_read_word(&line_menu[line_cursor].fp);
    15de:	e0 91 06 01 	lds	r30, 0x0106	; 0x800106 <line_cursor>
    15e2:	84 e0       	ldi	r24, 0x04	; 4
    15e4:	e8 02       	muls	r30, r24
    15e6:	f0 01       	movw	r30, r0
    15e8:	11 24       	eor	r1, r1
    15ea:	ee 50       	subi	r30, 0x0E	; 14
    15ec:	fc 4f       	sbci	r31, 0xFC	; 252
    15ee:	85 91       	lpm	r24, Z+
    15f0:	94 91       	lpm	r25, Z
		
		entryCall();
    15f2:	fc 01       	movw	r30, r24
    15f4:	09 95       	icall
	}
	
	if (!PCF8574_data.up && up_sw)
    15f6:	80 91 7c 04 	lds	r24, 0x047C	; 0x80047c <PCF8574_data>
    15fa:	82 fd       	sbrc	r24, 2
    15fc:	09 c0       	rjmp	.+18     	; 0x1610 <task_pid_line_keyHandler+0x42>
    15fe:	90 91 04 01 	lds	r25, 0x0104	; 0x800104 <up_sw.2692>
    1602:	99 23       	and	r25, r25
    1604:	29 f0       	breq	.+10     	; 0x1610 <task_pid_line_keyHandler+0x42>
	{
		line_cursor++;
    1606:	90 91 06 01 	lds	r25, 0x0106	; 0x800106 <line_cursor>
    160a:	9f 5f       	subi	r25, 0xFF	; 255
    160c:	90 93 06 01 	sts	0x0106, r25	; 0x800106 <line_cursor>
	}
	
	if (!PCF8574_data.down && down_sw)
    1610:	83 fd       	sbrc	r24, 3
    1612:	09 c0       	rjmp	.+18     	; 0x1626 <task_pid_line_keyHandler+0x58>
    1614:	80 91 03 01 	lds	r24, 0x0103	; 0x800103 <down_sw.2693>
    1618:	88 23       	and	r24, r24
    161a:	29 f0       	breq	.+10     	; 0x1626 <task_pid_line_keyHandler+0x58>
	{
		line_cursor--;
    161c:	80 91 06 01 	lds	r24, 0x0106	; 0x800106 <line_cursor>
    1620:	81 50       	subi	r24, 0x01	; 1
    1622:	80 93 06 01 	sts	0x0106, r24	; 0x800106 <line_cursor>
	}
	
	if (line_cursor >= MENU_MAX)	line_cursor = 1;
    1626:	80 91 06 01 	lds	r24, 0x0106	; 0x800106 <line_cursor>
    162a:	84 30       	cpi	r24, 0x04	; 4
    162c:	24 f0       	brlt	.+8      	; 0x1636 <task_pid_line_keyHandler+0x68>
    162e:	81 e0       	ldi	r24, 0x01	; 1
    1630:	80 93 06 01 	sts	0x0106, r24	; 0x800106 <line_cursor>
    1634:	05 c0       	rjmp	.+10     	; 0x1640 <task_pid_line_keyHandler+0x72>
	
	if (line_cursor < 1)	line_cursor = MENU_MAX - 1;
    1636:	18 16       	cp	r1, r24
    1638:	1c f0       	brlt	.+6      	; 0x1640 <task_pid_line_keyHandler+0x72>
    163a:	83 e0       	ldi	r24, 0x03	; 3
    163c:	80 93 06 01 	sts	0x0106, r24	; 0x800106 <line_cursor>
	
	select_sw = PCF8574_data.select;
	start_sw = PCF8574_data.start;
    1640:	80 91 7c 04 	lds	r24, 0x047C	; 0x80047c <PCF8574_data>
    1644:	81 fb       	bst	r24, 1
    1646:	99 27       	eor	r25, r25
    1648:	90 f9       	bld	r25, 0
    164a:	90 93 05 01 	sts	0x0105, r25	; 0x800105 <start_sw.2691>
	up_sw = PCF8574_data.up;
    164e:	82 fb       	bst	r24, 2
    1650:	99 27       	eor	r25, r25
    1652:	90 f9       	bld	r25, 0
    1654:	90 93 04 01 	sts	0x0104, r25	; 0x800104 <up_sw.2692>
	down_sw = PCF8574_data.down;
    1658:	83 fb       	bst	r24, 3
    165a:	88 27       	eor	r24, r24
    165c:	80 f9       	bld	r24, 0
    165e:	80 93 03 01 	sts	0x0103, r24	; 0x800103 <down_sw.2693>
    1662:	08 95       	ret

00001664 <main_menu_key_update>:
    1664:	80 91 7c 04 	lds	r24, 0x047C	; 0x80047c <PCF8574_data>
    1668:	81 fd       	sbrc	r24, 1
    166a:	10 c0       	rjmp	.+32     	; 0x168c <main_menu_key_update+0x28>
    166c:	80 91 09 01 	lds	r24, 0x0109	; 0x800109 <start_sw.2709>
    1670:	88 23       	and	r24, r24
    1672:	61 f0       	breq	.+24     	; 0x168c <main_menu_key_update+0x28>
    1674:	e0 91 0a 01 	lds	r30, 0x010A	; 0x80010a <cursor>
    1678:	84 e0       	ldi	r24, 0x04	; 4
    167a:	e8 02       	muls	r30, r24
    167c:	f0 01       	movw	r30, r0
    167e:	11 24       	eor	r1, r1
    1680:	eb 5c       	subi	r30, 0xCB	; 203
    1682:	fb 4f       	sbci	r31, 0xFB	; 251
    1684:	85 91       	lpm	r24, Z+
    1686:	94 91       	lpm	r25, Z
    1688:	fc 01       	movw	r30, r24
    168a:	09 95       	icall
    168c:	80 91 7c 04 	lds	r24, 0x047C	; 0x80047c <PCF8574_data>
    1690:	82 fd       	sbrc	r24, 2
    1692:	09 c0       	rjmp	.+18     	; 0x16a6 <main_menu_key_update+0x42>
    1694:	90 91 08 01 	lds	r25, 0x0108	; 0x800108 <up_sw.2710>
    1698:	99 23       	and	r25, r25
    169a:	29 f0       	breq	.+10     	; 0x16a6 <main_menu_key_update+0x42>
    169c:	90 91 0a 01 	lds	r25, 0x010A	; 0x80010a <cursor>
    16a0:	9f 5f       	subi	r25, 0xFF	; 255
    16a2:	90 93 0a 01 	sts	0x010A, r25	; 0x80010a <cursor>
    16a6:	83 fd       	sbrc	r24, 3
    16a8:	09 c0       	rjmp	.+18     	; 0x16bc <main_menu_key_update+0x58>
    16aa:	80 91 07 01 	lds	r24, 0x0107	; 0x800107 <down_sw.2711>
    16ae:	88 23       	and	r24, r24
    16b0:	29 f0       	breq	.+10     	; 0x16bc <main_menu_key_update+0x58>
    16b2:	80 91 0a 01 	lds	r24, 0x010A	; 0x80010a <cursor>
    16b6:	81 50       	subi	r24, 0x01	; 1
    16b8:	80 93 0a 01 	sts	0x010A, r24	; 0x80010a <cursor>
    16bc:	80 91 0a 01 	lds	r24, 0x010A	; 0x80010a <cursor>
    16c0:	88 30       	cpi	r24, 0x08	; 8
    16c2:	24 f0       	brlt	.+8      	; 0x16cc <main_menu_key_update+0x68>
    16c4:	81 e0       	ldi	r24, 0x01	; 1
    16c6:	80 93 0a 01 	sts	0x010A, r24	; 0x80010a <cursor>
    16ca:	05 c0       	rjmp	.+10     	; 0x16d6 <main_menu_key_update+0x72>
    16cc:	18 16       	cp	r1, r24
    16ce:	1c f0       	brlt	.+6      	; 0x16d6 <main_menu_key_update+0x72>
    16d0:	87 e0       	ldi	r24, 0x07	; 7
    16d2:	80 93 0a 01 	sts	0x010A, r24	; 0x80010a <cursor>
    16d6:	80 91 7c 04 	lds	r24, 0x047C	; 0x80047c <PCF8574_data>
    16da:	81 fb       	bst	r24, 1
    16dc:	99 27       	eor	r25, r25
    16de:	90 f9       	bld	r25, 0
    16e0:	90 93 09 01 	sts	0x0109, r25	; 0x800109 <start_sw.2709>
    16e4:	82 fb       	bst	r24, 2
    16e6:	99 27       	eor	r25, r25
    16e8:	90 f9       	bld	r25, 0
    16ea:	90 93 08 01 	sts	0x0108, r25	; 0x800108 <up_sw.2710>
    16ee:	83 fb       	bst	r24, 3
    16f0:	88 27       	eor	r24, r24
    16f2:	80 f9       	bld	r24, 0
    16f4:	80 93 07 01 	sts	0x0107, r24	; 0x800107 <down_sw.2711>
    16f8:	08 95       	ret

000016fa <menu_function05>:
    16fa:	08 95       	ret

000016fc <menu_function06>:
    16fc:	08 95       	ret

000016fe <menu_function07>:
    16fe:	08 95       	ret

00001700 <menu_function08>:
    1700:	08 95       	ret

00001702 <main_menu_render>:
    1702:	cf 92       	push	r12
    1704:	df 92       	push	r13
    1706:	ef 92       	push	r14
    1708:	ff 92       	push	r15
    170a:	0f 93       	push	r16
    170c:	1f 93       	push	r17
    170e:	cf 93       	push	r28
    1710:	df 93       	push	r29
    1712:	cd b7       	in	r28, 0x3d	; 61
    1714:	de b7       	in	r29, 0x3e	; 62
    1716:	60 97       	sbiw	r28, 0x10	; 16
    1718:	0f b6       	in	r0, 0x3f	; 63
    171a:	f8 94       	cli
    171c:	de bf       	out	0x3e, r29	; 62
    171e:	0f be       	out	0x3f, r0	; 63
    1720:	cd bf       	out	0x3d, r28	; 61
    1722:	80 91 0a 01 	lds	r24, 0x010A	; 0x80010a <cursor>
    1726:	86 30       	cpi	r24, 0x06	; 6
    1728:	1c f0       	brlt	.+6      	; 0x1730 <main_menu_render+0x2e>
    172a:	1b ef       	ldi	r17, 0xFB	; 251
    172c:	18 0f       	add	r17, r24
    172e:	01 c0       	rjmp	.+2      	; 0x1732 <main_menu_render+0x30>
    1730:	10 e0       	ldi	r17, 0x00	; 0
    1732:	0e 94 bd 0d 	call	0x1b7a	; 0x1b7a <lcd_clear>
    1736:	c1 2e       	mov	r12, r17
    1738:	11 0f       	add	r17, r17
    173a:	dd 08       	sbc	r13, r13
    173c:	c6 01       	movw	r24, r12
    173e:	88 0f       	add	r24, r24
    1740:	99 1f       	adc	r25, r25
    1742:	88 0f       	add	r24, r24
    1744:	99 1f       	adc	r25, r25
    1746:	9c 01       	movw	r18, r24
    1748:	2d 5c       	subi	r18, 0xCD	; 205
    174a:	3b 4f       	sbci	r19, 0xFB	; 251
    174c:	79 01       	movw	r14, r18
    174e:	00 e0       	ldi	r16, 0x00	; 0
    1750:	10 e0       	ldi	r17, 0x00	; 0
    1752:	41 e0       	ldi	r20, 0x01	; 1
    1754:	60 2f       	mov	r22, r16
    1756:	80 e0       	ldi	r24, 0x00	; 0
    1758:	0e 94 46 07 	call	0xe8c	; 0xe8c <dispSetCusor>
    175c:	f7 01       	movw	r30, r14
    175e:	65 91       	lpm	r22, Z+
    1760:	74 91       	lpm	r23, Z
    1762:	ce 01       	movw	r24, r28
    1764:	01 96       	adiw	r24, 0x01	; 1
    1766:	0e 94 d9 1e 	call	0x3db2	; 0x3db2 <strcpy_P>
    176a:	80 91 0a 01 	lds	r24, 0x010A	; 0x80010a <cursor>
    176e:	08 2e       	mov	r0, r24
    1770:	00 0c       	add	r0, r0
    1772:	99 0b       	sbc	r25, r25
    1774:	98 01       	movw	r18, r16
    1776:	2c 0d       	add	r18, r12
    1778:	3d 1d       	adc	r19, r13
    177a:	82 17       	cp	r24, r18
    177c:	93 07       	cpc	r25, r19
    177e:	39 f4       	brne	.+14     	; 0x178e <main_menu_render+0x8c>
    1780:	40 e0       	ldi	r20, 0x00	; 0
    1782:	61 e0       	ldi	r22, 0x01	; 1
    1784:	ce 01       	movw	r24, r28
    1786:	01 96       	adiw	r24, 0x01	; 1
    1788:	0e 94 f4 0e 	call	0x1de8	; 0x1de8 <lcd_write_string>
    178c:	06 c0       	rjmp	.+12     	; 0x179a <main_menu_render+0x98>
    178e:	41 e0       	ldi	r20, 0x01	; 1
    1790:	61 e0       	ldi	r22, 0x01	; 1
    1792:	ce 01       	movw	r24, r28
    1794:	01 96       	adiw	r24, 0x01	; 1
    1796:	0e 94 f4 0e 	call	0x1de8	; 0x1de8 <lcd_write_string>
    179a:	0f 5f       	subi	r16, 0xFF	; 255
    179c:	1f 4f       	sbci	r17, 0xFF	; 255
    179e:	34 e0       	ldi	r19, 0x04	; 4
    17a0:	e3 0e       	add	r14, r19
    17a2:	f1 1c       	adc	r15, r1
    17a4:	06 30       	cpi	r16, 0x06	; 6
    17a6:	11 05       	cpc	r17, r1
    17a8:	a1 f6       	brne	.-88     	; 0x1752 <main_menu_render+0x50>
    17aa:	0e 94 54 0f 	call	0x1ea8	; 0x1ea8 <lcd_render>
    17ae:	60 96       	adiw	r28, 0x10	; 16
    17b0:	0f b6       	in	r0, 0x3f	; 63
    17b2:	f8 94       	cli
    17b4:	de bf       	out	0x3e, r29	; 62
    17b6:	0f be       	out	0x3f, r0	; 63
    17b8:	cd bf       	out	0x3d, r28	; 61
    17ba:	df 91       	pop	r29
    17bc:	cf 91       	pop	r28
    17be:	1f 91       	pop	r17
    17c0:	0f 91       	pop	r16
    17c2:	ff 90       	pop	r15
    17c4:	ef 90       	pop	r14
    17c6:	df 90       	pop	r13
    17c8:	cf 90       	pop	r12
    17ca:	08 95       	ret

000017cc <menu_scheduler_restore>:
    17cc:	cf 93       	push	r28
    17ce:	df 93       	push	r29
    17d0:	44 ef       	ldi	r20, 0xF4	; 244
    17d2:	51 e0       	ldi	r21, 0x01	; 1
    17d4:	64 e1       	ldi	r22, 0x14	; 20
    17d6:	70 e0       	ldi	r23, 0x00	; 0
    17d8:	81 e8       	ldi	r24, 0x81	; 129
    17da:	9b e0       	ldi	r25, 0x0B	; 11
    17dc:	0e 94 6c 14 	call	0x28d8	; 0x28d8 <schedulerAddTask>
    17e0:	c5 e0       	ldi	r28, 0x05	; 5
    17e2:	d5 e0       	ldi	r29, 0x05	; 5
    17e4:	8a 83       	std	Y+2, r24	; 0x02
    17e6:	44 e6       	ldi	r20, 0x64	; 100
    17e8:	50 e0       	ldi	r21, 0x00	; 0
    17ea:	6a e0       	ldi	r22, 0x0A	; 10
    17ec:	70 e0       	ldi	r23, 0x00	; 0
    17ee:	82 e3       	ldi	r24, 0x32	; 50
    17f0:	9b e0       	ldi	r25, 0x0B	; 11
    17f2:	0e 94 6c 14 	call	0x28d8	; 0x28d8 <schedulerAddTask>
    17f6:	8b 83       	std	Y+3, r24	; 0x03
    17f8:	df 91       	pop	r29
    17fa:	cf 91       	pop	r28
    17fc:	08 95       	ret

000017fe <menu_scheduler_emty>:
    17fe:	cf 93       	push	r28
    1800:	df 93       	push	r29
    1802:	c5 e0       	ldi	r28, 0x05	; 5
    1804:	d5 e0       	ldi	r29, 0x05	; 5
    1806:	8a 81       	ldd	r24, Y+2	; 0x02
    1808:	0e 94 a8 14 	call	0x2950	; 0x2950 <schedulerDeleteTask>
    180c:	8b 81       	ldd	r24, Y+3	; 0x03
    180e:	0e 94 a8 14 	call	0x2950	; 0x2950 <schedulerDeleteTask>
    1812:	df 91       	pop	r29
    1814:	cf 91       	pop	r28
    1816:	08 95       	ret

00001818 <menu_function02>:
    1818:	0e 94 ff 0b 	call	0x17fe	; 0x17fe <menu_scheduler_emty>
    181c:	44 e6       	ldi	r20, 0x64	; 100
    181e:	50 e0       	ldi	r21, 0x00	; 0
    1820:	60 e0       	ldi	r22, 0x00	; 0
    1822:	70 e0       	ldi	r23, 0x00	; 0
    1824:	8f e4       	ldi	r24, 0x4F	; 79
    1826:	9d e0       	ldi	r25, 0x0D	; 13
    1828:	0e 94 6c 14 	call	0x28d8	; 0x28d8 <schedulerAddTask>
    182c:	80 93 09 05 	sts	0x0509, r24	; 0x800509 <taskID+0x4>
    1830:	08 95       	ret

00001832 <menu_function03>:
    1832:	cf 93       	push	r28
    1834:	df 93       	push	r29
    1836:	0e 94 ff 0b 	call	0x17fe	; 0x17fe <menu_scheduler_emty>
    183a:	2f ef       	ldi	r18, 0xFF	; 255
    183c:	89 e6       	ldi	r24, 0x69	; 105
    183e:	98 e1       	ldi	r25, 0x18	; 24
    1840:	21 50       	subi	r18, 0x01	; 1
    1842:	80 40       	sbci	r24, 0x00	; 0
    1844:	90 40       	sbci	r25, 0x00	; 0
    1846:	e1 f7       	brne	.-8      	; 0x1840 <menu_function03+0xe>
    1848:	00 c0       	rjmp	.+0      	; 0x184a <menu_function03+0x18>
    184a:	00 00       	nop
    184c:	40 e9       	ldi	r20, 0x90	; 144
    184e:	51 e0       	ldi	r21, 0x01	; 1
    1850:	60 e0       	ldi	r22, 0x00	; 0
    1852:	70 e0       	ldi	r23, 0x00	; 0
    1854:	8b e9       	ldi	r24, 0x9B	; 155
    1856:	9f e0       	ldi	r25, 0x0F	; 15
    1858:	0e 94 6c 14 	call	0x28d8	; 0x28d8 <schedulerAddTask>
    185c:	c5 e0       	ldi	r28, 0x05	; 5
    185e:	d5 e0       	ldi	r29, 0x05	; 5
    1860:	8a 83       	std	Y+2, r24	; 0x02
    1862:	44 e6       	ldi	r20, 0x64	; 100
    1864:	50 e0       	ldi	r21, 0x00	; 0
    1866:	60 e0       	ldi	r22, 0x00	; 0
    1868:	70 e0       	ldi	r23, 0x00	; 0
    186a:	80 e0       	ldi	r24, 0x00	; 0
    186c:	90 e1       	ldi	r25, 0x10	; 16
    186e:	0e 94 6c 14 	call	0x28d8	; 0x28d8 <schedulerAddTask>
    1872:	8b 83       	std	Y+3, r24	; 0x03
    1874:	df 91       	pop	r29
    1876:	cf 91       	pop	r28
    1878:	08 95       	ret

0000187a <menu_function04>:
    187a:	cf 93       	push	r28
    187c:	df 93       	push	r29
    187e:	0e 94 ff 0b 	call	0x17fe	; 0x17fe <menu_scheduler_emty>
    1882:	2f ef       	ldi	r18, 0xFF	; 255
    1884:	89 e6       	ldi	r24, 0x69	; 105
    1886:	98 e1       	ldi	r25, 0x18	; 24
    1888:	21 50       	subi	r18, 0x01	; 1
    188a:	80 40       	sbci	r24, 0x00	; 0
    188c:	90 40       	sbci	r25, 0x00	; 0
    188e:	e1 f7       	brne	.-8      	; 0x1888 <menu_function04+0xe>
    1890:	00 c0       	rjmp	.+0      	; 0x1892 <menu_function04+0x18>
    1892:	00 00       	nop
    1894:	40 e9       	ldi	r20, 0x90	; 144
    1896:	51 e0       	ldi	r21, 0x01	; 1
    1898:	60 e0       	ldi	r22, 0x00	; 0
    189a:	70 e0       	ldi	r23, 0x00	; 0
    189c:	82 e8       	ldi	r24, 0x82	; 130
    189e:	9a e0       	ldi	r25, 0x0A	; 10
    18a0:	0e 94 6c 14 	call	0x28d8	; 0x28d8 <schedulerAddTask>
    18a4:	c5 e0       	ldi	r28, 0x05	; 5
    18a6:	d5 e0       	ldi	r29, 0x05	; 5
    18a8:	8a 83       	std	Y+2, r24	; 0x02
    18aa:	44 e6       	ldi	r20, 0x64	; 100
    18ac:	50 e0       	ldi	r21, 0x00	; 0
    18ae:	60 e0       	ldi	r22, 0x00	; 0
    18b0:	70 e0       	ldi	r23, 0x00	; 0
    18b2:	87 ee       	ldi	r24, 0xE7	; 231
    18b4:	9a e0       	ldi	r25, 0x0A	; 10
    18b6:	0e 94 6c 14 	call	0x28d8	; 0x28d8 <schedulerAddTask>
    18ba:	8b 83       	std	Y+3, r24	; 0x03
    18bc:	df 91       	pop	r29
    18be:	cf 91       	pop	r28
    18c0:	08 95       	ret

000018c2 <comandProzessor>:
    18c2:	0e 94 c8 18 	call	0x3190	; 0x3190 <uart_getc>
    18c6:	81 15       	cp	r24, r1
    18c8:	21 e0       	ldi	r18, 0x01	; 1
    18ca:	92 07       	cpc	r25, r18
    18cc:	09 f4       	brne	.+2      	; 0x18d0 <comandProzessor+0xe>
    18ce:	67 c0       	rjmp	.+206    	; 0x199e <comandProzessor+0xdc>
    18d0:	82 33       	cpi	r24, 0x32	; 50
    18d2:	e9 f0       	breq	.+58     	; 0x190e <comandProzessor+0x4c>
    18d4:	30 f4       	brcc	.+12     	; 0x18e2 <comandProzessor+0x20>
    18d6:	80 33       	cpi	r24, 0x30	; 48
    18d8:	09 f4       	brne	.+2      	; 0x18dc <comandProzessor+0x1a>
    18da:	4c c0       	rjmp	.+152    	; 0x1974 <comandProzessor+0xb2>
    18dc:	81 33       	cpi	r24, 0x31	; 49
    18de:	31 f0       	breq	.+12     	; 0x18ec <comandProzessor+0x2a>
    18e0:	54 c0       	rjmp	.+168    	; 0x198a <comandProzessor+0xc8>
    18e2:	83 33       	cpi	r24, 0x33	; 51
    18e4:	29 f1       	breq	.+74     	; 0x1930 <comandProzessor+0x6e>
    18e6:	84 33       	cpi	r24, 0x34	; 52
    18e8:	a1 f1       	breq	.+104    	; 0x1952 <comandProzessor+0x90>
    18ea:	4f c0       	rjmp	.+158    	; 0x198a <comandProzessor+0xc8>
    18ec:	80 e0       	ldi	r24, 0x00	; 0
    18ee:	0e 94 4d 15 	call	0x2a9a	; 0x2a9a <setStatusLED>
    18f2:	83 e0       	ldi	r24, 0x03	; 3
    18f4:	0e 94 5e 15 	call	0x2abc	; 0x2abc <enableDevice>
    18f8:	64 eb       	ldi	r22, 0xB4	; 180
    18fa:	70 e0       	ldi	r23, 0x00	; 0
    18fc:	84 eb       	ldi	r24, 0xB4	; 180
    18fe:	90 e0       	ldi	r25, 0x00	; 0
    1900:	0e 94 94 12 	call	0x2528	; 0x2528 <motor_speed>
    1904:	61 e0       	ldi	r22, 0x01	; 1
    1906:	81 e0       	ldi	r24, 0x01	; 1
    1908:	0e 94 58 12 	call	0x24b0	; 0x24b0 <motorDirection>
    190c:	08 95       	ret
    190e:	83 e0       	ldi	r24, 0x03	; 3
    1910:	0e 94 4d 15 	call	0x2a9a	; 0x2a9a <setStatusLED>
    1914:	83 e0       	ldi	r24, 0x03	; 3
    1916:	0e 94 7c 15 	call	0x2af8	; 0x2af8 <disableDevice>
    191a:	60 e5       	ldi	r22, 0x50	; 80
    191c:	70 e0       	ldi	r23, 0x00	; 0
    191e:	80 e5       	ldi	r24, 0x50	; 80
    1920:	90 e0       	ldi	r25, 0x00	; 0
    1922:	0e 94 94 12 	call	0x2528	; 0x2528 <motor_speed>
    1926:	62 e0       	ldi	r22, 0x02	; 2
    1928:	81 e0       	ldi	r24, 0x01	; 1
    192a:	0e 94 58 12 	call	0x24b0	; 0x24b0 <motorDirection>
    192e:	08 95       	ret
    1930:	81 e0       	ldi	r24, 0x01	; 1
    1932:	0e 94 4d 15 	call	0x2a9a	; 0x2a9a <setStatusLED>
    1936:	83 e0       	ldi	r24, 0x03	; 3
    1938:	0e 94 5e 15 	call	0x2abc	; 0x2abc <enableDevice>
    193c:	64 eb       	ldi	r22, 0xB4	; 180
    193e:	70 e0       	ldi	r23, 0x00	; 0
    1940:	84 eb       	ldi	r24, 0xB4	; 180
    1942:	90 e0       	ldi	r25, 0x00	; 0
    1944:	0e 94 94 12 	call	0x2528	; 0x2528 <motor_speed>
    1948:	62 e0       	ldi	r22, 0x02	; 2
    194a:	82 e0       	ldi	r24, 0x02	; 2
    194c:	0e 94 58 12 	call	0x24b0	; 0x24b0 <motorDirection>
    1950:	08 95       	ret
    1952:	83 e0       	ldi	r24, 0x03	; 3
    1954:	0e 94 4d 15 	call	0x2a9a	; 0x2a9a <setStatusLED>
    1958:	83 e0       	ldi	r24, 0x03	; 3
    195a:	0e 94 7c 15 	call	0x2af8	; 0x2af8 <disableDevice>
    195e:	60 e5       	ldi	r22, 0x50	; 80
    1960:	70 e0       	ldi	r23, 0x00	; 0
    1962:	80 e5       	ldi	r24, 0x50	; 80
    1964:	90 e0       	ldi	r25, 0x00	; 0
    1966:	0e 94 94 12 	call	0x2528	; 0x2528 <motor_speed>
    196a:	61 e0       	ldi	r22, 0x01	; 1
    196c:	82 e0       	ldi	r24, 0x02	; 2
    196e:	0e 94 58 12 	call	0x24b0	; 0x24b0 <motorDirection>
    1972:	08 95       	ret
    1974:	8a e0       	ldi	r24, 0x0A	; 10
    1976:	0e 94 4d 15 	call	0x2a9a	; 0x2a9a <setStatusLED>
    197a:	83 e0       	ldi	r24, 0x03	; 3
    197c:	0e 94 7c 15 	call	0x2af8	; 0x2af8 <disableDevice>
    1980:	60 e0       	ldi	r22, 0x00	; 0
    1982:	80 e0       	ldi	r24, 0x00	; 0
    1984:	0e 94 58 12 	call	0x24b0	; 0x24b0 <motorDirection>
    1988:	08 95       	ret
    198a:	83 e0       	ldi	r24, 0x03	; 3
    198c:	0e 94 7c 15 	call	0x2af8	; 0x2af8 <disableDevice>
    1990:	8a e0       	ldi	r24, 0x0A	; 10
    1992:	0e 94 4d 15 	call	0x2a9a	; 0x2a9a <setStatusLED>
    1996:	60 e0       	ldi	r22, 0x00	; 0
    1998:	80 e0       	ldi	r24, 0x00	; 0
    199a:	0e 94 58 12 	call	0x24b0	; 0x24b0 <motorDirection>
    199e:	08 95       	ret

000019a0 <disp_backMain>:
    19a0:	0e 94 bd 0d 	call	0x1b7a	; 0x1b7a <lcd_clear>
    19a4:	41 e0       	ldi	r20, 0x01	; 1
    19a6:	60 e0       	ldi	r22, 0x00	; 0
    19a8:	80 e0       	ldi	r24, 0x00	; 0
    19aa:	0e 94 46 07 	call	0xe8c	; 0xe8c <dispSetCusor>
    19ae:	40 e0       	ldi	r20, 0x00	; 0
    19b0:	62 e0       	ldi	r22, 0x02	; 2
    19b2:	80 ec       	ldi	r24, 0xC0	; 192
    19b4:	94 e0       	ldi	r25, 0x04	; 4
    19b6:	0e 94 0b 0f 	call	0x1e16	; 0x1e16 <lcd_write_string_p>
    19ba:	0e 94 54 0f 	call	0x1ea8	; 0x1ea8 <lcd_render>
    19be:	08 95       	ret

000019c0 <dispRemote>:
    19c0:	80 91 26 01 	lds	r24, 0x0126	; 0x800126 <rm_menuPointer>
    19c4:	81 11       	cpse	r24, r1
    19c6:	03 c0       	rjmp	.+6      	; 0x19ce <dispRemote+0xe>
    19c8:	0e 94 d9 04 	call	0x9b2	; 0x9b2 <dispStatus>
    19cc:	08 95       	ret
    19ce:	81 30       	cpi	r24, 0x01	; 1
    19d0:	19 f4       	brne	.+6      	; 0x19d8 <dispRemote+0x18>
    19d2:	0e 94 20 06 	call	0xc40	; 0xc40 <dispSensors>
    19d6:	08 95       	ret
    19d8:	0e 94 d0 0c 	call	0x19a0	; 0x19a0 <disp_backMain>
    19dc:	08 95       	ret

000019de <remoteInit>:
    19de:	cf 93       	push	r28
    19e0:	df 93       	push	r29
    19e2:	44 e6       	ldi	r20, 0x64	; 100
    19e4:	50 e0       	ldi	r21, 0x00	; 0
    19e6:	64 e1       	ldi	r22, 0x14	; 20
    19e8:	70 e0       	ldi	r23, 0x00	; 0
    19ea:	80 ee       	ldi	r24, 0xE0	; 224
    19ec:	9c e0       	ldi	r25, 0x0C	; 12
    19ee:	0e 94 6c 14 	call	0x28d8	; 0x28d8 <schedulerAddTask>
    19f2:	c5 e0       	ldi	r28, 0x05	; 5
    19f4:	d5 e0       	ldi	r29, 0x05	; 5
    19f6:	8a 83       	std	Y+2, r24	; 0x02
    19f8:	42 e3       	ldi	r20, 0x32	; 50
    19fa:	50 e0       	ldi	r21, 0x00	; 0
    19fc:	60 e0       	ldi	r22, 0x00	; 0
    19fe:	70 e0       	ldi	r23, 0x00	; 0
    1a00:	81 e2       	ldi	r24, 0x21	; 33
    1a02:	9d e0       	ldi	r25, 0x0D	; 13
    1a04:	0e 94 6c 14 	call	0x28d8	; 0x28d8 <schedulerAddTask>
    1a08:	8b 83       	std	Y+3, r24	; 0x03
    1a0a:	10 92 26 01 	sts	0x0126, r1	; 0x800126 <rm_menuPointer>
    1a0e:	0e 94 48 11 	call	0x2290	; 0x2290 <encoderReset>
    1a12:	df 91       	pop	r29
    1a14:	cf 91       	pop	r28
    1a16:	08 95       	ret

00001a18 <remoteExit>:
    1a18:	cf 93       	push	r28
    1a1a:	df 93       	push	r29
    1a1c:	c5 e0       	ldi	r28, 0x05	; 5
    1a1e:	d5 e0       	ldi	r29, 0x05	; 5
    1a20:	8a 81       	ldd	r24, Y+2	; 0x02
    1a22:	0e 94 a8 14 	call	0x2950	; 0x2950 <schedulerDeleteTask>
    1a26:	8b 81       	ldd	r24, Y+3	; 0x03
    1a28:	0e 94 a8 14 	call	0x2950	; 0x2950 <schedulerDeleteTask>
    1a2c:	8c 81       	ldd	r24, Y+4	; 0x04
    1a2e:	0e 94 a8 14 	call	0x2950	; 0x2950 <schedulerDeleteTask>
    1a32:	0e 94 e6 0b 	call	0x17cc	; 0x17cc <menu_scheduler_restore>
    1a36:	81 e0       	ldi	r24, 0x01	; 1
    1a38:	80 93 0d 01 	sts	0x010D, r24	; 0x80010d <firstRun>
    1a3c:	df 91       	pop	r29
    1a3e:	cf 91       	pop	r28
    1a40:	08 95       	ret

00001a42 <rm_keyUpdate>:
    1a42:	0e 94 cf 04 	call	0x99e	; 0x99e <readSwitch>
    1a46:	80 91 7c 04 	lds	r24, 0x047C	; 0x80047c <PCF8574_data>
    1a4a:	80 fd       	sbrc	r24, 0
    1a4c:	0e c0       	rjmp	.+28     	; 0x1a6a <rm_keyUpdate+0x28>
    1a4e:	90 91 0c 01 	lds	r25, 0x010C	; 0x80010c <select_sw.2605>
    1a52:	99 23       	and	r25, r25
    1a54:	51 f0       	breq	.+20     	; 0x1a6a <rm_keyUpdate+0x28>
    1a56:	90 91 26 01 	lds	r25, 0x0126	; 0x800126 <rm_menuPointer>
    1a5a:	9f 5f       	subi	r25, 0xFF	; 255
    1a5c:	93 30       	cpi	r25, 0x03	; 3
    1a5e:	1c f4       	brge	.+6      	; 0x1a66 <rm_keyUpdate+0x24>
    1a60:	90 93 26 01 	sts	0x0126, r25	; 0x800126 <rm_menuPointer>
    1a64:	02 c0       	rjmp	.+4      	; 0x1a6a <rm_keyUpdate+0x28>
    1a66:	10 92 26 01 	sts	0x0126, r1	; 0x800126 <rm_menuPointer>
    1a6a:	81 fd       	sbrc	r24, 1
    1a6c:	0d c0       	rjmp	.+26     	; 0x1a88 <rm_keyUpdate+0x46>
    1a6e:	80 91 0b 01 	lds	r24, 0x010B	; 0x80010b <start_sw.2606>
    1a72:	88 23       	and	r24, r24
    1a74:	49 f0       	breq	.+18     	; 0x1a88 <rm_keyUpdate+0x46>
    1a76:	80 91 26 01 	lds	r24, 0x0126	; 0x800126 <rm_menuPointer>
    1a7a:	82 30       	cpi	r24, 0x02	; 2
    1a7c:	19 f4       	brne	.+6      	; 0x1a84 <rm_keyUpdate+0x42>
    1a7e:	0e 94 0c 0d 	call	0x1a18	; 0x1a18 <remoteExit>
    1a82:	02 c0       	rjmp	.+4      	; 0x1a88 <rm_keyUpdate+0x46>
    1a84:	0e 94 a9 11 	call	0x2352	; 0x2352 <lineRead>
    1a88:	80 91 7c 04 	lds	r24, 0x047C	; 0x80047c <PCF8574_data>
    1a8c:	98 2f       	mov	r25, r24
    1a8e:	91 70       	andi	r25, 0x01	; 1
    1a90:	90 93 0c 01 	sts	0x010C, r25	; 0x80010c <select_sw.2605>
    1a94:	86 95       	lsr	r24
    1a96:	81 70       	andi	r24, 0x01	; 1
    1a98:	80 93 0b 01 	sts	0x010B, r24	; 0x80010b <start_sw.2606>
    1a9c:	08 95       	ret

00001a9e <task_remote_program>:
    1a9e:	80 91 0d 01 	lds	r24, 0x010D	; 0x80010d <firstRun>
    1aa2:	88 23       	and	r24, r24
    1aa4:	21 f0       	breq	.+8      	; 0x1aae <task_remote_program+0x10>
    1aa6:	0e 94 ef 0c 	call	0x19de	; 0x19de <remoteInit>
    1aaa:	10 92 0d 01 	sts	0x010D, r1	; 0x80010d <firstRun>
    1aae:	0e 94 61 0c 	call	0x18c2	; 0x18c2 <comandProzessor>
    1ab2:	08 95       	ret

00001ab4 <main>:
    1ab4:	0e 94 61 16 	call	0x2cc2	; 0x2cc2 <systemInit>
    1ab8:	0e 94 57 07 	call	0xeae	; 0xeae <shieldInit>
    1abc:	0e 94 e6 0b 	call	0x17cc	; 0x17cc <menu_scheduler_restore>
    1ac0:	0e 94 df 14 	call	0x29be	; 0x29be <schedulerDispatchTasks>
    1ac4:	fd cf       	rjmp	.-6      	; 0x1ac0 <main+0xc>

00001ac6 <spi_masterTransmit>:
    1ac6:	8e bd       	out	0x2e, r24	; 46
    1ac8:	0d b4       	in	r0, 0x2d	; 45
    1aca:	07 fe       	sbrs	r0, 7
    1acc:	fd cf       	rjmp	.-6      	; 0x1ac8 <spi_masterTransmit+0x2>
    1ace:	8e b5       	in	r24, 0x2e	; 46
    1ad0:	08 95       	ret

00001ad2 <write>:
    1ad2:	2c 98       	cbi	0x05, 4	; 5
    1ad4:	66 23       	and	r22, r22
    1ad6:	11 f0       	breq	.+4      	; 0x1adc <write+0xa>
    1ad8:	11 9a       	sbi	0x02, 1	; 2
    1ada:	01 c0       	rjmp	.+2      	; 0x1ade <write+0xc>
    1adc:	11 98       	cbi	0x02, 1	; 2
    1ade:	0e 94 63 0d 	call	0x1ac6	; 0x1ac6 <spi_masterTransmit>
    1ae2:	2c 9a       	sbi	0x05, 4	; 5
    1ae4:	08 95       	ret

00001ae6 <write_cmd>:
    1ae6:	60 e0       	ldi	r22, 0x00	; 0
    1ae8:	0e 94 69 0d 	call	0x1ad2	; 0x1ad2 <write>
    1aec:	08 95       	ret

00001aee <lcd_init>:
    1aee:	cf 93       	push	r28
    1af0:	df 93       	push	r29
    1af2:	08 9a       	sbi	0x01, 0	; 1
    1af4:	09 9a       	sbi	0x01, 1	; 1
    1af6:	24 9a       	sbi	0x04, 4	; 4
    1af8:	25 9a       	sbi	0x04, 5	; 4
    1afa:	27 9a       	sbi	0x04, 7	; 4
    1afc:	80 e5       	ldi	r24, 0x50	; 80
    1afe:	8c bd       	out	0x2c, r24	; 44
    1b00:	10 9a       	sbi	0x02, 0	; 2
    1b02:	2c 9a       	sbi	0x05, 4	; 5
    1b04:	8f e3       	ldi	r24, 0x3F	; 63
    1b06:	9c e9       	ldi	r25, 0x9C	; 156
    1b08:	01 97       	sbiw	r24, 0x01	; 1
    1b0a:	f1 f7       	brne	.-4      	; 0x1b08 <lcd_init+0x1a>
    1b0c:	00 c0       	rjmp	.+0      	; 0x1b0e <lcd_init+0x20>
    1b0e:	00 00       	nop
    1b10:	10 98       	cbi	0x02, 0	; 2
    1b12:	9f ef       	ldi	r25, 0xFF	; 255
    1b14:	2a e6       	ldi	r18, 0x6A	; 106
    1b16:	83 e0       	ldi	r24, 0x03	; 3
    1b18:	91 50       	subi	r25, 0x01	; 1
    1b1a:	20 40       	sbci	r18, 0x00	; 0
    1b1c:	80 40       	sbci	r24, 0x00	; 0
    1b1e:	e1 f7       	brne	.-8      	; 0x1b18 <lcd_init+0x2a>
    1b20:	00 c0       	rjmp	.+0      	; 0x1b22 <lcd_init+0x34>
    1b22:	00 00       	nop
    1b24:	10 9a       	sbi	0x02, 0	; 2
    1b26:	2c 98       	cbi	0x05, 4	; 5
    1b28:	81 e2       	ldi	r24, 0x21	; 33
    1b2a:	0e 94 73 0d 	call	0x1ae6	; 0x1ae6 <write_cmd>
    1b2e:	83 e1       	ldi	r24, 0x13	; 19
    1b30:	0e 94 73 0d 	call	0x1ae6	; 0x1ae6 <write_cmd>
    1b34:	86 e0       	ldi	r24, 0x06	; 6
    1b36:	0e 94 73 0d 	call	0x1ae6	; 0x1ae6 <write_cmd>
    1b3a:	82 ec       	ldi	r24, 0xC2	; 194
    1b3c:	0e 94 73 0d 	call	0x1ae6	; 0x1ae6 <write_cmd>
    1b40:	80 e2       	ldi	r24, 0x20	; 32
    1b42:	0e 94 73 0d 	call	0x1ae6	; 0x1ae6 <write_cmd>
    1b46:	89 e0       	ldi	r24, 0x09	; 9
    1b48:	0e 94 73 0d 	call	0x1ae6	; 0x1ae6 <write_cmd>
    1b4c:	80 e8       	ldi	r24, 0x80	; 128
    1b4e:	0e 94 73 0d 	call	0x1ae6	; 0x1ae6 <write_cmd>
    1b52:	80 e4       	ldi	r24, 0x40	; 64
    1b54:	0e 94 73 0d 	call	0x1ae6	; 0x1ae6 <write_cmd>
    1b58:	c8 ef       	ldi	r28, 0xF8	; 248
    1b5a:	d1 e0       	ldi	r29, 0x01	; 1
    1b5c:	61 e0       	ldi	r22, 0x01	; 1
    1b5e:	80 e0       	ldi	r24, 0x00	; 0
    1b60:	0e 94 69 0d 	call	0x1ad2	; 0x1ad2 <write>
    1b64:	21 97       	sbiw	r28, 0x01	; 1
    1b66:	d1 f7       	brne	.-12     	; 0x1b5c <lcd_init+0x6e>
    1b68:	88 e0       	ldi	r24, 0x08	; 8
    1b6a:	0e 94 73 0d 	call	0x1ae6	; 0x1ae6 <write_cmd>
    1b6e:	8c e0       	ldi	r24, 0x0C	; 12
    1b70:	0e 94 73 0d 	call	0x1ae6	; 0x1ae6 <write_cmd>
    1b74:	df 91       	pop	r29
    1b76:	cf 91       	pop	r28
    1b78:	08 95       	ret

00001b7a <lcd_clear>:
    1b7a:	80 e8       	ldi	r24, 0x80	; 128
    1b7c:	0e 94 73 0d 	call	0x1ae6	; 0x1ae6 <write_cmd>
    1b80:	80 e4       	ldi	r24, 0x40	; 64
    1b82:	0e 94 73 0d 	call	0x1ae6	; 0x1ae6 <write_cmd>
    1b86:	10 92 1f 03 	sts	0x031F, r1	; 0x80031f <nokia_lcd+0x1f8>
    1b8a:	10 92 20 03 	sts	0x0320, r1	; 0x800320 <nokia_lcd+0x1f9>
    1b8e:	e7 e2       	ldi	r30, 0x27	; 39
    1b90:	f1 e0       	ldi	r31, 0x01	; 1
    1b92:	8f e1       	ldi	r24, 0x1F	; 31
    1b94:	93 e0       	ldi	r25, 0x03	; 3
    1b96:	11 92       	st	Z+, r1
    1b98:	e8 17       	cp	r30, r24
    1b9a:	f9 07       	cpc	r31, r25
    1b9c:	e1 f7       	brne	.-8      	; 0x1b96 <lcd_clear+0x1c>
    1b9e:	08 95       	ret

00001ba0 <lcd_set_pixel>:
    1ba0:	26 2f       	mov	r18, r22
    1ba2:	26 95       	lsr	r18
    1ba4:	26 95       	lsr	r18
    1ba6:	26 95       	lsr	r18
    1ba8:	90 e0       	ldi	r25, 0x00	; 0
    1baa:	34 e5       	ldi	r19, 0x54	; 84
    1bac:	23 9f       	mul	r18, r19
    1bae:	80 0d       	add	r24, r0
    1bb0:	91 1d       	adc	r25, r1
    1bb2:	11 24       	eor	r1, r1
    1bb4:	44 23       	and	r20, r20
    1bb6:	79 f0       	breq	.+30     	; 0x1bd6 <lcd_set_pixel+0x36>
    1bb8:	fc 01       	movw	r30, r24
    1bba:	e9 5d       	subi	r30, 0xD9	; 217
    1bbc:	fe 4f       	sbci	r31, 0xFE	; 254
    1bbe:	67 70       	andi	r22, 0x07	; 7
    1bc0:	81 e0       	ldi	r24, 0x01	; 1
    1bc2:	90 e0       	ldi	r25, 0x00	; 0
    1bc4:	02 c0       	rjmp	.+4      	; 0x1bca <lcd_set_pixel+0x2a>
    1bc6:	88 0f       	add	r24, r24
    1bc8:	99 1f       	adc	r25, r25
    1bca:	6a 95       	dec	r22
    1bcc:	e2 f7       	brpl	.-8      	; 0x1bc6 <lcd_set_pixel+0x26>
    1bce:	90 81       	ld	r25, Z
    1bd0:	89 2b       	or	r24, r25
    1bd2:	80 83       	st	Z, r24
    1bd4:	08 95       	ret
    1bd6:	fc 01       	movw	r30, r24
    1bd8:	e9 5d       	subi	r30, 0xD9	; 217
    1bda:	fe 4f       	sbci	r31, 0xFE	; 254
    1bdc:	67 70       	andi	r22, 0x07	; 7
    1bde:	81 e0       	ldi	r24, 0x01	; 1
    1be0:	90 e0       	ldi	r25, 0x00	; 0
    1be2:	02 c0       	rjmp	.+4      	; 0x1be8 <lcd_set_pixel+0x48>
    1be4:	88 0f       	add	r24, r24
    1be6:	99 1f       	adc	r25, r25
    1be8:	6a 95       	dec	r22
    1bea:	e2 f7       	brpl	.-8      	; 0x1be4 <lcd_set_pixel+0x44>
    1bec:	80 95       	com	r24
    1bee:	90 81       	ld	r25, Z
    1bf0:	89 23       	and	r24, r25
    1bf2:	80 83       	st	Z, r24
    1bf4:	08 95       	ret

00001bf6 <lcd_write_char>:
    1bf6:	3f 92       	push	r3
    1bf8:	4f 92       	push	r4
    1bfa:	5f 92       	push	r5
    1bfc:	6f 92       	push	r6
    1bfe:	7f 92       	push	r7
    1c00:	8f 92       	push	r8
    1c02:	9f 92       	push	r9
    1c04:	af 92       	push	r10
    1c06:	bf 92       	push	r11
    1c08:	cf 92       	push	r12
    1c0a:	df 92       	push	r13
    1c0c:	ef 92       	push	r14
    1c0e:	ff 92       	push	r15
    1c10:	0f 93       	push	r16
    1c12:	1f 93       	push	r17
    1c14:	cf 93       	push	r28
    1c16:	df 93       	push	r29
    1c18:	00 d0       	rcall	.+0      	; 0x1c1a <lcd_write_char+0x24>
    1c1a:	00 d0       	rcall	.+0      	; 0x1c1c <lcd_write_char+0x26>
    1c1c:	cd b7       	in	r28, 0x3d	; 61
    1c1e:	de b7       	in	r29, 0x3e	; 62
    1c20:	56 2e       	mov	r5, r22
    1c22:	44 2e       	mov	r4, r20
    1c24:	26 2f       	mov	r18, r22
    1c26:	30 e0       	ldi	r19, 0x00	; 0
    1c28:	3a 83       	std	Y+2, r19	; 0x02
    1c2a:	29 83       	std	Y+1, r18	; 0x01
    1c2c:	49 01       	movw	r8, r18
    1c2e:	88 0c       	add	r8, r8
    1c30:	99 1c       	adc	r9, r9
    1c32:	88 0c       	add	r8, r8
    1c34:	99 1c       	adc	r9, r9
    1c36:	82 0e       	add	r8, r18
    1c38:	93 1e       	adc	r9, r19
    1c3a:	18 14       	cp	r1, r8
    1c3c:	19 04       	cpc	r1, r9
    1c3e:	0c f0       	brlt	.+2      	; 0x1c42 <lcd_write_char+0x4c>
    1c40:	63 c0       	rjmp	.+198    	; 0x1d08 <lcd_write_char+0x112>
    1c42:	89 01       	movw	r16, r18
    1c44:	00 0f       	add	r16, r16
    1c46:	11 1f       	adc	r17, r17
    1c48:	00 0f       	add	r16, r16
    1c4a:	11 1f       	adc	r17, r17
    1c4c:	00 0f       	add	r16, r16
    1c4e:	11 1f       	adc	r17, r17
    1c50:	02 1b       	sub	r16, r18
    1c52:	13 0b       	sbc	r17, r19
    1c54:	61 2c       	mov	r6, r1
    1c56:	a8 2e       	mov	r10, r24
    1c58:	b1 2c       	mov	r11, r1
    1c5a:	c5 01       	movw	r24, r10
    1c5c:	80 97       	sbiw	r24, 0x20	; 32
    1c5e:	5c 01       	movw	r10, r24
    1c60:	aa 0c       	add	r10, r10
    1c62:	bb 1c       	adc	r11, r11
    1c64:	aa 0c       	add	r10, r10
    1c66:	bb 1c       	adc	r11, r11
    1c68:	a8 0e       	add	r10, r24
    1c6a:	b9 1e       	adc	r11, r25
    1c6c:	0f 2e       	mov	r0, r31
    1c6e:	f0 e2       	ldi	r31, 0x20	; 32
    1c70:	cf 2e       	mov	r12, r31
    1c72:	f3 e0       	ldi	r31, 0x03	; 3
    1c74:	df 2e       	mov	r13, r31
    1c76:	f0 2d       	mov	r31, r0
    1c78:	0f 2e       	mov	r0, r31
    1c7a:	ff e1       	ldi	r31, 0x1F	; 31
    1c7c:	ef 2e       	mov	r14, r31
    1c7e:	f3 e0       	ldi	r31, 0x03	; 3
    1c80:	ff 2e       	mov	r15, r31
    1c82:	f0 2d       	mov	r31, r0
    1c84:	81 e0       	ldi	r24, 0x01	; 1
    1c86:	34 2e       	mov	r3, r20
    1c88:	38 26       	eor	r3, r24
    1c8a:	2e c0       	rjmp	.+92     	; 0x1ce8 <lcd_write_char+0xf2>
    1c8c:	eb 81       	ldd	r30, Y+3	; 0x03
    1c8e:	fc 81       	ldd	r31, Y+4	; 0x04
    1c90:	24 91       	lpm	r18, Z
    1c92:	30 e0       	ldi	r19, 0x00	; 0
    1c94:	87 2d       	mov	r24, r7
    1c96:	65 2d       	mov	r22, r5
    1c98:	0e 94 f1 1c 	call	0x39e2	; 0x39e2 <__udivmodqi4>
    1c9c:	02 c0       	rjmp	.+4      	; 0x1ca2 <lcd_write_char+0xac>
    1c9e:	35 95       	asr	r19
    1ca0:	27 95       	ror	r18
    1ca2:	8a 95       	dec	r24
    1ca4:	e2 f7       	brpl	.-8      	; 0x1c9e <lcd_write_char+0xa8>
    1ca6:	20 ff       	sbrs	r18, 0
    1ca8:	0a c0       	rjmp	.+20     	; 0x1cbe <lcd_write_char+0xc8>
    1caa:	f6 01       	movw	r30, r12
    1cac:	60 81       	ld	r22, Z
    1cae:	67 0d       	add	r22, r7
    1cb0:	f7 01       	movw	r30, r14
    1cb2:	80 81       	ld	r24, Z
    1cb4:	44 2d       	mov	r20, r4
    1cb6:	86 0d       	add	r24, r6
    1cb8:	0e 94 d0 0d 	call	0x1ba0	; 0x1ba0 <lcd_set_pixel>
    1cbc:	09 c0       	rjmp	.+18     	; 0x1cd0 <lcd_write_char+0xda>
    1cbe:	f6 01       	movw	r30, r12
    1cc0:	60 81       	ld	r22, Z
    1cc2:	67 0d       	add	r22, r7
    1cc4:	f7 01       	movw	r30, r14
    1cc6:	80 81       	ld	r24, Z
    1cc8:	43 2d       	mov	r20, r3
    1cca:	86 0d       	add	r24, r6
    1ccc:	0e 94 d0 0d 	call	0x1ba0	; 0x1ba0 <lcd_set_pixel>
    1cd0:	73 94       	inc	r7
    1cd2:	87 2d       	mov	r24, r7
    1cd4:	90 e0       	ldi	r25, 0x00	; 0
    1cd6:	80 17       	cp	r24, r16
    1cd8:	91 07       	cpc	r25, r17
    1cda:	c4 f2       	brlt	.-80     	; 0x1c8c <lcd_write_char+0x96>
    1cdc:	63 94       	inc	r6
    1cde:	86 2d       	mov	r24, r6
    1ce0:	90 e0       	ldi	r25, 0x00	; 0
    1ce2:	88 15       	cp	r24, r8
    1ce4:	99 05       	cpc	r25, r9
    1ce6:	84 f4       	brge	.+32     	; 0x1d08 <lcd_write_char+0x112>
    1ce8:	10 16       	cp	r1, r16
    1cea:	11 06       	cpc	r1, r17
    1cec:	bc f7       	brge	.-18     	; 0x1cdc <lcd_write_char+0xe6>
    1cee:	86 2d       	mov	r24, r6
    1cf0:	65 2d       	mov	r22, r5
    1cf2:	0e 94 f1 1c 	call	0x39e2	; 0x39e2 <__udivmodqi4>
    1cf6:	95 01       	movw	r18, r10
    1cf8:	28 0f       	add	r18, r24
    1cfa:	31 1d       	adc	r19, r1
    1cfc:	29 53       	subi	r18, 0x39	; 57
    1cfe:	3b 4f       	sbci	r19, 0xFB	; 251
    1d00:	3c 83       	std	Y+4, r19	; 0x04
    1d02:	2b 83       	std	Y+3, r18	; 0x03
    1d04:	71 2c       	mov	r7, r1
    1d06:	c2 cf       	rjmp	.-124    	; 0x1c8c <lcd_write_char+0x96>
    1d08:	41 10       	cpse	r4, r1
    1d0a:	34 c0       	rjmp	.+104    	; 0x1d74 <lcd_write_char+0x17e>
    1d0c:	09 81       	ldd	r16, Y+1	; 0x01
    1d0e:	1a 81       	ldd	r17, Y+2	; 0x02
    1d10:	00 0f       	add	r16, r16
    1d12:	11 1f       	adc	r17, r17
    1d14:	00 0f       	add	r16, r16
    1d16:	11 1f       	adc	r17, r17
    1d18:	00 0f       	add	r16, r16
    1d1a:	11 1f       	adc	r17, r17
    1d1c:	89 81       	ldd	r24, Y+1	; 0x01
    1d1e:	9a 81       	ldd	r25, Y+2	; 0x02
    1d20:	08 1b       	sub	r16, r24
    1d22:	19 0b       	sbc	r17, r25
    1d24:	10 16       	cp	r1, r16
    1d26:	11 06       	cpc	r1, r17
    1d28:	2c f5       	brge	.+74     	; 0x1d74 <lcd_write_char+0x17e>
    1d2a:	95 2d       	mov	r25, r5
    1d2c:	99 0f       	add	r25, r25
    1d2e:	99 0f       	add	r25, r25
    1d30:	95 0d       	add	r25, r5
    1d32:	9b 83       	std	Y+3, r25	; 0x03
    1d34:	19 82       	std	Y+1, r1	; 0x01
    1d36:	0f 2e       	mov	r0, r31
    1d38:	f0 e2       	ldi	r31, 0x20	; 32
    1d3a:	cf 2e       	mov	r12, r31
    1d3c:	f3 e0       	ldi	r31, 0x03	; 3
    1d3e:	df 2e       	mov	r13, r31
    1d40:	f0 2d       	mov	r31, r0
    1d42:	0f 2e       	mov	r0, r31
    1d44:	ff e1       	ldi	r31, 0x1F	; 31
    1d46:	ef 2e       	mov	r14, r31
    1d48:	f3 e0       	ldi	r31, 0x03	; 3
    1d4a:	ff 2e       	mov	r15, r31
    1d4c:	f0 2d       	mov	r31, r0
    1d4e:	f6 01       	movw	r30, r12
    1d50:	60 81       	ld	r22, Z
    1d52:	f9 81       	ldd	r31, Y+1	; 0x01
    1d54:	6f 0f       	add	r22, r31
    1d56:	f7 01       	movw	r30, r14
    1d58:	80 81       	ld	r24, Z
    1d5a:	41 e0       	ldi	r20, 0x01	; 1
    1d5c:	fb 81       	ldd	r31, Y+3	; 0x03
    1d5e:	8f 0f       	add	r24, r31
    1d60:	0e 94 d0 0d 	call	0x1ba0	; 0x1ba0 <lcd_set_pixel>
    1d64:	29 81       	ldd	r18, Y+1	; 0x01
    1d66:	2f 5f       	subi	r18, 0xFF	; 255
    1d68:	29 83       	std	Y+1, r18	; 0x01
    1d6a:	82 2f       	mov	r24, r18
    1d6c:	90 e0       	ldi	r25, 0x00	; 0
    1d6e:	80 17       	cp	r24, r16
    1d70:	91 07       	cpc	r25, r17
    1d72:	6c f3       	brlt	.-38     	; 0x1d4e <lcd_write_char+0x158>
    1d74:	80 91 1f 03 	lds	r24, 0x031F	; 0x80031f <nokia_lcd+0x1f8>
    1d78:	91 e0       	ldi	r25, 0x01	; 1
    1d7a:	98 0f       	add	r25, r24
    1d7c:	85 2d       	mov	r24, r5
    1d7e:	88 0f       	add	r24, r24
    1d80:	88 0f       	add	r24, r24
    1d82:	85 0d       	add	r24, r5
    1d84:	89 0f       	add	r24, r25
    1d86:	84 35       	cpi	r24, 0x54	; 84
    1d88:	18 f4       	brcc	.+6      	; 0x1d90 <lcd_write_char+0x19a>
    1d8a:	80 93 1f 03 	sts	0x031F, r24	; 0x80031f <nokia_lcd+0x1f8>
    1d8e:	0e c0       	rjmp	.+28     	; 0x1dac <lcd_write_char+0x1b6>
    1d90:	10 92 1f 03 	sts	0x031F, r1	; 0x80031f <nokia_lcd+0x1f8>
    1d94:	e0 e2       	ldi	r30, 0x20	; 32
    1d96:	f3 e0       	ldi	r31, 0x03	; 3
    1d98:	80 81       	ld	r24, Z
    1d9a:	91 e0       	ldi	r25, 0x01	; 1
    1d9c:	98 0f       	add	r25, r24
    1d9e:	85 2d       	mov	r24, r5
    1da0:	88 0f       	add	r24, r24
    1da2:	88 0f       	add	r24, r24
    1da4:	88 0f       	add	r24, r24
    1da6:	85 19       	sub	r24, r5
    1da8:	89 0f       	add	r24, r25
    1daa:	80 83       	st	Z, r24
    1dac:	80 91 20 03 	lds	r24, 0x0320	; 0x800320 <nokia_lcd+0x1f9>
    1db0:	80 33       	cpi	r24, 0x30	; 48
    1db2:	20 f0       	brcs	.+8      	; 0x1dbc <lcd_write_char+0x1c6>
    1db4:	10 92 1f 03 	sts	0x031F, r1	; 0x80031f <nokia_lcd+0x1f8>
    1db8:	10 92 20 03 	sts	0x0320, r1	; 0x800320 <nokia_lcd+0x1f9>
    1dbc:	0f 90       	pop	r0
    1dbe:	0f 90       	pop	r0
    1dc0:	0f 90       	pop	r0
    1dc2:	0f 90       	pop	r0
    1dc4:	df 91       	pop	r29
    1dc6:	cf 91       	pop	r28
    1dc8:	1f 91       	pop	r17
    1dca:	0f 91       	pop	r16
    1dcc:	ff 90       	pop	r15
    1dce:	ef 90       	pop	r14
    1dd0:	df 90       	pop	r13
    1dd2:	cf 90       	pop	r12
    1dd4:	bf 90       	pop	r11
    1dd6:	af 90       	pop	r10
    1dd8:	9f 90       	pop	r9
    1dda:	8f 90       	pop	r8
    1ddc:	7f 90       	pop	r7
    1dde:	6f 90       	pop	r6
    1de0:	5f 90       	pop	r5
    1de2:	4f 90       	pop	r4
    1de4:	3f 90       	pop	r3
    1de6:	08 95       	ret

00001de8 <lcd_write_string>:
    1de8:	0f 93       	push	r16
    1dea:	1f 93       	push	r17
    1dec:	cf 93       	push	r28
    1dee:	df 93       	push	r29
    1df0:	ec 01       	movw	r28, r24
    1df2:	88 81       	ld	r24, Y
    1df4:	88 23       	and	r24, r24
    1df6:	51 f0       	breq	.+20     	; 0x1e0c <lcd_write_string+0x24>
    1df8:	04 2f       	mov	r16, r20
    1dfa:	16 2f       	mov	r17, r22
    1dfc:	21 96       	adiw	r28, 0x01	; 1
    1dfe:	40 2f       	mov	r20, r16
    1e00:	61 2f       	mov	r22, r17
    1e02:	0e 94 fb 0d 	call	0x1bf6	; 0x1bf6 <lcd_write_char>
    1e06:	89 91       	ld	r24, Y+
    1e08:	81 11       	cpse	r24, r1
    1e0a:	f9 cf       	rjmp	.-14     	; 0x1dfe <lcd_write_string+0x16>
    1e0c:	df 91       	pop	r29
    1e0e:	cf 91       	pop	r28
    1e10:	1f 91       	pop	r17
    1e12:	0f 91       	pop	r16
    1e14:	08 95       	ret

00001e16 <lcd_write_string_p>:
    1e16:	0f 93       	push	r16
    1e18:	1f 93       	push	r17
    1e1a:	cf 93       	push	r28
    1e1c:	df 93       	push	r29
    1e1e:	ec 01       	movw	r28, r24
    1e20:	21 96       	adiw	r28, 0x01	; 1
    1e22:	fc 01       	movw	r30, r24
    1e24:	84 91       	lpm	r24, Z
    1e26:	88 23       	and	r24, r24
    1e28:	59 f0       	breq	.+22     	; 0x1e40 <lcd_write_string_p+0x2a>
    1e2a:	04 2f       	mov	r16, r20
    1e2c:	16 2f       	mov	r17, r22
    1e2e:	40 2f       	mov	r20, r16
    1e30:	61 2f       	mov	r22, r17
    1e32:	0e 94 fb 0d 	call	0x1bf6	; 0x1bf6 <lcd_write_char>
    1e36:	fe 01       	movw	r30, r28
    1e38:	84 91       	lpm	r24, Z
    1e3a:	21 96       	adiw	r28, 0x01	; 1
    1e3c:	81 11       	cpse	r24, r1
    1e3e:	f7 cf       	rjmp	.-18     	; 0x1e2e <lcd_write_string_p+0x18>
    1e40:	df 91       	pop	r29
    1e42:	cf 91       	pop	r28
    1e44:	1f 91       	pop	r17
    1e46:	0f 91       	pop	r16
    1e48:	08 95       	ret

00001e4a <lcd_set_cursor>:
    1e4a:	80 93 1f 03 	sts	0x031F, r24	; 0x80031f <nokia_lcd+0x1f8>
    1e4e:	60 93 20 03 	sts	0x0320, r22	; 0x800320 <nokia_lcd+0x1f9>
    1e52:	08 95       	ret

00001e54 <lcd_drawHLine>:
    1e54:	1f 93       	push	r17
    1e56:	cf 93       	push	r28
    1e58:	df 93       	push	r29
    1e5a:	44 23       	and	r20, r20
    1e5c:	61 f0       	breq	.+24     	; 0x1e76 <lcd_drawHLine+0x22>
    1e5e:	16 2f       	mov	r17, r22
    1e60:	c8 2f       	mov	r28, r24
    1e62:	d4 2f       	mov	r29, r20
    1e64:	d8 0f       	add	r29, r24
    1e66:	41 e0       	ldi	r20, 0x01	; 1
    1e68:	61 2f       	mov	r22, r17
    1e6a:	8c 2f       	mov	r24, r28
    1e6c:	0e 94 d0 0d 	call	0x1ba0	; 0x1ba0 <lcd_set_pixel>
    1e70:	cf 5f       	subi	r28, 0xFF	; 255
    1e72:	cd 13       	cpse	r28, r29
    1e74:	f8 cf       	rjmp	.-16     	; 0x1e66 <lcd_drawHLine+0x12>
    1e76:	df 91       	pop	r29
    1e78:	cf 91       	pop	r28
    1e7a:	1f 91       	pop	r17
    1e7c:	08 95       	ret

00001e7e <lcd_drawVLine>:
    1e7e:	1f 93       	push	r17
    1e80:	cf 93       	push	r28
    1e82:	df 93       	push	r29
    1e84:	44 23       	and	r20, r20
    1e86:	61 f0       	breq	.+24     	; 0x1ea0 <lcd_drawVLine+0x22>
    1e88:	c6 2f       	mov	r28, r22
    1e8a:	18 2f       	mov	r17, r24
    1e8c:	d4 2f       	mov	r29, r20
    1e8e:	d6 0f       	add	r29, r22
    1e90:	41 e0       	ldi	r20, 0x01	; 1
    1e92:	6c 2f       	mov	r22, r28
    1e94:	81 2f       	mov	r24, r17
    1e96:	0e 94 d0 0d 	call	0x1ba0	; 0x1ba0 <lcd_set_pixel>
    1e9a:	cf 5f       	subi	r28, 0xFF	; 255
    1e9c:	cd 13       	cpse	r28, r29
    1e9e:	f8 cf       	rjmp	.-16     	; 0x1e90 <lcd_drawVLine+0x12>
    1ea0:	df 91       	pop	r29
    1ea2:	cf 91       	pop	r28
    1ea4:	1f 91       	pop	r17
    1ea6:	08 95       	ret

00001ea8 <lcd_render>:
    1ea8:	0f 93       	push	r16
    1eaa:	1f 93       	push	r17
    1eac:	cf 93       	push	r28
    1eae:	df 93       	push	r29
    1eb0:	80 e8       	ldi	r24, 0x80	; 128
    1eb2:	0e 94 73 0d 	call	0x1ae6	; 0x1ae6 <write_cmd>
    1eb6:	80 e4       	ldi	r24, 0x40	; 64
    1eb8:	0e 94 73 0d 	call	0x1ae6	; 0x1ae6 <write_cmd>
    1ebc:	c7 e2       	ldi	r28, 0x27	; 39
    1ebe:	d1 e0       	ldi	r29, 0x01	; 1
    1ec0:	0f e1       	ldi	r16, 0x1F	; 31
    1ec2:	13 e0       	ldi	r17, 0x03	; 3
    1ec4:	61 e0       	ldi	r22, 0x01	; 1
    1ec6:	89 91       	ld	r24, Y+
    1ec8:	0e 94 69 0d 	call	0x1ad2	; 0x1ad2 <write>
    1ecc:	c0 17       	cp	r28, r16
    1ece:	d1 07       	cpc	r29, r17
    1ed0:	c9 f7       	brne	.-14     	; 0x1ec4 <lcd_render+0x1c>
    1ed2:	df 91       	pop	r29
    1ed4:	cf 91       	pop	r28
    1ed6:	1f 91       	pop	r17
    1ed8:	0f 91       	pop	r16
    1eda:	08 95       	ret

00001edc <menu_function12>:
    1edc:	81 e2       	ldi	r24, 0x21	; 33
    1ede:	98 e0       	ldi	r25, 0x08	; 8
    1ee0:	0e 94 d4 13 	call	0x27a8	; 0x27a8 <playSound>
    1ee4:	08 95       	ret

00001ee6 <menu_function13>:
    1ee6:	83 e9       	ldi	r24, 0x93	; 147
    1ee8:	98 e0       	ldi	r25, 0x08	; 8
    1eea:	0e 94 d4 13 	call	0x27a8	; 0x27a8 <playSound>
    1eee:	08 95       	ret

00001ef0 <menu_function14>:
    1ef0:	8c ec       	ldi	r24, 0xCC	; 204
    1ef2:	98 e0       	ldi	r25, 0x08	; 8
    1ef4:	0e 94 d4 13 	call	0x27a8	; 0x27a8 <playSound>
    1ef8:	08 95       	ret

00001efa <menu_function15>:
    1efa:	84 e5       	ldi	r24, 0x54	; 84
    1efc:	97 e0       	ldi	r25, 0x07	; 7
    1efe:	0e 94 d4 13 	call	0x27a8	; 0x27a8 <playSound>
    1f02:	08 95       	ret

00001f04 <menu_function16>:
    1f04:	8a e8       	ldi	r24, 0x8A	; 138
    1f06:	97 e0       	ldi	r25, 0x07	; 7
    1f08:	0e 94 d4 13 	call	0x27a8	; 0x27a8 <playSound>
    1f0c:	08 95       	ret

00001f0e <menu_function17>:
    1f0e:	81 ea       	ldi	r24, 0xA1	; 161
    1f10:	97 e0       	ldi	r25, 0x07	; 7
    1f12:	0e 94 d4 13 	call	0x27a8	; 0x27a8 <playSound>
    1f16:	08 95       	ret

00001f18 <menu_function18>:
    1f18:	88 e5       	ldi	r24, 0x58	; 88
    1f1a:	98 e0       	ldi	r25, 0x08	; 8
    1f1c:	0e 94 d4 13 	call	0x27a8	; 0x27a8 <playSound>
    1f20:	08 95       	ret

00001f22 <menu_function19>:
    1f22:	8b e1       	ldi	r24, 0x1B	; 27
    1f24:	99 e0       	ldi	r25, 0x09	; 9
    1f26:	0e 94 d4 13 	call	0x27a8	; 0x27a8 <playSound>
    1f2a:	08 95       	ret

00001f2c <menu_function20>:
    1f2c:	0e 94 ff 0b 	call	0x17fe	; 0x17fe <menu_scheduler_emty>
    1f30:	0e 94 e6 0b 	call	0x17cc	; 0x17cc <menu_scheduler_restore>
    1f34:	08 95       	ret

00001f36 <sound_menu_render>:
    1f36:	cf 92       	push	r12
    1f38:	df 92       	push	r13
    1f3a:	ef 92       	push	r14
    1f3c:	ff 92       	push	r15
    1f3e:	0f 93       	push	r16
    1f40:	1f 93       	push	r17
    1f42:	cf 93       	push	r28
    1f44:	df 93       	push	r29
    1f46:	cd b7       	in	r28, 0x3d	; 61
    1f48:	de b7       	in	r29, 0x3e	; 62
    1f4a:	60 97       	sbiw	r28, 0x10	; 16
    1f4c:	0f b6       	in	r0, 0x3f	; 63
    1f4e:	f8 94       	cli
    1f50:	de bf       	out	0x3e, r29	; 62
    1f52:	0f be       	out	0x3f, r0	; 63
    1f54:	cd bf       	out	0x3d, r28	; 61
    1f56:	80 91 11 01 	lds	r24, 0x0111	; 0x800111 <sound_cursor>
    1f5a:	86 30       	cpi	r24, 0x06	; 6
    1f5c:	1c f0       	brlt	.+6      	; 0x1f64 <sound_menu_render+0x2e>
    1f5e:	1b ef       	ldi	r17, 0xFB	; 251
    1f60:	18 0f       	add	r17, r24
    1f62:	01 c0       	rjmp	.+2      	; 0x1f66 <sound_menu_render+0x30>
    1f64:	10 e0       	ldi	r17, 0x00	; 0
    1f66:	0e 94 bd 0d 	call	0x1b7a	; 0x1b7a <lcd_clear>
    1f6a:	c1 2e       	mov	r12, r17
    1f6c:	11 0f       	add	r17, r17
    1f6e:	dd 08       	sbc	r13, r13
    1f70:	c6 01       	movw	r24, r12
    1f72:	88 0f       	add	r24, r24
    1f74:	99 1f       	adc	r25, r25
    1f76:	88 0f       	add	r24, r24
    1f78:	99 1f       	adc	r25, r25
    1f7a:	9c 01       	movw	r18, r24
    1f7c:	29 55       	subi	r18, 0x59	; 89
    1f7e:	39 4f       	sbci	r19, 0xF9	; 249
    1f80:	79 01       	movw	r14, r18
    1f82:	00 e0       	ldi	r16, 0x00	; 0
    1f84:	10 e0       	ldi	r17, 0x00	; 0
    1f86:	41 e0       	ldi	r20, 0x01	; 1
    1f88:	60 2f       	mov	r22, r16
    1f8a:	80 e0       	ldi	r24, 0x00	; 0
    1f8c:	0e 94 46 07 	call	0xe8c	; 0xe8c <dispSetCusor>
    1f90:	f7 01       	movw	r30, r14
    1f92:	65 91       	lpm	r22, Z+
    1f94:	74 91       	lpm	r23, Z
    1f96:	ce 01       	movw	r24, r28
    1f98:	01 96       	adiw	r24, 0x01	; 1
    1f9a:	0e 94 d9 1e 	call	0x3db2	; 0x3db2 <strcpy_P>
    1f9e:	80 91 11 01 	lds	r24, 0x0111	; 0x800111 <sound_cursor>
    1fa2:	08 2e       	mov	r0, r24
    1fa4:	00 0c       	add	r0, r0
    1fa6:	99 0b       	sbc	r25, r25
    1fa8:	98 01       	movw	r18, r16
    1faa:	2c 0d       	add	r18, r12
    1fac:	3d 1d       	adc	r19, r13
    1fae:	82 17       	cp	r24, r18
    1fb0:	93 07       	cpc	r25, r19
    1fb2:	39 f4       	brne	.+14     	; 0x1fc2 <sound_menu_render+0x8c>
    1fb4:	40 e0       	ldi	r20, 0x00	; 0
    1fb6:	61 e0       	ldi	r22, 0x01	; 1
    1fb8:	ce 01       	movw	r24, r28
    1fba:	01 96       	adiw	r24, 0x01	; 1
    1fbc:	0e 94 f4 0e 	call	0x1de8	; 0x1de8 <lcd_write_string>
    1fc0:	06 c0       	rjmp	.+12     	; 0x1fce <sound_menu_render+0x98>
    1fc2:	41 e0       	ldi	r20, 0x01	; 1
    1fc4:	61 e0       	ldi	r22, 0x01	; 1
    1fc6:	ce 01       	movw	r24, r28
    1fc8:	01 96       	adiw	r24, 0x01	; 1
    1fca:	0e 94 f4 0e 	call	0x1de8	; 0x1de8 <lcd_write_string>
    1fce:	0f 5f       	subi	r16, 0xFF	; 255
    1fd0:	1f 4f       	sbci	r17, 0xFF	; 255
    1fd2:	34 e0       	ldi	r19, 0x04	; 4
    1fd4:	e3 0e       	add	r14, r19
    1fd6:	f1 1c       	adc	r15, r1
    1fd8:	06 30       	cpi	r16, 0x06	; 6
    1fda:	11 05       	cpc	r17, r1
    1fdc:	a1 f6       	brne	.-88     	; 0x1f86 <sound_menu_render+0x50>
    1fde:	0e 94 54 0f 	call	0x1ea8	; 0x1ea8 <lcd_render>
    1fe2:	60 96       	adiw	r28, 0x10	; 16
    1fe4:	0f b6       	in	r0, 0x3f	; 63
    1fe6:	f8 94       	cli
    1fe8:	de bf       	out	0x3e, r29	; 62
    1fea:	0f be       	out	0x3f, r0	; 63
    1fec:	cd bf       	out	0x3d, r28	; 61
    1fee:	df 91       	pop	r29
    1ff0:	cf 91       	pop	r28
    1ff2:	1f 91       	pop	r17
    1ff4:	0f 91       	pop	r16
    1ff6:	ff 90       	pop	r15
    1ff8:	ef 90       	pop	r14
    1ffa:	df 90       	pop	r13
    1ffc:	cf 90       	pop	r12
    1ffe:	08 95       	ret

00002000 <sound_menu_key_update>:
    2000:	80 91 7c 04 	lds	r24, 0x047C	; 0x80047c <PCF8574_data>
    2004:	81 fd       	sbrc	r24, 1
    2006:	10 c0       	rjmp	.+32     	; 0x2028 <sound_menu_key_update+0x28>
    2008:	80 91 10 01 	lds	r24, 0x0110	; 0x800110 <start_sw.2594>
    200c:	88 23       	and	r24, r24
    200e:	61 f0       	breq	.+24     	; 0x2028 <sound_menu_key_update+0x28>
    2010:	e0 91 11 01 	lds	r30, 0x0111	; 0x800111 <sound_cursor>
    2014:	84 e0       	ldi	r24, 0x04	; 4
    2016:	e8 02       	muls	r30, r24
    2018:	f0 01       	movw	r30, r0
    201a:	11 24       	eor	r1, r1
    201c:	e7 55       	subi	r30, 0x57	; 87
    201e:	f9 4f       	sbci	r31, 0xF9	; 249
    2020:	85 91       	lpm	r24, Z+
    2022:	94 91       	lpm	r25, Z
    2024:	fc 01       	movw	r30, r24
    2026:	09 95       	icall
    2028:	80 91 7c 04 	lds	r24, 0x047C	; 0x80047c <PCF8574_data>
    202c:	82 fd       	sbrc	r24, 2
    202e:	09 c0       	rjmp	.+18     	; 0x2042 <sound_menu_key_update+0x42>
    2030:	90 91 0f 01 	lds	r25, 0x010F	; 0x80010f <up_sw.2595>
    2034:	99 23       	and	r25, r25
    2036:	29 f0       	breq	.+10     	; 0x2042 <sound_menu_key_update+0x42>
    2038:	90 91 11 01 	lds	r25, 0x0111	; 0x800111 <sound_cursor>
    203c:	9f 5f       	subi	r25, 0xFF	; 255
    203e:	90 93 11 01 	sts	0x0111, r25	; 0x800111 <sound_cursor>
    2042:	83 fd       	sbrc	r24, 3
    2044:	09 c0       	rjmp	.+18     	; 0x2058 <sound_menu_key_update+0x58>
    2046:	80 91 0e 01 	lds	r24, 0x010E	; 0x80010e <down_sw.2596>
    204a:	88 23       	and	r24, r24
    204c:	29 f0       	breq	.+10     	; 0x2058 <sound_menu_key_update+0x58>
    204e:	80 91 11 01 	lds	r24, 0x0111	; 0x800111 <sound_cursor>
    2052:	81 50       	subi	r24, 0x01	; 1
    2054:	80 93 11 01 	sts	0x0111, r24	; 0x800111 <sound_cursor>
    2058:	80 91 11 01 	lds	r24, 0x0111	; 0x800111 <sound_cursor>
    205c:	8a 30       	cpi	r24, 0x0A	; 10
    205e:	24 f0       	brlt	.+8      	; 0x2068 <sound_menu_key_update+0x68>
    2060:	81 e0       	ldi	r24, 0x01	; 1
    2062:	80 93 11 01 	sts	0x0111, r24	; 0x800111 <sound_cursor>
    2066:	05 c0       	rjmp	.+10     	; 0x2072 <sound_menu_key_update+0x72>
    2068:	18 16       	cp	r1, r24
    206a:	1c f0       	brlt	.+6      	; 0x2072 <sound_menu_key_update+0x72>
    206c:	89 e0       	ldi	r24, 0x09	; 9
    206e:	80 93 11 01 	sts	0x0111, r24	; 0x800111 <sound_cursor>
    2072:	80 91 7c 04 	lds	r24, 0x047C	; 0x80047c <PCF8574_data>
    2076:	81 fb       	bst	r24, 1
    2078:	99 27       	eor	r25, r25
    207a:	90 f9       	bld	r25, 0
    207c:	90 93 10 01 	sts	0x0110, r25	; 0x800110 <start_sw.2594>
    2080:	82 fb       	bst	r24, 2
    2082:	99 27       	eor	r25, r25
    2084:	90 f9       	bld	r25, 0
    2086:	90 93 0f 01 	sts	0x010F, r25	; 0x80010f <up_sw.2595>
    208a:	83 fb       	bst	r24, 3
    208c:	88 27       	eor	r24, r24
    208e:	80 f9       	bld	r24, 0
    2090:	80 93 0e 01 	sts	0x010E, r24	; 0x80010e <down_sw.2596>
    2094:	08 95       	ret

00002096 <__fixsfsi>:
    2096:	0e 94 52 10 	call	0x20a4	; 0x20a4 <__fixunssfsi>
    209a:	68 94       	set
    209c:	b1 11       	cpse	r27, r1
    209e:	0c 94 a4 10 	jmp	0x2148	; 0x2148 <__fp_szero>
    20a2:	08 95       	ret

000020a4 <__fixunssfsi>:
    20a4:	0e 94 89 10 	call	0x2112	; 0x2112 <__fp_splitA>
    20a8:	88 f0       	brcs	.+34     	; 0x20cc <__fixunssfsi+0x28>
    20aa:	9f 57       	subi	r25, 0x7F	; 127
    20ac:	98 f0       	brcs	.+38     	; 0x20d4 <__fixunssfsi+0x30>
    20ae:	b9 2f       	mov	r27, r25
    20b0:	99 27       	eor	r25, r25
    20b2:	b7 51       	subi	r27, 0x17	; 23
    20b4:	b0 f0       	brcs	.+44     	; 0x20e2 <__fixunssfsi+0x3e>
    20b6:	e1 f0       	breq	.+56     	; 0x20f0 <__fixunssfsi+0x4c>
    20b8:	66 0f       	add	r22, r22
    20ba:	77 1f       	adc	r23, r23
    20bc:	88 1f       	adc	r24, r24
    20be:	99 1f       	adc	r25, r25
    20c0:	1a f0       	brmi	.+6      	; 0x20c8 <__fixunssfsi+0x24>
    20c2:	ba 95       	dec	r27
    20c4:	c9 f7       	brne	.-14     	; 0x20b8 <__fixunssfsi+0x14>
    20c6:	14 c0       	rjmp	.+40     	; 0x20f0 <__fixunssfsi+0x4c>
    20c8:	b1 30       	cpi	r27, 0x01	; 1
    20ca:	91 f0       	breq	.+36     	; 0x20f0 <__fixunssfsi+0x4c>
    20cc:	0e 94 a3 10 	call	0x2146	; 0x2146 <__fp_zero>
    20d0:	b1 e0       	ldi	r27, 0x01	; 1
    20d2:	08 95       	ret
    20d4:	0c 94 a3 10 	jmp	0x2146	; 0x2146 <__fp_zero>
    20d8:	67 2f       	mov	r22, r23
    20da:	78 2f       	mov	r23, r24
    20dc:	88 27       	eor	r24, r24
    20de:	b8 5f       	subi	r27, 0xF8	; 248
    20e0:	39 f0       	breq	.+14     	; 0x20f0 <__fixunssfsi+0x4c>
    20e2:	b9 3f       	cpi	r27, 0xF9	; 249
    20e4:	cc f3       	brlt	.-14     	; 0x20d8 <__fixunssfsi+0x34>
    20e6:	86 95       	lsr	r24
    20e8:	77 95       	ror	r23
    20ea:	67 95       	ror	r22
    20ec:	b3 95       	inc	r27
    20ee:	d9 f7       	brne	.-10     	; 0x20e6 <__fixunssfsi+0x42>
    20f0:	3e f4       	brtc	.+14     	; 0x2100 <__fixunssfsi+0x5c>
    20f2:	90 95       	com	r25
    20f4:	80 95       	com	r24
    20f6:	70 95       	com	r23
    20f8:	61 95       	neg	r22
    20fa:	7f 4f       	sbci	r23, 0xFF	; 255
    20fc:	8f 4f       	sbci	r24, 0xFF	; 255
    20fe:	9f 4f       	sbci	r25, 0xFF	; 255
    2100:	08 95       	ret

00002102 <__fp_split3>:
    2102:	57 fd       	sbrc	r21, 7
    2104:	90 58       	subi	r25, 0x80	; 128
    2106:	44 0f       	add	r20, r20
    2108:	55 1f       	adc	r21, r21
    210a:	59 f0       	breq	.+22     	; 0x2122 <__fp_splitA+0x10>
    210c:	5f 3f       	cpi	r21, 0xFF	; 255
    210e:	71 f0       	breq	.+28     	; 0x212c <__fp_splitA+0x1a>
    2110:	47 95       	ror	r20

00002112 <__fp_splitA>:
    2112:	88 0f       	add	r24, r24
    2114:	97 fb       	bst	r25, 7
    2116:	99 1f       	adc	r25, r25
    2118:	61 f0       	breq	.+24     	; 0x2132 <__fp_splitA+0x20>
    211a:	9f 3f       	cpi	r25, 0xFF	; 255
    211c:	79 f0       	breq	.+30     	; 0x213c <__fp_splitA+0x2a>
    211e:	87 95       	ror	r24
    2120:	08 95       	ret
    2122:	12 16       	cp	r1, r18
    2124:	13 06       	cpc	r1, r19
    2126:	14 06       	cpc	r1, r20
    2128:	55 1f       	adc	r21, r21
    212a:	f2 cf       	rjmp	.-28     	; 0x2110 <__fp_split3+0xe>
    212c:	46 95       	lsr	r20
    212e:	f1 df       	rcall	.-30     	; 0x2112 <__fp_splitA>
    2130:	08 c0       	rjmp	.+16     	; 0x2142 <__fp_splitA+0x30>
    2132:	16 16       	cp	r1, r22
    2134:	17 06       	cpc	r1, r23
    2136:	18 06       	cpc	r1, r24
    2138:	99 1f       	adc	r25, r25
    213a:	f1 cf       	rjmp	.-30     	; 0x211e <__fp_splitA+0xc>
    213c:	86 95       	lsr	r24
    213e:	71 05       	cpc	r23, r1
    2140:	61 05       	cpc	r22, r1
    2142:	08 94       	sec
    2144:	08 95       	ret

00002146 <__fp_zero>:
    2146:	e8 94       	clt

00002148 <__fp_szero>:
    2148:	bb 27       	eor	r27, r27
    214a:	66 27       	eor	r22, r22
    214c:	77 27       	eor	r23, r23
    214e:	cb 01       	movw	r24, r22
    2150:	97 f9       	bld	r25, 7
    2152:	08 95       	ret

00002154 <__mulsf3>:
    2154:	0e 94 bd 10 	call	0x217a	; 0x217a <__mulsf3x>
    2158:	0c 94 2e 11 	jmp	0x225c	; 0x225c <__fp_round>
    215c:	0e 94 20 11 	call	0x2240	; 0x2240 <__fp_pscA>
    2160:	38 f0       	brcs	.+14     	; 0x2170 <__mulsf3+0x1c>
    2162:	0e 94 27 11 	call	0x224e	; 0x224e <__fp_pscB>
    2166:	20 f0       	brcs	.+8      	; 0x2170 <__mulsf3+0x1c>
    2168:	95 23       	and	r25, r21
    216a:	11 f0       	breq	.+4      	; 0x2170 <__mulsf3+0x1c>
    216c:	0c 94 17 11 	jmp	0x222e	; 0x222e <__fp_inf>
    2170:	0c 94 1d 11 	jmp	0x223a	; 0x223a <__fp_nan>
    2174:	11 24       	eor	r1, r1
    2176:	0c 94 a4 10 	jmp	0x2148	; 0x2148 <__fp_szero>

0000217a <__mulsf3x>:
    217a:	0e 94 81 10 	call	0x2102	; 0x2102 <__fp_split3>
    217e:	70 f3       	brcs	.-36     	; 0x215c <__mulsf3+0x8>

00002180 <__mulsf3_pse>:
    2180:	95 9f       	mul	r25, r21
    2182:	c1 f3       	breq	.-16     	; 0x2174 <__mulsf3+0x20>
    2184:	95 0f       	add	r25, r21
    2186:	50 e0       	ldi	r21, 0x00	; 0
    2188:	55 1f       	adc	r21, r21
    218a:	62 9f       	mul	r22, r18
    218c:	f0 01       	movw	r30, r0
    218e:	72 9f       	mul	r23, r18
    2190:	bb 27       	eor	r27, r27
    2192:	f0 0d       	add	r31, r0
    2194:	b1 1d       	adc	r27, r1
    2196:	63 9f       	mul	r22, r19
    2198:	aa 27       	eor	r26, r26
    219a:	f0 0d       	add	r31, r0
    219c:	b1 1d       	adc	r27, r1
    219e:	aa 1f       	adc	r26, r26
    21a0:	64 9f       	mul	r22, r20
    21a2:	66 27       	eor	r22, r22
    21a4:	b0 0d       	add	r27, r0
    21a6:	a1 1d       	adc	r26, r1
    21a8:	66 1f       	adc	r22, r22
    21aa:	82 9f       	mul	r24, r18
    21ac:	22 27       	eor	r18, r18
    21ae:	b0 0d       	add	r27, r0
    21b0:	a1 1d       	adc	r26, r1
    21b2:	62 1f       	adc	r22, r18
    21b4:	73 9f       	mul	r23, r19
    21b6:	b0 0d       	add	r27, r0
    21b8:	a1 1d       	adc	r26, r1
    21ba:	62 1f       	adc	r22, r18
    21bc:	83 9f       	mul	r24, r19
    21be:	a0 0d       	add	r26, r0
    21c0:	61 1d       	adc	r22, r1
    21c2:	22 1f       	adc	r18, r18
    21c4:	74 9f       	mul	r23, r20
    21c6:	33 27       	eor	r19, r19
    21c8:	a0 0d       	add	r26, r0
    21ca:	61 1d       	adc	r22, r1
    21cc:	23 1f       	adc	r18, r19
    21ce:	84 9f       	mul	r24, r20
    21d0:	60 0d       	add	r22, r0
    21d2:	21 1d       	adc	r18, r1
    21d4:	82 2f       	mov	r24, r18
    21d6:	76 2f       	mov	r23, r22
    21d8:	6a 2f       	mov	r22, r26
    21da:	11 24       	eor	r1, r1
    21dc:	9f 57       	subi	r25, 0x7F	; 127
    21de:	50 40       	sbci	r21, 0x00	; 0
    21e0:	9a f0       	brmi	.+38     	; 0x2208 <__mulsf3_pse+0x88>
    21e2:	f1 f0       	breq	.+60     	; 0x2220 <__mulsf3_pse+0xa0>
    21e4:	88 23       	and	r24, r24
    21e6:	4a f0       	brmi	.+18     	; 0x21fa <__mulsf3_pse+0x7a>
    21e8:	ee 0f       	add	r30, r30
    21ea:	ff 1f       	adc	r31, r31
    21ec:	bb 1f       	adc	r27, r27
    21ee:	66 1f       	adc	r22, r22
    21f0:	77 1f       	adc	r23, r23
    21f2:	88 1f       	adc	r24, r24
    21f4:	91 50       	subi	r25, 0x01	; 1
    21f6:	50 40       	sbci	r21, 0x00	; 0
    21f8:	a9 f7       	brne	.-22     	; 0x21e4 <__mulsf3_pse+0x64>
    21fa:	9e 3f       	cpi	r25, 0xFE	; 254
    21fc:	51 05       	cpc	r21, r1
    21fe:	80 f0       	brcs	.+32     	; 0x2220 <__mulsf3_pse+0xa0>
    2200:	0c 94 17 11 	jmp	0x222e	; 0x222e <__fp_inf>
    2204:	0c 94 a4 10 	jmp	0x2148	; 0x2148 <__fp_szero>
    2208:	5f 3f       	cpi	r21, 0xFF	; 255
    220a:	e4 f3       	brlt	.-8      	; 0x2204 <__mulsf3_pse+0x84>
    220c:	98 3e       	cpi	r25, 0xE8	; 232
    220e:	d4 f3       	brlt	.-12     	; 0x2204 <__mulsf3_pse+0x84>
    2210:	86 95       	lsr	r24
    2212:	77 95       	ror	r23
    2214:	67 95       	ror	r22
    2216:	b7 95       	ror	r27
    2218:	f7 95       	ror	r31
    221a:	e7 95       	ror	r30
    221c:	9f 5f       	subi	r25, 0xFF	; 255
    221e:	c1 f7       	brne	.-16     	; 0x2210 <__mulsf3_pse+0x90>
    2220:	fe 2b       	or	r31, r30
    2222:	88 0f       	add	r24, r24
    2224:	91 1d       	adc	r25, r1
    2226:	96 95       	lsr	r25
    2228:	87 95       	ror	r24
    222a:	97 f9       	bld	r25, 7
    222c:	08 95       	ret

0000222e <__fp_inf>:
    222e:	97 f9       	bld	r25, 7
    2230:	9f 67       	ori	r25, 0x7F	; 127
    2232:	80 e8       	ldi	r24, 0x80	; 128
    2234:	70 e0       	ldi	r23, 0x00	; 0
    2236:	60 e0       	ldi	r22, 0x00	; 0
    2238:	08 95       	ret

0000223a <__fp_nan>:
    223a:	9f ef       	ldi	r25, 0xFF	; 255
    223c:	80 ec       	ldi	r24, 0xC0	; 192
    223e:	08 95       	ret

00002240 <__fp_pscA>:
    2240:	00 24       	eor	r0, r0
    2242:	0a 94       	dec	r0
    2244:	16 16       	cp	r1, r22
    2246:	17 06       	cpc	r1, r23
    2248:	18 06       	cpc	r1, r24
    224a:	09 06       	cpc	r0, r25
    224c:	08 95       	ret

0000224e <__fp_pscB>:
    224e:	00 24       	eor	r0, r0
    2250:	0a 94       	dec	r0
    2252:	12 16       	cp	r1, r18
    2254:	13 06       	cpc	r1, r19
    2256:	14 06       	cpc	r1, r20
    2258:	05 06       	cpc	r0, r21
    225a:	08 95       	ret

0000225c <__fp_round>:
    225c:	09 2e       	mov	r0, r25
    225e:	03 94       	inc	r0
    2260:	00 0c       	add	r0, r0
    2262:	11 f4       	brne	.+4      	; 0x2268 <__fp_round+0xc>
    2264:	88 23       	and	r24, r24
    2266:	52 f0       	brmi	.+20     	; 0x227c <__fp_round+0x20>
    2268:	bb 0f       	add	r27, r27
    226a:	40 f4       	brcc	.+16     	; 0x227c <__fp_round+0x20>
    226c:	bf 2b       	or	r27, r31
    226e:	11 f4       	brne	.+4      	; 0x2274 <__fp_round+0x18>
    2270:	60 ff       	sbrs	r22, 0
    2272:	04 c0       	rjmp	.+8      	; 0x227c <__fp_round+0x20>
    2274:	6f 5f       	subi	r22, 0xFF	; 255
    2276:	7f 4f       	sbci	r23, 0xFF	; 255
    2278:	8f 4f       	sbci	r24, 0xFF	; 255
    227a:	9f 4f       	sbci	r25, 0xFF	; 255
    227c:	08 95       	ret

0000227e <encoderInit>:
    227e:	e9 e6       	ldi	r30, 0x69	; 105
    2280:	f0 e0       	ldi	r31, 0x00	; 0
    2282:	80 81       	ld	r24, Z
    2284:	85 60       	ori	r24, 0x05	; 5
    2286:	80 83       	st	Z, r24
    2288:	8d b3       	in	r24, 0x1d	; 29
    228a:	83 60       	ori	r24, 0x03	; 3
    228c:	8d bb       	out	0x1d, r24	; 29
    228e:	08 95       	ret

00002290 <encoderReset>:
    return 1;
}

static __inline__ uint8_t __iCliRetVal(void)
{
    cli();
    2290:	f8 94       	cli
    2292:	eb e6       	ldi	r30, 0x6B	; 107
    2294:	f4 e0       	ldi	r31, 0x04	; 4
    2296:	17 82       	std	Z+7, r1	; 0x07
    2298:	16 82       	std	Z+6, r1	; 0x06
    229a:	11 86       	std	Z+9, r1	; 0x09
    229c:	10 86       	std	Z+8, r1	; 0x08
    return 1;
}

static __inline__ void __iSeiParam(const uint8_t *__s)
{
    sei();
    229e:	78 94       	sei
    __asm__ volatile ("" ::: "memory");
    22a0:	08 95       	ret

000022a2 <__vector_1>:
    22a2:	1f 92       	push	r1
    22a4:	0f 92       	push	r0
    22a6:	0f b6       	in	r0, 0x3f	; 63
    22a8:	0f 92       	push	r0
    22aa:	11 24       	eor	r1, r1
    22ac:	8f 93       	push	r24
    22ae:	9f 93       	push	r25
    22b0:	ef 93       	push	r30
    22b2:	ff 93       	push	r31
    22b4:	80 91 7d 04 	lds	r24, 0x047D	; 0x80047d <systemStatus>
    22b8:	84 ff       	sbrs	r24, 4
    22ba:	16 c0       	rjmp	.+44     	; 0x22e8 <__vector_1+0x46>
    22bc:	80 91 6b 04 	lds	r24, 0x046B	; 0x80046b <motorStatus>
    22c0:	83 70       	andi	r24, 0x03	; 3
    22c2:	81 30       	cpi	r24, 0x01	; 1
    22c4:	41 f4       	brne	.+16     	; 0x22d6 <__vector_1+0x34>
    22c6:	eb e6       	ldi	r30, 0x6B	; 107
    22c8:	f4 e0       	ldi	r31, 0x04	; 4
    22ca:	86 81       	ldd	r24, Z+6	; 0x06
    22cc:	97 81       	ldd	r25, Z+7	; 0x07
    22ce:	01 96       	adiw	r24, 0x01	; 1
    22d0:	97 83       	std	Z+7, r25	; 0x07
    22d2:	86 83       	std	Z+6, r24	; 0x06
    22d4:	09 c0       	rjmp	.+18     	; 0x22e8 <__vector_1+0x46>
    22d6:	82 30       	cpi	r24, 0x02	; 2
    22d8:	39 f4       	brne	.+14     	; 0x22e8 <__vector_1+0x46>
    22da:	eb e6       	ldi	r30, 0x6B	; 107
    22dc:	f4 e0       	ldi	r31, 0x04	; 4
    22de:	86 81       	ldd	r24, Z+6	; 0x06
    22e0:	97 81       	ldd	r25, Z+7	; 0x07
    22e2:	01 97       	sbiw	r24, 0x01	; 1
    22e4:	97 83       	std	Z+7, r25	; 0x07
    22e6:	86 83       	std	Z+6, r24	; 0x06
    22e8:	ff 91       	pop	r31
    22ea:	ef 91       	pop	r30
    22ec:	9f 91       	pop	r25
    22ee:	8f 91       	pop	r24
    22f0:	0f 90       	pop	r0
    22f2:	0f be       	out	0x3f, r0	; 63
    22f4:	0f 90       	pop	r0
    22f6:	1f 90       	pop	r1
    22f8:	18 95       	reti

000022fa <__vector_2>:
    22fa:	1f 92       	push	r1
    22fc:	0f 92       	push	r0
    22fe:	0f b6       	in	r0, 0x3f	; 63
    2300:	0f 92       	push	r0
    2302:	11 24       	eor	r1, r1
    2304:	8f 93       	push	r24
    2306:	9f 93       	push	r25
    2308:	ef 93       	push	r30
    230a:	ff 93       	push	r31
    230c:	80 91 7d 04 	lds	r24, 0x047D	; 0x80047d <systemStatus>
    2310:	84 ff       	sbrs	r24, 4
    2312:	16 c0       	rjmp	.+44     	; 0x2340 <__vector_2+0x46>
    2314:	80 91 6b 04 	lds	r24, 0x046B	; 0x80046b <motorStatus>
    2318:	8c 70       	andi	r24, 0x0C	; 12
    231a:	84 30       	cpi	r24, 0x04	; 4
    231c:	41 f4       	brne	.+16     	; 0x232e <__vector_2+0x34>
    231e:	eb e6       	ldi	r30, 0x6B	; 107
    2320:	f4 e0       	ldi	r31, 0x04	; 4
    2322:	80 85       	ldd	r24, Z+8	; 0x08
    2324:	91 85       	ldd	r25, Z+9	; 0x09
    2326:	01 96       	adiw	r24, 0x01	; 1
    2328:	91 87       	std	Z+9, r25	; 0x09
    232a:	80 87       	std	Z+8, r24	; 0x08
    232c:	09 c0       	rjmp	.+18     	; 0x2340 <__vector_2+0x46>
    232e:	88 30       	cpi	r24, 0x08	; 8
    2330:	39 f4       	brne	.+14     	; 0x2340 <__vector_2+0x46>
    2332:	eb e6       	ldi	r30, 0x6B	; 107
    2334:	f4 e0       	ldi	r31, 0x04	; 4
    2336:	80 85       	ldd	r24, Z+8	; 0x08
    2338:	91 85       	ldd	r25, Z+9	; 0x09
    233a:	01 97       	sbiw	r24, 0x01	; 1
    233c:	91 87       	std	Z+9, r25	; 0x09
    233e:	80 87       	std	Z+8, r24	; 0x08
    2340:	ff 91       	pop	r31
    2342:	ef 91       	pop	r30
    2344:	9f 91       	pop	r25
    2346:	8f 91       	pop	r24
    2348:	0f 90       	pop	r0
    234a:	0f be       	out	0x3f, r0	; 63
    234c:	0f 90       	pop	r0
    234e:	1f 90       	pop	r1
    2350:	18 95       	reti

00002352 <lineRead>:
    2352:	ef 92       	push	r14
    2354:	ff 92       	push	r15
    2356:	0f 93       	push	r16
    2358:	1f 93       	push	r17
    235a:	cf 93       	push	r28
    235c:	47 9a       	sbi	0x08, 7	; 8
	#else
		//round up by default
		__ticks_dc = (uint32_t)(ceil(fabs(__tmp)));
	#endif

	__builtin_avr_delay_cycles(__ticks_dc);
    235e:	8f e7       	ldi	r24, 0x7F	; 127
    2360:	9c e0       	ldi	r25, 0x0C	; 12
    2362:	01 97       	sbiw	r24, 0x01	; 1
    2364:	f1 f7       	brne	.-4      	; 0x2362 <lineRead+0x10>
    2366:	00 c0       	rjmp	.+0      	; 0x2368 <lineRead+0x16>
    2368:	00 00       	nop
    236a:	05 e8       	ldi	r16, 0x85	; 133
    236c:	14 e0       	ldi	r17, 0x04	; 4
    236e:	78 01       	movw	r14, r16
    2370:	c3 e0       	ldi	r28, 0x03	; 3
    2372:	8c 2f       	mov	r24, r28
    2374:	0e 94 1e 15 	call	0x2a3c	; 0x2a3c <adc_Read>
    2378:	d7 01       	movw	r26, r14
    237a:	8d 93       	st	X+, r24
    237c:	9d 93       	st	X+, r25
    237e:	7d 01       	movw	r14, r26
    2380:	cf 5f       	subi	r28, 0xFF	; 255
    2382:	c8 30       	cpi	r28, 0x08	; 8
    2384:	b1 f7       	brne	.-20     	; 0x2372 <lineRead+0x20>
    2386:	47 98       	cbi	0x08, 7	; 8
    2388:	e4 e8       	ldi	r30, 0x84	; 132
    238a:	f4 e0       	ldi	r31, 0x04	; 4
    238c:	81 85       	ldd	r24, Z+9	; 0x09
    238e:	92 85       	ldd	r25, Z+10	; 0x0a
    2390:	27 81       	ldd	r18, Z+7	; 0x07
    2392:	30 85       	ldd	r19, Z+8	; 0x08
    2394:	32 87       	std	Z+10, r19	; 0x0a
    2396:	21 87       	std	Z+9, r18	; 0x09
    2398:	90 87       	std	Z+8, r25	; 0x08
    239a:	87 83       	std	Z+7, r24	; 0x07
    239c:	80 81       	ld	r24, Z
    239e:	80 ff       	sbrs	r24, 0
    23a0:	17 c0       	rjmp	.+46     	; 0x23d0 <lineRead+0x7e>
    23a2:	4f e8       	ldi	r20, 0x8F	; 143
    23a4:	54 e0       	ldi	r21, 0x04	; 4
    23a6:	61 e0       	ldi	r22, 0x01	; 1
    23a8:	d8 01       	movw	r26, r16
    23aa:	8d 91       	ld	r24, X+
    23ac:	9d 91       	ld	r25, X+
    23ae:	8d 01       	movw	r16, r26
    23b0:	88 53       	subi	r24, 0x38	; 56
    23b2:	9f 4f       	sbci	r25, 0xFF	; 255
    23b4:	18 96       	adiw	r26, 0x08	; 8
    23b6:	2d 91       	ld	r18, X+
    23b8:	3c 91       	ld	r19, X
    23ba:	19 97       	sbiw	r26, 0x09	; 9
    23bc:	28 17       	cp	r18, r24
    23be:	39 07       	cpc	r19, r25
    23c0:	14 f4       	brge	.+4      	; 0x23c6 <lineRead+0x74>
    23c2:	65 8b       	std	Z+21, r22	; 0x15
    23c4:	01 c0       	rjmp	.+2      	; 0x23c8 <lineRead+0x76>
    23c6:	15 8a       	std	Z+21, r1	; 0x15
    23c8:	31 96       	adiw	r30, 0x01	; 1
    23ca:	04 17       	cp	r16, r20
    23cc:	15 07       	cpc	r17, r21
    23ce:	61 f7       	brne	.-40     	; 0x23a8 <lineRead+0x56>
    23d0:	cf 91       	pop	r28
    23d2:	1f 91       	pop	r17
    23d4:	0f 91       	pop	r16
    23d6:	ff 90       	pop	r15
    23d8:	ef 90       	pop	r14
    23da:	08 95       	ret

000023dc <followTrack>:
    23dc:	e4 e8       	ldi	r30, 0x84	; 132
    23de:	f4 e0       	ldi	r31, 0x04	; 4
    23e0:	83 81       	ldd	r24, Z+3	; 0x03
    23e2:	94 81       	ldd	r25, Z+4	; 0x04
    23e4:	27 81       	ldd	r18, Z+7	; 0x07
    23e6:	30 85       	ldd	r19, Z+8	; 0x08
    23e8:	82 1b       	sub	r24, r18
    23ea:	93 0b       	sbc	r25, r19
    23ec:	95 95       	asr	r25
    23ee:	87 95       	ror	r24
    23f0:	95 95       	asr	r25
    23f2:	87 95       	ror	r24
    23f4:	08 95       	ret

000023f6 <lineInit>:
    23f6:	cf 93       	push	r28
    23f8:	df 93       	push	r29
    23fa:	c4 e8       	ldi	r28, 0x84	; 132
    23fc:	d4 e0       	ldi	r29, 0x04	; 4
    23fe:	18 82       	st	Y, r1
    2400:	4a e0       	ldi	r20, 0x0A	; 10
    2402:	50 e0       	ldi	r21, 0x00	; 0
    2404:	60 e0       	ldi	r22, 0x00	; 0
    2406:	70 e0       	ldi	r23, 0x00	; 0
    2408:	8f e8       	ldi	r24, 0x8F	; 143
    240a:	94 e0       	ldi	r25, 0x04	; 4
    240c:	0e 94 30 23 	call	0x4660	; 0x4660 <eeprom_read_block>
    2410:	88 81       	ld	r24, Y
    2412:	81 60       	ori	r24, 0x01	; 1
    2414:	88 83       	st	Y, r24
    2416:	df 91       	pop	r29
    2418:	cf 91       	pop	r28
    241a:	08 95       	ret

0000241c <_log_Debug>:
    241c:	ef 92       	push	r14
    241e:	ff 92       	push	r15
    2420:	0f 93       	push	r16
    2422:	1f 93       	push	r17
    2424:	cf 93       	push	r28
    2426:	df 93       	push	r29
    2428:	cd b7       	in	r28, 0x3d	; 61
    242a:	de b7       	in	r29, 0x3e	; 62
    242c:	8e 01       	movw	r16, r28
    242e:	07 5f       	subi	r16, 0xF7	; 247
    2430:	1f 4f       	sbci	r17, 0xFF	; 255
    2432:	f8 01       	movw	r30, r16
    2434:	e1 90       	ld	r14, Z+
    2436:	f1 90       	ld	r15, Z+
    2438:	8f 01       	movw	r16, r30
    243a:	8b e4       	ldi	r24, 0x4B	; 75
    243c:	97 e0       	ldi	r25, 0x07	; 7
    243e:	0e 94 0a 19 	call	0x3214	; 0x3214 <uart_puts_p>
    2442:	a8 01       	movw	r20, r16
    2444:	b7 01       	movw	r22, r14
    2446:	80 91 22 05 	lds	r24, 0x0522	; 0x800522 <__iob+0x2>
    244a:	90 91 23 05 	lds	r25, 0x0523	; 0x800523 <__iob+0x3>
    244e:	0e 94 81 1f 	call	0x3f02	; 0x3f02 <vfprintf_P>
    2452:	8a e0       	ldi	r24, 0x0A	; 10
    2454:	0e 94 e6 18 	call	0x31cc	; 0x31cc <uart_putc>
    2458:	df 91       	pop	r29
    245a:	cf 91       	pop	r28
    245c:	1f 91       	pop	r17
    245e:	0f 91       	pop	r16
    2460:	ff 90       	pop	r15
    2462:	ef 90       	pop	r14
    2464:	08 95       	ret

00002466 <_log_Error>:
    2466:	ef 92       	push	r14
    2468:	ff 92       	push	r15
    246a:	0f 93       	push	r16
    246c:	1f 93       	push	r17
    246e:	cf 93       	push	r28
    2470:	df 93       	push	r29
    2472:	cd b7       	in	r28, 0x3d	; 61
    2474:	de b7       	in	r29, 0x3e	; 62
    2476:	8e 01       	movw	r16, r28
    2478:	07 5f       	subi	r16, 0xF7	; 247
    247a:	1f 4f       	sbci	r17, 0xFF	; 255
    247c:	f8 01       	movw	r30, r16
    247e:	e1 90       	ld	r14, Z+
    2480:	f1 90       	ld	r15, Z+
    2482:	8f 01       	movw	r16, r30
    2484:	82 e4       	ldi	r24, 0x42	; 66
    2486:	97 e0       	ldi	r25, 0x07	; 7
    2488:	0e 94 0a 19 	call	0x3214	; 0x3214 <uart_puts_p>
    248c:	a8 01       	movw	r20, r16
    248e:	b7 01       	movw	r22, r14
    2490:	80 91 22 05 	lds	r24, 0x0522	; 0x800522 <__iob+0x2>
    2494:	90 91 23 05 	lds	r25, 0x0523	; 0x800523 <__iob+0x3>
    2498:	0e 94 81 1f 	call	0x3f02	; 0x3f02 <vfprintf_P>
    249c:	8a e0       	ldi	r24, 0x0A	; 10
    249e:	0e 94 e6 18 	call	0x31cc	; 0x31cc <uart_putc>
    24a2:	df 91       	pop	r29
    24a4:	cf 91       	pop	r28
    24a6:	1f 91       	pop	r17
    24a8:	0f 91       	pop	r16
    24aa:	ff 90       	pop	r15
    24ac:	ef 90       	pop	r14
    24ae:	08 95       	ret

000024b0 <motorDirection>:
    24b0:	81 30       	cpi	r24, 0x01	; 1
    24b2:	49 f4       	brne	.+18     	; 0x24c6 <motorDirection+0x16>
    24b4:	43 9a       	sbi	0x08, 3	; 8
    24b6:	44 98       	cbi	0x08, 4	; 8
    24b8:	eb e6       	ldi	r30, 0x6B	; 107
    24ba:	f4 e0       	ldi	r31, 0x04	; 4
    24bc:	80 81       	ld	r24, Z
    24be:	8c 7f       	andi	r24, 0xFC	; 252
    24c0:	81 60       	ori	r24, 0x01	; 1
    24c2:	80 83       	st	Z, r24
    24c4:	13 c0       	rjmp	.+38     	; 0x24ec <motorDirection+0x3c>
    24c6:	82 30       	cpi	r24, 0x02	; 2
    24c8:	49 f4       	brne	.+18     	; 0x24dc <motorDirection+0x2c>
    24ca:	44 9a       	sbi	0x08, 4	; 8
    24cc:	43 98       	cbi	0x08, 3	; 8
    24ce:	eb e6       	ldi	r30, 0x6B	; 107
    24d0:	f4 e0       	ldi	r31, 0x04	; 4
    24d2:	80 81       	ld	r24, Z
    24d4:	8c 7f       	andi	r24, 0xFC	; 252
    24d6:	82 60       	ori	r24, 0x02	; 2
    24d8:	80 83       	st	Z, r24
    24da:	08 c0       	rjmp	.+16     	; 0x24ec <motorDirection+0x3c>
    24dc:	88 b1       	in	r24, 0x08	; 8
    24de:	87 7e       	andi	r24, 0xE7	; 231
    24e0:	88 b9       	out	0x08, r24	; 8
    24e2:	eb e6       	ldi	r30, 0x6B	; 107
    24e4:	f4 e0       	ldi	r31, 0x04	; 4
    24e6:	80 81       	ld	r24, Z
    24e8:	8c 7f       	andi	r24, 0xFC	; 252
    24ea:	80 83       	st	Z, r24
    24ec:	61 30       	cpi	r22, 0x01	; 1
    24ee:	49 f4       	brne	.+18     	; 0x2502 <motorDirection+0x52>
    24f0:	42 98       	cbi	0x08, 2	; 8
    24f2:	5c 9a       	sbi	0x0b, 4	; 11
    24f4:	eb e6       	ldi	r30, 0x6B	; 107
    24f6:	f4 e0       	ldi	r31, 0x04	; 4
    24f8:	80 81       	ld	r24, Z
    24fa:	83 7f       	andi	r24, 0xF3	; 243
    24fc:	84 60       	ori	r24, 0x04	; 4
    24fe:	80 83       	st	Z, r24
    2500:	08 95       	ret
    2502:	62 30       	cpi	r22, 0x02	; 2
    2504:	49 f4       	brne	.+18     	; 0x2518 <motorDirection+0x68>
    2506:	42 9a       	sbi	0x08, 2	; 8
    2508:	5c 98       	cbi	0x0b, 4	; 11
    250a:	eb e6       	ldi	r30, 0x6B	; 107
    250c:	f4 e0       	ldi	r31, 0x04	; 4
    250e:	80 81       	ld	r24, Z
    2510:	83 7f       	andi	r24, 0xF3	; 243
    2512:	88 60       	ori	r24, 0x08	; 8
    2514:	80 83       	st	Z, r24
    2516:	08 95       	ret
    2518:	42 98       	cbi	0x08, 2	; 8
    251a:	5c 98       	cbi	0x0b, 4	; 11
    251c:	eb e6       	ldi	r30, 0x6B	; 107
    251e:	f4 e0       	ldi	r31, 0x04	; 4
    2520:	80 81       	ld	r24, Z
    2522:	83 7f       	andi	r24, 0xF3	; 243
    2524:	80 83       	st	Z, r24
    2526:	08 95       	ret

00002528 <motor_speed>:
    2528:	eb e6       	ldi	r30, 0x6B	; 107
    252a:	f4 e0       	ldi	r31, 0x04	; 4
    252c:	74 83       	std	Z+4, r23	; 0x04
    252e:	63 83       	std	Z+3, r22	; 0x03
    2530:	25 81       	ldd	r18, Z+5	; 0x05
    2532:	82 0f       	add	r24, r18
    2534:	91 1d       	adc	r25, r1
    2536:	27 fd       	sbrc	r18, 7
    2538:	9a 95       	dec	r25
    253a:	8f 3f       	cpi	r24, 0xFF	; 255
    253c:	91 05       	cpc	r25, r1
    253e:	41 f0       	breq	.+16     	; 0x2550 <motor_speed+0x28>
    2540:	3c f0       	brlt	.+14     	; 0x2550 <motor_speed+0x28>
    2542:	8f ef       	ldi	r24, 0xFF	; 255
    2544:	90 e0       	ldi	r25, 0x00	; 0
    2546:	90 93 6d 04 	sts	0x046D, r25	; 0x80046d <motorStatus+0x2>
    254a:	80 93 6c 04 	sts	0x046C, r24	; 0x80046c <motorStatus+0x1>
    254e:	0b c0       	rjmp	.+22     	; 0x2566 <motor_speed+0x3e>
    2550:	99 23       	and	r25, r25
    2552:	2c f0       	brlt	.+10     	; 0x255e <motor_speed+0x36>
    2554:	90 93 6d 04 	sts	0x046D, r25	; 0x80046d <motorStatus+0x2>
    2558:	80 93 6c 04 	sts	0x046C, r24	; 0x80046c <motorStatus+0x1>
    255c:	04 c0       	rjmp	.+8      	; 0x2566 <motor_speed+0x3e>
    255e:	10 92 6d 04 	sts	0x046D, r1	; 0x80046d <motorStatus+0x2>
    2562:	10 92 6c 04 	sts	0x046C, r1	; 0x80046c <motorStatus+0x1>
    2566:	6f 3f       	cpi	r22, 0xFF	; 255
    2568:	71 05       	cpc	r23, r1
    256a:	41 f0       	breq	.+16     	; 0x257c <motor_speed+0x54>
    256c:	3c f0       	brlt	.+14     	; 0x257c <motor_speed+0x54>
    256e:	8f ef       	ldi	r24, 0xFF	; 255
    2570:	90 e0       	ldi	r25, 0x00	; 0
    2572:	90 93 6f 04 	sts	0x046F, r25	; 0x80046f <motorStatus+0x4>
    2576:	80 93 6e 04 	sts	0x046E, r24	; 0x80046e <motorStatus+0x3>
    257a:	06 c0       	rjmp	.+12     	; 0x2588 <motor_speed+0x60>
    257c:	77 23       	and	r23, r23
    257e:	24 f4       	brge	.+8      	; 0x2588 <motor_speed+0x60>
    2580:	10 92 6f 04 	sts	0x046F, r1	; 0x80046f <motorStatus+0x4>
    2584:	10 92 6e 04 	sts	0x046E, r1	; 0x80046e <motorStatus+0x3>
    2588:	eb e6       	ldi	r30, 0x6B	; 107
    258a:	f4 e0       	ldi	r31, 0x04	; 4
    258c:	81 81       	ldd	r24, Z+1	; 0x01
    258e:	80 93 b3 00 	sts	0x00B3, r24	; 0x8000b3 <__TEXT_REGION_LENGTH__+0x7e00b3>
    2592:	83 81       	ldd	r24, Z+3	; 0x03
    2594:	80 93 b4 00 	sts	0x00B4, r24	; 0x8000b4 <__TEXT_REGION_LENGTH__+0x7e00b4>
    2598:	08 95       	ret

0000259a <motorInit>:
    259a:	60 e0       	ldi	r22, 0x00	; 0
    259c:	80 e0       	ldi	r24, 0x00	; 0
    259e:	0e 94 58 12 	call	0x24b0	; 0x24b0 <motorDirection>
    25a2:	e0 eb       	ldi	r30, 0xB0	; 176
    25a4:	f0 e0       	ldi	r31, 0x00	; 0
    25a6:	80 81       	ld	r24, Z
    25a8:	83 6a       	ori	r24, 0xA3	; 163
    25aa:	80 83       	st	Z, r24
    25ac:	e1 eb       	ldi	r30, 0xB1	; 177
    25ae:	f0 e0       	ldi	r31, 0x00	; 0
    25b0:	80 81       	ld	r24, Z
    25b2:	87 60       	ori	r24, 0x07	; 7
    25b4:	80 83       	st	Z, r24
    25b6:	10 92 b3 00 	sts	0x00B3, r1	; 0x8000b3 <__TEXT_REGION_LENGTH__+0x7e00b3>
    25ba:	10 92 b4 00 	sts	0x00B4, r1	; 0x8000b4 <__TEXT_REGION_LENGTH__+0x7e00b4>
    25be:	83 ef       	ldi	r24, 0xF3	; 243
    25c0:	80 93 70 04 	sts	0x0470, r24	; 0x800470 <motorStatus+0x5>
    25c4:	08 95       	ret

000025c6 <pid_Init>:
    25c6:	cf 93       	push	r28
    25c8:	df 93       	push	r29
    25ca:	eb 01       	movw	r28, r22
    25cc:	f9 01       	movw	r30, r18
    25ce:	12 82       	std	Z+2, r1	; 0x02
    25d0:	13 82       	std	Z+3, r1	; 0x03
    25d2:	14 82       	std	Z+4, r1	; 0x04
    25d4:	15 82       	std	Z+5, r1	; 0x05
    25d6:	11 82       	std	Z+1, r1	; 0x01
    25d8:	10 82       	st	Z, r1
    25da:	97 83       	std	Z+7, r25	; 0x07
    25dc:	86 83       	std	Z+6, r24	; 0x06
    25de:	71 87       	std	Z+9, r23	; 0x09
    25e0:	60 87       	std	Z+8, r22	; 0x08
    25e2:	53 87       	std	Z+11, r21	; 0x0b
    25e4:	42 87       	std	Z+10, r20	; 0x0a
    25e6:	bc 01       	movw	r22, r24
    25e8:	6f 5f       	subi	r22, 0xFF	; 255
    25ea:	7f 4f       	sbci	r23, 0xFF	; 255
    25ec:	8f ef       	ldi	r24, 0xFF	; 255
    25ee:	9f e7       	ldi	r25, 0x7F	; 127
    25f0:	0e 94 fd 1c 	call	0x39fa	; 0x39fa <__divmodhi4>
    25f4:	75 87       	std	Z+13, r23	; 0x0d
    25f6:	64 87       	std	Z+12, r22	; 0x0c
    25f8:	be 01       	movw	r22, r28
    25fa:	6f 5f       	subi	r22, 0xFF	; 255
    25fc:	7f 4f       	sbci	r23, 0xFF	; 255
    25fe:	8f ef       	ldi	r24, 0xFF	; 255
    2600:	9f e3       	ldi	r25, 0x3F	; 63
    2602:	0e 94 fd 1c 	call	0x39fa	; 0x39fa <__divmodhi4>
    2606:	cb 01       	movw	r24, r22
    2608:	77 0f       	add	r23, r23
    260a:	aa 0b       	sbc	r26, r26
    260c:	bb 0b       	sbc	r27, r27
    260e:	86 87       	std	Z+14, r24	; 0x0e
    2610:	97 87       	std	Z+15, r25	; 0x0f
    2612:	a0 8b       	std	Z+16, r26	; 0x10
    2614:	b1 8b       	std	Z+17, r27	; 0x11
    2616:	df 91       	pop	r29
    2618:	cf 91       	pop	r28
    261a:	08 95       	ret

0000261c <pid_Controller>:
    261c:	ef 92       	push	r14
    261e:	ff 92       	push	r15
    2620:	0f 93       	push	r16
    2622:	1f 93       	push	r17
    2624:	cf 93       	push	r28
    2626:	df 93       	push	r29
    2628:	8b 01       	movw	r16, r22
    262a:	fa 01       	movw	r30, r20
    262c:	86 1b       	sub	r24, r22
    262e:	97 0b       	sbc	r25, r23
    2630:	24 85       	ldd	r18, Z+12	; 0x0c
    2632:	35 85       	ldd	r19, Z+13	; 0x0d
    2634:	28 17       	cp	r18, r24
    2636:	39 07       	cpc	r19, r25
    2638:	84 f0       	brlt	.+32     	; 0x265a <pid_Controller+0x3e>
    263a:	31 95       	neg	r19
    263c:	21 95       	neg	r18
    263e:	31 09       	sbc	r19, r1
    2640:	82 17       	cp	r24, r18
    2642:	93 07       	cpc	r25, r19
    2644:	6c f0       	brlt	.+26     	; 0x2660 <pid_Controller+0x44>
    2646:	26 81       	ldd	r18, Z+6	; 0x06
    2648:	37 81       	ldd	r19, Z+7	; 0x07
    264a:	82 9f       	mul	r24, r18
    264c:	e0 01       	movw	r28, r0
    264e:	83 9f       	mul	r24, r19
    2650:	d0 0d       	add	r29, r0
    2652:	92 9f       	mul	r25, r18
    2654:	d0 0d       	add	r29, r0
    2656:	11 24       	eor	r1, r1
    2658:	05 c0       	rjmp	.+10     	; 0x2664 <pid_Controller+0x48>
    265a:	cf ef       	ldi	r28, 0xFF	; 255
    265c:	df e7       	ldi	r29, 0x7F	; 127
    265e:	02 c0       	rjmp	.+4      	; 0x2664 <pid_Controller+0x48>
    2660:	c1 e0       	ldi	r28, 0x01	; 1
    2662:	d0 e8       	ldi	r29, 0x80	; 128
    2664:	09 2e       	mov	r0, r25
    2666:	00 0c       	add	r0, r0
    2668:	aa 0b       	sbc	r26, r26
    266a:	bb 0b       	sbc	r27, r27
    266c:	42 81       	ldd	r20, Z+2	; 0x02
    266e:	53 81       	ldd	r21, Z+3	; 0x03
    2670:	64 81       	ldd	r22, Z+4	; 0x04
    2672:	75 81       	ldd	r23, Z+5	; 0x05
    2674:	9a 01       	movw	r18, r20
    2676:	ab 01       	movw	r20, r22
    2678:	28 0f       	add	r18, r24
    267a:	39 1f       	adc	r19, r25
    267c:	4a 1f       	adc	r20, r26
    267e:	5b 1f       	adc	r21, r27
    2680:	86 85       	ldd	r24, Z+14	; 0x0e
    2682:	97 85       	ldd	r25, Z+15	; 0x0f
    2684:	a0 89       	ldd	r26, Z+16	; 0x10
    2686:	b1 89       	ldd	r27, Z+17	; 0x11
    2688:	82 17       	cp	r24, r18
    268a:	93 07       	cpc	r25, r19
    268c:	a4 07       	cpc	r26, r20
    268e:	b5 07       	cpc	r27, r21
    2690:	4c f4       	brge	.+18     	; 0x26a4 <pid_Controller+0x88>
    2692:	82 83       	std	Z+2, r24	; 0x02
    2694:	93 83       	std	Z+3, r25	; 0x03
    2696:	a4 83       	std	Z+4, r26	; 0x04
    2698:	b5 83       	std	Z+5, r27	; 0x05
    269a:	6f ef       	ldi	r22, 0xFF	; 255
    269c:	7f e3       	ldi	r23, 0x3F	; 63
    269e:	80 e0       	ldi	r24, 0x00	; 0
    26a0:	90 e0       	ldi	r25, 0x00	; 0
    26a2:	1d c0       	rjmp	.+58     	; 0x26de <pid_Controller+0xc2>
    26a4:	b0 95       	com	r27
    26a6:	a0 95       	com	r26
    26a8:	90 95       	com	r25
    26aa:	81 95       	neg	r24
    26ac:	9f 4f       	sbci	r25, 0xFF	; 255
    26ae:	af 4f       	sbci	r26, 0xFF	; 255
    26b0:	bf 4f       	sbci	r27, 0xFF	; 255
    26b2:	28 17       	cp	r18, r24
    26b4:	39 07       	cpc	r19, r25
    26b6:	4a 07       	cpc	r20, r26
    26b8:	5b 07       	cpc	r21, r27
    26ba:	4c f4       	brge	.+18     	; 0x26ce <pid_Controller+0xb2>
    26bc:	82 83       	std	Z+2, r24	; 0x02
    26be:	93 83       	std	Z+3, r25	; 0x03
    26c0:	a4 83       	std	Z+4, r26	; 0x04
    26c2:	b5 83       	std	Z+5, r27	; 0x05
    26c4:	61 e0       	ldi	r22, 0x01	; 1
    26c6:	70 ec       	ldi	r23, 0xC0	; 192
    26c8:	8f ef       	ldi	r24, 0xFF	; 255
    26ca:	9f ef       	ldi	r25, 0xFF	; 255
    26cc:	08 c0       	rjmp	.+16     	; 0x26de <pid_Controller+0xc2>
    26ce:	22 83       	std	Z+2, r18	; 0x02
    26d0:	33 83       	std	Z+3, r19	; 0x03
    26d2:	44 83       	std	Z+4, r20	; 0x04
    26d4:	55 83       	std	Z+5, r21	; 0x05
    26d6:	a0 85       	ldd	r26, Z+8	; 0x08
    26d8:	b1 85       	ldd	r27, Z+9	; 0x09
    26da:	0e 94 6c 1d 	call	0x3ad8	; 0x3ad8 <__mulshisi3>
    26de:	20 81       	ld	r18, Z
    26e0:	31 81       	ldd	r19, Z+1	; 0x01
    26e2:	20 1b       	sub	r18, r16
    26e4:	31 0b       	sbc	r19, r17
    26e6:	a2 85       	ldd	r26, Z+10	; 0x0a
    26e8:	b3 85       	ldd	r27, Z+11	; 0x0b
    26ea:	2a 9f       	mul	r18, r26
    26ec:	70 01       	movw	r14, r0
    26ee:	2b 9f       	mul	r18, r27
    26f0:	f0 0c       	add	r15, r0
    26f2:	3a 9f       	mul	r19, r26
    26f4:	f0 0c       	add	r15, r0
    26f6:	11 24       	eor	r1, r1
    26f8:	11 83       	std	Z+1, r17	; 0x01
    26fa:	00 83       	st	Z, r16
    26fc:	8e 01       	movw	r16, r28
    26fe:	dd 0f       	add	r29, r29
    2700:	22 0b       	sbc	r18, r18
    2702:	33 0b       	sbc	r19, r19
    2704:	ab 01       	movw	r20, r22
    2706:	bc 01       	movw	r22, r24
    2708:	40 0f       	add	r20, r16
    270a:	51 1f       	adc	r21, r17
    270c:	62 1f       	adc	r22, r18
    270e:	73 1f       	adc	r23, r19
    2710:	c7 01       	movw	r24, r14
    2712:	ff 0c       	add	r15, r15
    2714:	aa 0b       	sbc	r26, r26
    2716:	bb 0b       	sbc	r27, r27
    2718:	48 0f       	add	r20, r24
    271a:	59 1f       	adc	r21, r25
    271c:	6a 1f       	adc	r22, r26
    271e:	7b 1f       	adc	r23, r27
    2720:	db 01       	movw	r26, r22
    2722:	ca 01       	movw	r24, r20
    2724:	77 23       	and	r23, r23
    2726:	24 f4       	brge	.+8      	; 0x2730 <pid_Controller+0x114>
    2728:	81 58       	subi	r24, 0x81	; 129
    272a:	9f 4f       	sbci	r25, 0xFF	; 255
    272c:	af 4f       	sbci	r26, 0xFF	; 255
    272e:	bf 4f       	sbci	r27, 0xFF	; 255
    2730:	68 94       	set
    2732:	16 f8       	bld	r1, 6
    2734:	b5 95       	asr	r27
    2736:	a7 95       	ror	r26
    2738:	97 95       	ror	r25
    273a:	87 95       	ror	r24
    273c:	16 94       	lsr	r1
    273e:	d1 f7       	brne	.-12     	; 0x2734 <pid_Controller+0x118>
    2740:	81 30       	cpi	r24, 0x01	; 1
    2742:	20 e8       	ldi	r18, 0x80	; 128
    2744:	92 07       	cpc	r25, r18
    2746:	2f ef       	ldi	r18, 0xFF	; 255
    2748:	a2 07       	cpc	r26, r18
    274a:	b2 07       	cpc	r27, r18
    274c:	24 f4       	brge	.+8      	; 0x2756 <pid_Controller+0x13a>
    274e:	81 e0       	ldi	r24, 0x01	; 1
    2750:	90 e8       	ldi	r25, 0x80	; 128
    2752:	af ef       	ldi	r26, 0xFF	; 255
    2754:	bf ef       	ldi	r27, 0xFF	; 255
    2756:	81 15       	cp	r24, r1
    2758:	20 e8       	ldi	r18, 0x80	; 128
    275a:	92 07       	cpc	r25, r18
    275c:	a1 05       	cpc	r26, r1
    275e:	b1 05       	cpc	r27, r1
    2760:	24 f0       	brlt	.+8      	; 0x276a <pid_Controller+0x14e>
    2762:	8f ef       	ldi	r24, 0xFF	; 255
    2764:	9f e7       	ldi	r25, 0x7F	; 127
    2766:	a0 e0       	ldi	r26, 0x00	; 0
    2768:	b0 e0       	ldi	r27, 0x00	; 0
    276a:	df 91       	pop	r29
    276c:	cf 91       	pop	r28
    276e:	1f 91       	pop	r17
    2770:	0f 91       	pop	r16
    2772:	ff 90       	pop	r15
    2774:	ef 90       	pop	r14
    2776:	08 95       	ret

00002778 <pid_Reset_Integrator>:
    2778:	fc 01       	movw	r30, r24
    277a:	12 82       	std	Z+2, r1	; 0x02
    277c:	13 82       	std	Z+3, r1	; 0x03
    277e:	14 82       	std	Z+4, r1	; 0x04
    2780:	15 82       	std	Z+5, r1	; 0x05
    2782:	08 95       	ret

00002784 <soundInit>:
    2784:	e0 e8       	ldi	r30, 0x80	; 128
    2786:	f0 e0       	ldi	r31, 0x00	; 0
    2788:	80 81       	ld	r24, Z
    278a:	80 64       	ori	r24, 0x40	; 64
    278c:	80 83       	st	Z, r24
    278e:	e1 e8       	ldi	r30, 0x81	; 129
    2790:	f0 e0       	ldi	r31, 0x00	; 0
    2792:	80 81       	ld	r24, Z
    2794:	88 60       	ori	r24, 0x08	; 8
    2796:	80 83       	st	Z, r24
    2798:	10 92 89 00 	sts	0x0089, r1	; 0x800089 <__TEXT_REGION_LENGTH__+0x7e0089>
    279c:	10 92 88 00 	sts	0x0088, r1	; 0x800088 <__TEXT_REGION_LENGTH__+0x7e0088>
    27a0:	80 81       	ld	r24, Z
    27a2:	8b 7f       	andi	r24, 0xFB	; 251
    27a4:	80 83       	st	Z, r24
    27a6:	08 95       	ret

000027a8 <playSound>:
    27a8:	8f 92       	push	r8
    27aa:	9f 92       	push	r9
    27ac:	af 92       	push	r10
    27ae:	bf 92       	push	r11
    27b0:	df 92       	push	r13
    27b2:	ef 92       	push	r14
    27b4:	ff 92       	push	r15
    27b6:	1f 93       	push	r17
    27b8:	cf 93       	push	r28
    27ba:	df 93       	push	r29
    27bc:	ec 01       	movw	r28, r24
    27be:	fc 01       	movw	r30, r24
    27c0:	14 91       	lpm	r17, Z
    27c2:	1f 70       	andi	r17, 0x0F	; 15
    27c4:	31 96       	adiw	r30, 0x01	; 1
    27c6:	24 91       	lpm	r18, Z
    27c8:	30 e0       	ldi	r19, 0x00	; 0
    27ca:	40 e0       	ldi	r20, 0x00	; 0
    27cc:	50 e0       	ldi	r21, 0x00	; 0
    27ce:	60 e6       	ldi	r22, 0x60	; 96
    27d0:	7a ee       	ldi	r23, 0xEA	; 234
    27d2:	80 e0       	ldi	r24, 0x00	; 0
    27d4:	90 e0       	ldi	r25, 0x00	; 0
    27d6:	0e 94 33 1d 	call	0x3a66	; 0x3a66 <__divmodsi4>
    27da:	fe 01       	movw	r30, r28
    27dc:	32 96       	adiw	r30, 0x02	; 2
    27de:	84 91       	lpm	r24, Z
    27e0:	88 23       	and	r24, r24
    27e2:	09 f4       	brne	.+2      	; 0x27e6 <playSound+0x3e>
    27e4:	6e c0       	rjmp	.+220    	; 0x28c2 <playSound+0x11a>
    27e6:	62 e0       	ldi	r22, 0x02	; 2
    27e8:	70 e0       	ldi	r23, 0x00	; 0
    27ea:	d1 2e       	mov	r13, r17
    27ec:	0f 2e       	mov	r0, r31
    27ee:	f4 e8       	ldi	r31, 0x84	; 132
    27f0:	ef 2e       	mov	r14, r31
    27f2:	f1 2c       	mov	r15, r1
    27f4:	f0 2d       	mov	r31, r0
    27f6:	0f 2e       	mov	r0, r31
    27f8:	f8 e8       	ldi	r31, 0x88	; 136
    27fa:	8f 2e       	mov	r8, r31
    27fc:	91 2c       	mov	r9, r1
    27fe:	f0 2d       	mov	r31, r0
    2800:	a1 e8       	ldi	r26, 0x81	; 129
    2802:	b0 e0       	ldi	r27, 0x00	; 0
    2804:	5b 01       	movw	r10, r22
    2806:	4f ef       	ldi	r20, 0xFF	; 255
    2808:	a4 1a       	sub	r10, r20
    280a:	b4 0a       	sbc	r11, r20
    280c:	e4 91       	lpm	r30, Z
    280e:	8e 2f       	mov	r24, r30
    2810:	82 95       	swap	r24
    2812:	86 95       	lsr	r24
    2814:	87 70       	andi	r24, 0x07	; 7
    2816:	a9 01       	movw	r20, r18
    2818:	02 c0       	rjmp	.+4      	; 0x281e <playSound+0x76>
    281a:	56 95       	lsr	r21
    281c:	47 95       	ror	r20
    281e:	8a 95       	dec	r24
    2820:	e2 f7       	brpl	.-8      	; 0x281a <playSound+0x72>
    2822:	ca 01       	movw	r24, r20
    2824:	e4 ff       	sbrs	r30, 4
    2826:	06 c0       	rjmp	.+12     	; 0x2834 <playSound+0x8c>
    2828:	44 0f       	add	r20, r20
    282a:	55 1f       	adc	r21, r21
    282c:	84 0f       	add	r24, r20
    282e:	95 1f       	adc	r25, r21
    2830:	96 95       	lsr	r25
    2832:	87 95       	ror	r24
    2834:	4e 2f       	mov	r20, r30
    2836:	4f 70       	andi	r20, 0x0F	; 15
    2838:	4e 30       	cpi	r20, 0x0E	; 14
    283a:	51 f4       	brne	.+20     	; 0x2850 <playSound+0xa8>
    283c:	6e 5f       	subi	r22, 0xFE	; 254
    283e:	7f 4f       	sbci	r23, 0xFF	; 255
    2840:	fe 01       	movw	r30, r28
    2842:	ea 0d       	add	r30, r10
    2844:	fb 1d       	adc	r31, r11
    2846:	e4 91       	lpm	r30, Z
    2848:	4e 2f       	mov	r20, r30
    284a:	42 95       	swap	r20
    284c:	4f 70       	andi	r20, 0x0F	; 15
    284e:	02 c0       	rjmp	.+4      	; 0x2854 <playSound+0xac>
    2850:	4d 2d       	mov	r20, r13
    2852:	b5 01       	movw	r22, r10
    2854:	1e 2f       	mov	r17, r30
    2856:	1f 70       	andi	r17, 0x0F	; 15
    2858:	1f 30       	cpi	r17, 0x0F	; 15
    285a:	d1 f0       	breq	.+52     	; 0x2890 <playSound+0xe8>
    285c:	f7 01       	movw	r30, r14
    285e:	11 82       	std	Z+1, r1	; 0x01
    2860:	10 82       	st	Z, r1
    2862:	50 e0       	ldi	r21, 0x00	; 0
    2864:	fa 01       	movw	r30, r20
    2866:	ee 0f       	add	r30, r30
    2868:	ff 1f       	adc	r31, r31
    286a:	e4 0f       	add	r30, r20
    286c:	f5 1f       	adc	r31, r21
    286e:	ee 0f       	add	r30, r30
    2870:	ff 1f       	adc	r31, r31
    2872:	ee 0f       	add	r30, r30
    2874:	ff 1f       	adc	r31, r31
    2876:	e1 0f       	add	r30, r17
    2878:	f1 1d       	adc	r31, r1
    287a:	e0 5e       	subi	r30, 0xE0	; 224
    287c:	f6 4f       	sbci	r31, 0xF6	; 246
    287e:	e4 91       	lpm	r30, Z
    2880:	4e 2f       	mov	r20, r30
    2882:	50 e0       	ldi	r21, 0x00	; 0
    2884:	f4 01       	movw	r30, r8
    2886:	51 83       	std	Z+1, r21	; 0x01
    2888:	40 83       	st	Z, r20
    288a:	4c 91       	ld	r20, X
    288c:	44 60       	ori	r20, 0x04	; 4
    288e:	4c 93       	st	X, r20
    2890:	01 97       	sbiw	r24, 0x01	; 1
    2892:	41 f0       	breq	.+16     	; 0x28a4 <playSound+0xfc>
	#else
		//round up by default
		__ticks_dc = (uint32_t)(ceil(fabs(__tmp)));
	#endif

	__builtin_avr_delay_cycles(__ticks_dc);
    2894:	ef e7       	ldi	r30, 0x7F	; 127
    2896:	fe e3       	ldi	r31, 0x3E	; 62
    2898:	31 97       	sbiw	r30, 0x01	; 1
    289a:	f1 f7       	brne	.-4      	; 0x2898 <playSound+0xf0>
    289c:	00 c0       	rjmp	.+0      	; 0x289e <playSound+0xf6>
    289e:	00 00       	nop
    28a0:	01 97       	sbiw	r24, 0x01	; 1
    28a2:	c1 f7       	brne	.-16     	; 0x2894 <playSound+0xec>
    28a4:	8c 91       	ld	r24, X
    28a6:	8b 7f       	andi	r24, 0xFB	; 251
    28a8:	8c 93       	st	X, r24
    28aa:	8f e7       	ldi	r24, 0x7F	; 127
    28ac:	9e e3       	ldi	r25, 0x3E	; 62
    28ae:	01 97       	sbiw	r24, 0x01	; 1
    28b0:	f1 f7       	brne	.-4      	; 0x28ae <playSound+0x106>
    28b2:	00 c0       	rjmp	.+0      	; 0x28b4 <playSound+0x10c>
    28b4:	00 00       	nop
    28b6:	fe 01       	movw	r30, r28
    28b8:	e6 0f       	add	r30, r22
    28ba:	f7 1f       	adc	r31, r23
    28bc:	84 91       	lpm	r24, Z
    28be:	81 11       	cpse	r24, r1
    28c0:	a1 cf       	rjmp	.-190    	; 0x2804 <playSound+0x5c>
    28c2:	df 91       	pop	r29
    28c4:	cf 91       	pop	r28
    28c6:	1f 91       	pop	r17
    28c8:	ff 90       	pop	r15
    28ca:	ef 90       	pop	r14
    28cc:	df 90       	pop	r13
    28ce:	bf 90       	pop	r11
    28d0:	af 90       	pop	r10
    28d2:	9f 90       	pop	r9
    28d4:	8f 90       	pop	r8
    28d6:	08 95       	ret

000028d8 <schedulerAddTask>:
    28d8:	0f 93       	push	r16
    28da:	1f 93       	push	r17
    28dc:	cf 93       	push	r28
    28de:	df 93       	push	r29
    28e0:	8c 01       	movw	r16, r24
    28e2:	80 91 bf 04 	lds	r24, 0x04BF	; 0x8004bf <schTasks_G>
    28e6:	90 91 c0 04 	lds	r25, 0x04C0	; 0x8004c0 <schTasks_G+0x1>
    28ea:	89 2b       	or	r24, r25
    28ec:	a1 f0       	breq	.+40     	; 0x2916 <schedulerAddTask+0x3e>
    28ee:	ef eb       	ldi	r30, 0xBF	; 191
    28f0:	f4 e0       	ldi	r31, 0x04	; 4
    28f2:	21 e0       	ldi	r18, 0x01	; 1
    28f4:	30 e0       	ldi	r19, 0x00	; 0
    28f6:	92 2f       	mov	r25, r18
    28f8:	e9 01       	movw	r28, r18
    28fa:	a7 81       	ldd	r26, Z+7	; 0x07
    28fc:	b0 85       	ldd	r27, Z+8	; 0x08
    28fe:	2f 5f       	subi	r18, 0xFF	; 255
    2900:	3f 4f       	sbci	r19, 0xFF	; 255
    2902:	37 96       	adiw	r30, 0x07	; 7
    2904:	ab 2b       	or	r26, r27
    2906:	b9 f7       	brne	.-18     	; 0x28f6 <schedulerAddTask+0x1e>
    2908:	9a 30       	cpi	r25, 0x0A	; 10
    290a:	41 f4       	brne	.+16     	; 0x291c <schedulerAddTask+0x44>
    290c:	81 e0       	ldi	r24, 0x01	; 1
    290e:	80 93 be 04 	sts	0x04BE, r24	; 0x8004be <Error_code_G>
    2912:	8a e0       	ldi	r24, 0x0A	; 10
    2914:	18 c0       	rjmp	.+48     	; 0x2946 <schedulerAddTask+0x6e>
    2916:	c0 e0       	ldi	r28, 0x00	; 0
    2918:	d0 e0       	ldi	r29, 0x00	; 0
    291a:	90 e0       	ldi	r25, 0x00	; 0
    291c:	fe 01       	movw	r30, r28
    291e:	ee 0f       	add	r30, r30
    2920:	ff 1f       	adc	r31, r31
    2922:	ee 0f       	add	r30, r30
    2924:	ff 1f       	adc	r31, r31
    2926:	ee 0f       	add	r30, r30
    2928:	ff 1f       	adc	r31, r31
    292a:	ec 1b       	sub	r30, r28
    292c:	fd 0b       	sbc	r31, r29
    292e:	e1 54       	subi	r30, 0x41	; 65
    2930:	fb 4f       	sbci	r31, 0xFB	; 251
    2932:	11 83       	std	Z+1, r17	; 0x01
    2934:	00 83       	st	Z, r16
    2936:	6f 5f       	subi	r22, 0xFF	; 255
    2938:	7f 4f       	sbci	r23, 0xFF	; 255
    293a:	73 83       	std	Z+3, r23	; 0x03
    293c:	62 83       	std	Z+2, r22	; 0x02
    293e:	55 83       	std	Z+5, r21	; 0x05
    2940:	44 83       	std	Z+4, r20	; 0x04
    2942:	16 82       	std	Z+6, r1	; 0x06
    2944:	89 2f       	mov	r24, r25
    2946:	df 91       	pop	r29
    2948:	cf 91       	pop	r28
    294a:	1f 91       	pop	r17
    294c:	0f 91       	pop	r16
    294e:	08 95       	ret

00002950 <schedulerDeleteTask>:
    2950:	8a 30       	cpi	r24, 0x0A	; 10
    2952:	20 f0       	brcs	.+8      	; 0x295c <schedulerDeleteTask+0xc>
    2954:	81 e0       	ldi	r24, 0x01	; 1
    2956:	80 93 be 04 	sts	0x04BE, r24	; 0x8004be <Error_code_G>
    295a:	08 95       	ret
    295c:	28 2f       	mov	r18, r24
    295e:	30 e0       	ldi	r19, 0x00	; 0
    2960:	97 e0       	ldi	r25, 0x07	; 7
    2962:	89 9f       	mul	r24, r25
    2964:	f0 01       	movw	r30, r0
    2966:	11 24       	eor	r1, r1
    2968:	e1 54       	subi	r30, 0x41	; 65
    296a:	fb 4f       	sbci	r31, 0xFB	; 251
    296c:	80 81       	ld	r24, Z
    296e:	91 81       	ldd	r25, Z+1	; 0x01
    2970:	89 2b       	or	r24, r25
    2972:	29 f4       	brne	.+10     	; 0x297e <schedulerDeleteTask+0x2e>
    2974:	82 e0       	ldi	r24, 0x02	; 2
    2976:	80 93 be 04 	sts	0x04BE, r24	; 0x8004be <Error_code_G>
    297a:	81 e0       	ldi	r24, 0x01	; 1
    297c:	01 c0       	rjmp	.+2      	; 0x2980 <schedulerDeleteTask+0x30>
    297e:	80 e0       	ldi	r24, 0x00	; 0
    2980:	f9 01       	movw	r30, r18
    2982:	ee 0f       	add	r30, r30
    2984:	ff 1f       	adc	r31, r31
    2986:	ee 0f       	add	r30, r30
    2988:	ff 1f       	adc	r31, r31
    298a:	ee 0f       	add	r30, r30
    298c:	ff 1f       	adc	r31, r31
    298e:	e2 1b       	sub	r30, r18
    2990:	f3 0b       	sbc	r31, r19
    2992:	e1 54       	subi	r30, 0x41	; 65
    2994:	fb 4f       	sbci	r31, 0xFB	; 251
    2996:	11 82       	std	Z+1, r1	; 0x01
    2998:	10 82       	st	Z, r1
    299a:	13 82       	std	Z+3, r1	; 0x03
    299c:	12 82       	std	Z+2, r1	; 0x02
    299e:	15 82       	std	Z+5, r1	; 0x05
    29a0:	14 82       	std	Z+4, r1	; 0x04
    29a2:	16 82       	std	Z+6, r1	; 0x06
    29a4:	08 95       	ret

000029a6 <scheduler_Init>:
    29a6:	cf 93       	push	r28
    29a8:	c0 e0       	ldi	r28, 0x00	; 0
    29aa:	8c 2f       	mov	r24, r28
    29ac:	0e 94 a8 14 	call	0x2950	; 0x2950 <schedulerDeleteTask>
    29b0:	cf 5f       	subi	r28, 0xFF	; 255
    29b2:	ca 30       	cpi	r28, 0x0A	; 10
    29b4:	d1 f7       	brne	.-12     	; 0x29aa <scheduler_Init+0x4>
    29b6:	10 92 be 04 	sts	0x04BE, r1	; 0x8004be <Error_code_G>
    29ba:	cf 91       	pop	r28
    29bc:	08 95       	ret

000029be <schedulerDispatchTasks>:
    29be:	1f 93       	push	r17
    29c0:	cf 93       	push	r28
    29c2:	df 93       	push	r29
    29c4:	cf eb       	ldi	r28, 0xBF	; 191
    29c6:	d4 e0       	ldi	r29, 0x04	; 4
    29c8:	10 e0       	ldi	r17, 0x00	; 0
    29ca:	8e 81       	ldd	r24, Y+6	; 0x06
    29cc:	88 23       	and	r24, r24
    29ce:	69 f0       	breq	.+26     	; 0x29ea <schedulerDispatchTasks+0x2c>
    29d0:	e8 81       	ld	r30, Y
    29d2:	f9 81       	ldd	r31, Y+1	; 0x01
    29d4:	09 95       	icall
    29d6:	8e 81       	ldd	r24, Y+6	; 0x06
    29d8:	81 50       	subi	r24, 0x01	; 1
    29da:	8e 83       	std	Y+6, r24	; 0x06
    29dc:	8c 81       	ldd	r24, Y+4	; 0x04
    29de:	9d 81       	ldd	r25, Y+5	; 0x05
    29e0:	89 2b       	or	r24, r25
    29e2:	19 f4       	brne	.+6      	; 0x29ea <schedulerDispatchTasks+0x2c>
    29e4:	81 2f       	mov	r24, r17
    29e6:	0e 94 a8 14 	call	0x2950	; 0x2950 <schedulerDeleteTask>
    29ea:	1f 5f       	subi	r17, 0xFF	; 255
    29ec:	27 96       	adiw	r28, 0x07	; 7
    29ee:	1a 30       	cpi	r17, 0x0A	; 10
    29f0:	61 f7       	brne	.-40     	; 0x29ca <schedulerDispatchTasks+0xc>
    29f2:	df 91       	pop	r29
    29f4:	cf 91       	pop	r28
    29f6:	1f 91       	pop	r17
    29f8:	08 95       	ret

000029fa <schedulerUpdate>:
    29fa:	ef eb       	ldi	r30, 0xBF	; 191
    29fc:	f4 e0       	ldi	r31, 0x04	; 4
    29fe:	25 e0       	ldi	r18, 0x05	; 5
    2a00:	35 e0       	ldi	r19, 0x05	; 5
    2a02:	41 e0       	ldi	r20, 0x01	; 1
    2a04:	80 81       	ld	r24, Z
    2a06:	91 81       	ldd	r25, Z+1	; 0x01
    2a08:	89 2b       	or	r24, r25
    2a0a:	89 f0       	breq	.+34     	; 0x2a2e <schedulerUpdate+0x34>
    2a0c:	86 81       	ldd	r24, Z+6	; 0x06
    2a0e:	81 11       	cpse	r24, r1
    2a10:	0e c0       	rjmp	.+28     	; 0x2a2e <schedulerUpdate+0x34>
    2a12:	82 81       	ldd	r24, Z+2	; 0x02
    2a14:	93 81       	ldd	r25, Z+3	; 0x03
    2a16:	01 97       	sbiw	r24, 0x01	; 1
    2a18:	93 83       	std	Z+3, r25	; 0x03
    2a1a:	82 83       	std	Z+2, r24	; 0x02
    2a1c:	89 2b       	or	r24, r25
    2a1e:	39 f4       	brne	.+14     	; 0x2a2e <schedulerUpdate+0x34>
    2a20:	46 83       	std	Z+6, r20	; 0x06
    2a22:	84 81       	ldd	r24, Z+4	; 0x04
    2a24:	95 81       	ldd	r25, Z+5	; 0x05
    2a26:	00 97       	sbiw	r24, 0x00	; 0
    2a28:	11 f0       	breq	.+4      	; 0x2a2e <schedulerUpdate+0x34>
    2a2a:	93 83       	std	Z+3, r25	; 0x03
    2a2c:	82 83       	std	Z+2, r24	; 0x02
    2a2e:	37 96       	adiw	r30, 0x07	; 7
    2a30:	e2 17       	cp	r30, r18
    2a32:	f3 07       	cpc	r31, r19
    2a34:	39 f7       	brne	.-50     	; 0x2a04 <schedulerUpdate+0xa>
    2a36:	08 95       	ret

00002a38 <battery_update_DUMMY>:
    2a38:	08 95       	ret

00002a3a <drive_update_DUMMY>:
    2a3a:	08 95       	ret

00002a3c <adc_Read>:
    2a3c:	ec e7       	ldi	r30, 0x7C	; 124
    2a3e:	f0 e0       	ldi	r31, 0x00	; 0
    2a40:	90 81       	ld	r25, Z
    2a42:	90 7e       	andi	r25, 0xE0	; 224
    2a44:	8f 71       	andi	r24, 0x1F	; 31
    2a46:	89 2b       	or	r24, r25
    2a48:	80 83       	st	Z, r24
    2a4a:	ea e7       	ldi	r30, 0x7A	; 122
    2a4c:	f0 e0       	ldi	r31, 0x00	; 0
    2a4e:	80 81       	ld	r24, Z
    2a50:	80 64       	ori	r24, 0x40	; 64
    2a52:	80 83       	st	Z, r24
    2a54:	80 81       	ld	r24, Z
    2a56:	86 fd       	sbrc	r24, 6
    2a58:	fd cf       	rjmp	.-6      	; 0x2a54 <adc_Read+0x18>
    2a5a:	80 91 78 00 	lds	r24, 0x0078	; 0x800078 <__TEXT_REGION_LENGTH__+0x7e0078>
    2a5e:	90 91 79 00 	lds	r25, 0x0079	; 0x800079 <__TEXT_REGION_LENGTH__+0x7e0079>
    2a62:	08 95       	ret

00002a64 <batt_voltage>:
    2a64:	82 e0       	ldi	r24, 0x02	; 2
    2a66:	0e 94 1e 15 	call	0x2a3c	; 0x2a3c <adc_Read>
    2a6a:	a0 e0       	ldi	r26, 0x00	; 0
    2a6c:	b0 e0       	ldi	r27, 0x00	; 0
    2a6e:	9c 01       	movw	r18, r24
    2a70:	ad 01       	movw	r20, r26
    2a72:	22 0f       	add	r18, r18
    2a74:	33 1f       	adc	r19, r19
    2a76:	44 1f       	adc	r20, r20
    2a78:	55 1f       	adc	r21, r21
    2a7a:	a8 e8       	ldi	r26, 0x88	; 136
    2a7c:	b3 e1       	ldi	r27, 0x13	; 19
    2a7e:	0e 94 61 1d 	call	0x3ac2	; 0x3ac2 <__muluhisi3>
    2a82:	dc 01       	movw	r26, r24
    2a84:	cb 01       	movw	r24, r22
    2a86:	07 2e       	mov	r0, r23
    2a88:	7a e0       	ldi	r23, 0x0A	; 10
    2a8a:	b6 95       	lsr	r27
    2a8c:	a7 95       	ror	r26
    2a8e:	97 95       	ror	r25
    2a90:	87 95       	ror	r24
    2a92:	7a 95       	dec	r23
    2a94:	d1 f7       	brne	.-12     	; 0x2a8a <batt_voltage+0x26>
    2a96:	70 2d       	mov	r23, r0
    2a98:	08 95       	ret

00002a9a <setStatusLED>:
    2a9a:	95 b1       	in	r25, 0x05	; 5
    2a9c:	93 60       	ori	r25, 0x03	; 3
    2a9e:	95 b9       	out	0x05, r25	; 5
    2aa0:	81 30       	cpi	r24, 0x01	; 1
    2aa2:	11 f4       	brne	.+4      	; 0x2aa8 <setStatusLED+0xe>
    2aa4:	29 98       	cbi	0x05, 1	; 5
    2aa6:	08 95       	ret
    2aa8:	81 11       	cpse	r24, r1
    2aaa:	02 c0       	rjmp	.+4      	; 0x2ab0 <setStatusLED+0x16>
    2aac:	28 98       	cbi	0x05, 0	; 5
    2aae:	08 95       	ret
    2ab0:	83 30       	cpi	r24, 0x03	; 3
    2ab2:	19 f4       	brne	.+6      	; 0x2aba <setStatusLED+0x20>
    2ab4:	85 b1       	in	r24, 0x05	; 5
    2ab6:	8c 7f       	andi	r24, 0xFC	; 252
    2ab8:	85 b9       	out	0x05, r24	; 5
    2aba:	08 95       	ret

00002abc <enableDevice>:
    2abc:	83 30       	cpi	r24, 0x03	; 3
    2abe:	71 f0       	breq	.+28     	; 0x2adc <enableDevice+0x20>
    2ac0:	8f 3f       	cpi	r24, 0xFF	; 255
    2ac2:	19 f0       	breq	.+6      	; 0x2aca <enableDevice+0xe>
    2ac4:	81 30       	cpi	r24, 0x01	; 1
    2ac6:	b9 f4       	brne	.+46     	; 0x2af6 <enableDevice+0x3a>
    2ac8:	10 c0       	rjmp	.+32     	; 0x2aea <enableDevice+0x2e>
    2aca:	2a 98       	cbi	0x05, 2	; 5
    2acc:	45 98       	cbi	0x08, 5	; 8
    2ace:	ed e7       	ldi	r30, 0x7D	; 125
    2ad0:	f4 e0       	ldi	r31, 0x04	; 4
    2ad2:	80 81       	ld	r24, Z
    2ad4:	84 60       	ori	r24, 0x04	; 4
    2ad6:	80 61       	ori	r24, 0x10	; 16
    2ad8:	80 83       	st	Z, r24
    2ada:	08 95       	ret
    2adc:	2a 98       	cbi	0x05, 2	; 5
    2ade:	ed e7       	ldi	r30, 0x7D	; 125
    2ae0:	f4 e0       	ldi	r31, 0x04	; 4
    2ae2:	80 81       	ld	r24, Z
    2ae4:	80 61       	ori	r24, 0x10	; 16
    2ae6:	80 83       	st	Z, r24
    2ae8:	08 95       	ret
    2aea:	45 98       	cbi	0x08, 5	; 8
    2aec:	ed e7       	ldi	r30, 0x7D	; 125
    2aee:	f4 e0       	ldi	r31, 0x04	; 4
    2af0:	80 81       	ld	r24, Z
    2af2:	84 60       	ori	r24, 0x04	; 4
    2af4:	80 83       	st	Z, r24
    2af6:	08 95       	ret

00002af8 <disableDevice>:
    2af8:	83 30       	cpi	r24, 0x03	; 3
    2afa:	71 f0       	breq	.+28     	; 0x2b18 <disableDevice+0x20>
    2afc:	8f 3f       	cpi	r24, 0xFF	; 255
    2afe:	19 f0       	breq	.+6      	; 0x2b06 <disableDevice+0xe>
    2b00:	81 30       	cpi	r24, 0x01	; 1
    2b02:	b9 f4       	brne	.+46     	; 0x2b32 <disableDevice+0x3a>
    2b04:	10 c0       	rjmp	.+32     	; 0x2b26 <disableDevice+0x2e>
    2b06:	2a 9a       	sbi	0x05, 2	; 5
    2b08:	45 9a       	sbi	0x08, 5	; 8
    2b0a:	ed e7       	ldi	r30, 0x7D	; 125
    2b0c:	f4 e0       	ldi	r31, 0x04	; 4
    2b0e:	80 81       	ld	r24, Z
    2b10:	8b 7f       	andi	r24, 0xFB	; 251
    2b12:	8f 7e       	andi	r24, 0xEF	; 239
    2b14:	80 83       	st	Z, r24
    2b16:	08 95       	ret
    2b18:	2a 9a       	sbi	0x05, 2	; 5
    2b1a:	ed e7       	ldi	r30, 0x7D	; 125
    2b1c:	f4 e0       	ldi	r31, 0x04	; 4
    2b1e:	80 81       	ld	r24, Z
    2b20:	8f 7e       	andi	r24, 0xEF	; 239
    2b22:	80 83       	st	Z, r24
    2b24:	08 95       	ret
    2b26:	45 9a       	sbi	0x08, 5	; 8
    2b28:	ed e7       	ldi	r30, 0x7D	; 125
    2b2a:	f4 e0       	ldi	r31, 0x04	; 4
    2b2c:	80 81       	ld	r24, Z
    2b2e:	8b 7f       	andi	r24, 0xFB	; 251
    2b30:	80 83       	st	Z, r24
    2b32:	08 95       	ret

00002b34 <get_time_ms>:
    2b34:	f8 94       	cli
    2b36:	60 91 80 04 	lds	r22, 0x0480	; 0x800480 <systemStatus+0x3>
    2b3a:	70 91 81 04 	lds	r23, 0x0481	; 0x800481 <systemStatus+0x4>
    2b3e:	80 91 82 04 	lds	r24, 0x0482	; 0x800482 <systemStatus+0x5>
    2b42:	90 91 83 04 	lds	r25, 0x0483	; 0x800483 <systemStatus+0x6>
    2b46:	78 94       	sei
    2b48:	08 95       	ret

00002b4a <get_time_s>:
    2b4a:	0e 94 9a 15 	call	0x2b34	; 0x2b34 <get_time_ms>
    2b4e:	28 ee       	ldi	r18, 0xE8	; 232
    2b50:	33 e0       	ldi	r19, 0x03	; 3
    2b52:	40 e0       	ldi	r20, 0x00	; 0
    2b54:	50 e0       	ldi	r21, 0x00	; 0
    2b56:	0e 94 11 1d 	call	0x3a22	; 0x3a22 <__udivmodsi4>
    2b5a:	c9 01       	movw	r24, r18
    2b5c:	08 95       	ret

00002b5e <uart_putInt>:
    2b5e:	cf 93       	push	r28
    2b60:	df 93       	push	r29
    2b62:	cd b7       	in	r28, 0x3d	; 61
    2b64:	de b7       	in	r29, 0x3e	; 62
    2b66:	2a 97       	sbiw	r28, 0x0a	; 10
    2b68:	0f b6       	in	r0, 0x3f	; 63
    2b6a:	f8 94       	cli
    2b6c:	de bf       	out	0x3e, r29	; 62
    2b6e:	0f be       	out	0x3f, r0	; 63
    2b70:	cd bf       	out	0x3d, r28	; 61
    2b72:	4a e0       	ldi	r20, 0x0A	; 10
    2b74:	be 01       	movw	r22, r28
    2b76:	6f 5f       	subi	r22, 0xFF	; 255
    2b78:	7f 4f       	sbci	r23, 0xFF	; 255
    2b7a:	0e 94 f6 1e 	call	0x3dec	; 0x3dec <__itoa_ncheck>
    2b7e:	ce 01       	movw	r24, r28
    2b80:	01 96       	adiw	r24, 0x01	; 1
    2b82:	0e 94 fb 18 	call	0x31f6	; 0x31f6 <uart_puts>
    2b86:	2a 96       	adiw	r28, 0x0a	; 10
    2b88:	0f b6       	in	r0, 0x3f	; 63
    2b8a:	f8 94       	cli
    2b8c:	de bf       	out	0x3e, r29	; 62
    2b8e:	0f be       	out	0x3f, r0	; 63
    2b90:	cd bf       	out	0x3d, r28	; 61
    2b92:	df 91       	pop	r29
    2b94:	cf 91       	pop	r28
    2b96:	08 95       	ret

00002b98 <taskBattery>:
    2b98:	cf 93       	push	r28
    2b9a:	0e 94 32 15 	call	0x2a64	; 0x2a64 <batt_voltage>
    2b9e:	90 93 7f 04 	sts	0x047F, r25	; 0x80047f <systemStatus+0x2>
    2ba2:	80 93 7e 04 	sts	0x047E, r24	; 0x80047e <systemStatus+0x1>
    2ba6:	80 39       	cpi	r24, 0x90	; 144
    2ba8:	9a 41       	sbci	r25, 0x1A	; 26
    2baa:	28 f4       	brcc	.+10     	; 0x2bb6 <taskBattery+0x1e>
    2bac:	ed e7       	ldi	r30, 0x7D	; 125
    2bae:	f4 e0       	ldi	r31, 0x04	; 4
    2bb0:	80 81       	ld	r24, Z
    2bb2:	88 60       	ori	r24, 0x08	; 8
    2bb4:	80 83       	st	Z, r24
    2bb6:	80 91 7d 04 	lds	r24, 0x047D	; 0x80047d <systemStatus>
    2bba:	83 ff       	sbrs	r24, 3
    2bbc:	50 c0       	rjmp	.+160    	; 0x2c5e <taskBattery+0xc6>
    2bbe:	e0 91 22 01 	lds	r30, 0x0122	; 0x800122 <battery_stateChangedHandler>
    2bc2:	f0 91 23 01 	lds	r31, 0x0123	; 0x800123 <battery_stateChangedHandler+0x1>
    2bc6:	09 95       	icall
    2bc8:	60 e0       	ldi	r22, 0x00	; 0
    2bca:	80 e0       	ldi	r24, 0x00	; 0
    2bcc:	0e 94 58 12 	call	0x24b0	; 0x24b0 <motorDirection>
    2bd0:	83 e0       	ldi	r24, 0x03	; 3
    2bd2:	0e 94 7c 15 	call	0x2af8	; 0x2af8 <disableDevice>
    2bd6:	46 98       	cbi	0x08, 6	; 8
    2bd8:	ed e7       	ldi	r30, 0x7D	; 125
    2bda:	f4 e0       	ldi	r31, 0x04	; 4
    2bdc:	80 81       	ld	r24, Z
    2bde:	8e 7f       	andi	r24, 0xFE	; 254
    2be0:	80 83       	st	Z, r24
    2be2:	8a e0       	ldi	r24, 0x0A	; 10
    2be4:	0e 94 4d 15 	call	0x2a9a	; 0x2a9a <setStatusLED>
    2be8:	0e 94 32 15 	call	0x2a64	; 0x2a64 <batt_voltage>
    2bec:	9f 93       	push	r25
    2bee:	8f 93       	push	r24
    2bf0:	81 e5       	ldi	r24, 0x51	; 81
    2bf2:	99 e0       	ldi	r25, 0x09	; 9
    2bf4:	9f 93       	push	r25
    2bf6:	8f 93       	push	r24
    2bf8:	0e 94 33 12 	call	0x2466	; 0x2466 <_log_Error>
    2bfc:	0f 90       	pop	r0
    2bfe:	0f 90       	pop	r0
    2c00:	0f 90       	pop	r0
    2c02:	0f 90       	pop	r0
    2c04:	c4 e1       	ldi	r28, 0x14	; 20
    2c06:	81 e0       	ldi	r24, 0x01	; 1
    2c08:	0e 94 4d 15 	call	0x2a9a	; 0x2a9a <setStatusLED>
    2c0c:	8f ef       	ldi	r24, 0xFF	; 255
    2c0e:	93 ec       	ldi	r25, 0xC3	; 195
    2c10:	29 e0       	ldi	r18, 0x09	; 9
    2c12:	81 50       	subi	r24, 0x01	; 1
    2c14:	90 40       	sbci	r25, 0x00	; 0
    2c16:	20 40       	sbci	r18, 0x00	; 0
    2c18:	e1 f7       	brne	.-8      	; 0x2c12 <taskBattery+0x7a>
    2c1a:	00 c0       	rjmp	.+0      	; 0x2c1c <taskBattery+0x84>
    2c1c:	00 00       	nop
    2c1e:	8a e0       	ldi	r24, 0x0A	; 10
    2c20:	0e 94 4d 15 	call	0x2a9a	; 0x2a9a <setStatusLED>
    2c24:	8f ef       	ldi	r24, 0xFF	; 255
    2c26:	93 ec       	ldi	r25, 0xC3	; 195
    2c28:	29 e0       	ldi	r18, 0x09	; 9
    2c2a:	81 50       	subi	r24, 0x01	; 1
    2c2c:	90 40       	sbci	r25, 0x00	; 0
    2c2e:	20 40       	sbci	r18, 0x00	; 0
    2c30:	e1 f7       	brne	.-8      	; 0x2c2a <taskBattery+0x92>
    2c32:	00 c0       	rjmp	.+0      	; 0x2c34 <taskBattery+0x9c>
    2c34:	00 00       	nop
    2c36:	c1 50       	subi	r28, 0x01	; 1
    2c38:	31 f7       	brne	.-52     	; 0x2c06 <taskBattery+0x6e>
    2c3a:	8f ef       	ldi	r24, 0xFF	; 255
    2c3c:	0e 94 7c 15 	call	0x2af8	; 0x2af8 <disableDevice>
    2c40:	8a e0       	ldi	r24, 0x0A	; 10
    2c42:	0e 94 4d 15 	call	0x2a9a	; 0x2a9a <setStatusLED>
    2c46:	83 b7       	in	r24, 0x33	; 51
    2c48:	81 7f       	andi	r24, 0xF1	; 241
    2c4a:	84 60       	ori	r24, 0x04	; 4
    2c4c:	83 bf       	out	0x33, r24	; 51
    2c4e:	83 b7       	in	r24, 0x33	; 51
    2c50:	81 60       	ori	r24, 0x01	; 1
    2c52:	83 bf       	out	0x33, r24	; 51
    2c54:	88 95       	sleep
    2c56:	83 b7       	in	r24, 0x33	; 51
    2c58:	8e 7f       	andi	r24, 0xFE	; 254
    2c5a:	83 bf       	out	0x33, r24	; 51
    2c5c:	f8 cf       	rjmp	.-16     	; 0x2c4e <taskBattery+0xb6>
    2c5e:	cf 91       	pop	r28
    2c60:	08 95       	ret

00002c62 <drive_setStateChangedHandler>:
    2c62:	90 93 21 01 	sts	0x0121, r25	; 0x800121 <drive_stateChangedHandler+0x1>
    2c66:	80 93 20 01 	sts	0x0120, r24	; 0x800120 <drive_stateChangedHandler>
    2c6a:	08 95       	ret

00002c6c <taskDrive>:
    2c6c:	80 91 6b 04 	lds	r24, 0x046B	; 0x80046b <motorStatus>
    2c70:	84 ff       	sbrs	r24, 4
    2c72:	1c c0       	rjmp	.+56     	; 0x2cac <taskDrive+0x40>
    2c74:	80 91 7d 04 	lds	r24, 0x047D	; 0x80047d <systemStatus>
    2c78:	80 ff       	sbrs	r24, 0
    2c7a:	18 c0       	rjmp	.+48     	; 0x2cac <taskDrive+0x40>
    2c7c:	80 e8       	ldi	r24, 0x80	; 128
    2c7e:	0e 94 9a 17 	call	0x2f34	; 0x2f34 <getStopwatch>
    2c82:	20 91 75 04 	lds	r18, 0x0475	; 0x800475 <motorStatus+0xa>
    2c86:	30 91 76 04 	lds	r19, 0x0476	; 0x800476 <motorStatus+0xb>
    2c8a:	82 17       	cp	r24, r18
    2c8c:	93 07       	cpc	r25, r19
    2c8e:	70 f0       	brcs	.+28     	; 0x2cac <taskDrive+0x40>
    2c90:	60 e0       	ldi	r22, 0x00	; 0
    2c92:	80 e0       	ldi	r24, 0x00	; 0
    2c94:	0e 94 58 12 	call	0x24b0	; 0x24b0 <motorDirection>
    2c98:	eb e6       	ldi	r30, 0x6B	; 107
    2c9a:	f4 e0       	ldi	r31, 0x04	; 4
    2c9c:	80 81       	ld	r24, Z
    2c9e:	8f 7e       	andi	r24, 0xEF	; 239
    2ca0:	80 83       	st	Z, r24
    2ca2:	ef e0       	ldi	r30, 0x0F	; 15
    2ca4:	f5 e0       	ldi	r31, 0x05	; 5
    2ca6:	80 81       	ld	r24, Z
    2ca8:	8f 77       	andi	r24, 0x7F	; 127
    2caa:	80 83       	st	Z, r24
    2cac:	e0 91 20 01 	lds	r30, 0x0120	; 0x800120 <drive_stateChangedHandler>
    2cb0:	f0 91 21 01 	lds	r31, 0x0121	; 0x800121 <drive_stateChangedHandler+0x1>
    2cb4:	09 95       	icall
    2cb6:	08 95       	ret

00002cb8 <taskSystem>:
    2cb8:	0e 94 cc 15 	call	0x2b98	; 0x2b98 <taskBattery>
    2cbc:	0e 94 36 16 	call	0x2c6c	; 0x2c6c <taskDrive>
    2cc0:	08 95       	ret

00002cc2 <systemInit>:
    2cc2:	cf 93       	push	r28
    2cc4:	df 93       	push	r29
    2cc6:	f8 94       	cli
    2cc8:	84 b1       	in	r24, 0x04	; 4
    2cca:	87 60       	ori	r24, 0x07	; 7
    2ccc:	84 b9       	out	0x04, r24	; 4
    2cce:	87 b1       	in	r24, 0x07	; 7
    2cd0:	8c 6f       	ori	r24, 0xFC	; 252
    2cd2:	87 b9       	out	0x07, r24	; 7
    2cd4:	8a b1       	in	r24, 0x0a	; 10
    2cd6:	80 6f       	ori	r24, 0xF0	; 240
    2cd8:	8a b9       	out	0x0a, r24	; 10
    2cda:	81 e0       	ldi	r24, 0x01	; 1
    2cdc:	0e 94 5e 15 	call	0x2abc	; 0x2abc <enableDevice>
    2ce0:	83 e0       	ldi	r24, 0x03	; 3
    2ce2:	0e 94 7c 15 	call	0x2af8	; 0x2af8 <disableDevice>
    2ce6:	ec e7       	ldi	r30, 0x7C	; 124
    2ce8:	f0 e0       	ldi	r31, 0x00	; 0
    2cea:	80 81       	ld	r24, Z
    2cec:	80 64       	ori	r24, 0x40	; 64
    2cee:	80 83       	st	Z, r24
    2cf0:	ea e7       	ldi	r30, 0x7A	; 122
    2cf2:	f0 e0       	ldi	r31, 0x00	; 0
    2cf4:	80 81       	ld	r24, Z
    2cf6:	87 68       	ori	r24, 0x87	; 135
    2cf8:	80 83       	st	Z, r24
    2cfa:	80 81       	ld	r24, Z
    2cfc:	80 64       	ori	r24, 0x40	; 64
    2cfe:	80 83       	st	Z, r24
    2d00:	80 81       	ld	r24, Z
    2d02:	86 fd       	sbrc	r24, 6
    2d04:	fd cf       	rjmp	.-6      	; 0x2d00 <systemInit+0x3e>
    2d06:	80 91 78 00 	lds	r24, 0x0078	; 0x800078 <__TEXT_REGION_LENGTH__+0x7e0078>
    2d0a:	90 91 79 00 	lds	r25, 0x0079	; 0x800079 <__TEXT_REGION_LENGTH__+0x7e0079>
    2d0e:	84 b5       	in	r24, 0x24	; 36
    2d10:	82 60       	ori	r24, 0x02	; 2
    2d12:	84 bd       	out	0x24, r24	; 36
    2d14:	85 b5       	in	r24, 0x25	; 37
    2d16:	83 60       	ori	r24, 0x03	; 3
    2d18:	85 bd       	out	0x25, r24	; 37
    2d1a:	ee e6       	ldi	r30, 0x6E	; 110
    2d1c:	f0 e0       	ldi	r31, 0x00	; 0
    2d1e:	80 81       	ld	r24, Z
    2d20:	82 60       	ori	r24, 0x02	; 2
    2d22:	80 83       	st	Z, r24
    2d24:	89 ef       	ldi	r24, 0xF9	; 249
    2d26:	87 bd       	out	0x27, r24	; 39
    2d28:	0e 94 32 15 	call	0x2a64	; 0x2a64 <batt_voltage>
    2d2c:	cd e7       	ldi	r28, 0x7D	; 125
    2d2e:	d4 e0       	ldi	r29, 0x04	; 4
    2d30:	9a 83       	std	Y+2, r25	; 0x02
    2d32:	89 83       	std	Y+1, r24	; 0x01
    2d34:	1b 82       	std	Y+3, r1	; 0x03
    2d36:	1c 82       	std	Y+4, r1	; 0x04
    2d38:	1d 82       	std	Y+5, r1	; 0x05
    2d3a:	1e 82       	std	Y+6, r1	; 0x06
    2d3c:	18 82       	st	Y, r1
    2d3e:	10 92 84 04 	sts	0x0484, r1	; 0x800484 <lineSensors>
    2d42:	0e 94 fb 11 	call	0x23f6	; 0x23f6 <lineInit>
    2d46:	46 98       	cbi	0x08, 6	; 8
    2d48:	8a e0       	ldi	r24, 0x0A	; 10
    2d4a:	0e 94 4d 15 	call	0x2a9a	; 0x2a9a <setStatusLED>
    2d4e:	0e 94 cd 12 	call	0x259a	; 0x259a <motorInit>
    2d52:	0e 94 3f 11 	call	0x227e	; 0x227e <encoderInit>
    2d56:	88 e0       	ldi	r24, 0x08	; 8
    2d58:	90 e0       	ldi	r25, 0x00	; 0
    2d5a:	0e 94 af 18 	call	0x315e	; 0x315e <uart_init>
    2d5e:	82 e1       	ldi	r24, 0x12	; 18
    2d60:	91 e0       	ldi	r25, 0x01	; 1
    2d62:	90 93 23 05 	sts	0x0523, r25	; 0x800523 <__iob+0x3>
    2d66:	80 93 22 05 	sts	0x0522, r24	; 0x800522 <__iob+0x2>
    2d6a:	0e 94 c2 13 	call	0x2784	; 0x2784 <soundInit>
    2d6e:	0e 94 d3 14 	call	0x29a6	; 0x29a6 <scheduler_Init>
    2d72:	0e 94 dc 17 	call	0x2fb8	; 0x2fb8 <i2c_init>
    2d76:	88 81       	ld	r24, Y
    2d78:	81 60       	ori	r24, 0x01	; 1
    2d7a:	88 83       	st	Y, r24
    2d7c:	4a e0       	ldi	r20, 0x0A	; 10
    2d7e:	50 e0       	ldi	r21, 0x00	; 0
    2d80:	60 e0       	ldi	r22, 0x00	; 0
    2d82:	70 e0       	ldi	r23, 0x00	; 0
    2d84:	8c e5       	ldi	r24, 0x5C	; 92
    2d86:	96 e1       	ldi	r25, 0x16	; 22
    2d88:	0e 94 6c 14 	call	0x28d8	; 0x28d8 <schedulerAddTask>
    2d8c:	80 93 05 05 	sts	0x0505, r24	; 0x800505 <taskID>
    2d90:	78 94       	sei
    2d92:	df 91       	pop	r29
    2d94:	cf 91       	pop	r28
    2d96:	08 95       	ret

00002d98 <__vector_16>:
    2d98:	1f 92       	push	r1
    2d9a:	0f 92       	push	r0
    2d9c:	0f b6       	in	r0, 0x3f	; 63
    2d9e:	0f 92       	push	r0
    2da0:	11 24       	eor	r1, r1
    2da2:	2f 93       	push	r18
    2da4:	3f 93       	push	r19
    2da6:	4f 93       	push	r20
    2da8:	5f 93       	push	r21
    2daa:	6f 93       	push	r22
    2dac:	7f 93       	push	r23
    2dae:	8f 93       	push	r24
    2db0:	9f 93       	push	r25
    2db2:	af 93       	push	r26
    2db4:	bf 93       	push	r27
    2db6:	ef 93       	push	r30
    2db8:	ff 93       	push	r31
    2dba:	ed e7       	ldi	r30, 0x7D	; 125
    2dbc:	f4 e0       	ldi	r31, 0x04	; 4
    2dbe:	83 81       	ldd	r24, Z+3	; 0x03
    2dc0:	94 81       	ldd	r25, Z+4	; 0x04
    2dc2:	a5 81       	ldd	r26, Z+5	; 0x05
    2dc4:	b6 81       	ldd	r27, Z+6	; 0x06
    2dc6:	01 96       	adiw	r24, 0x01	; 1
    2dc8:	a1 1d       	adc	r26, r1
    2dca:	b1 1d       	adc	r27, r1
    2dcc:	83 83       	std	Z+3, r24	; 0x03
    2dce:	94 83       	std	Z+4, r25	; 0x04
    2dd0:	a5 83       	std	Z+5, r26	; 0x05
    2dd2:	b6 83       	std	Z+6, r27	; 0x06
    2dd4:	80 91 0f 05 	lds	r24, 0x050F	; 0x80050f <stopwatches>
    2dd8:	80 ff       	sbrs	r24, 0
    2dda:	07 c0       	rjmp	.+14     	; 0x2dea <__vector_16+0x52>
    2ddc:	ef e0       	ldi	r30, 0x0F	; 15
    2dde:	f5 e0       	ldi	r31, 0x05	; 5
    2de0:	81 81       	ldd	r24, Z+1	; 0x01
    2de2:	92 81       	ldd	r25, Z+2	; 0x02
    2de4:	01 96       	adiw	r24, 0x01	; 1
    2de6:	92 83       	std	Z+2, r25	; 0x02
    2de8:	81 83       	std	Z+1, r24	; 0x01
    2dea:	80 91 0f 05 	lds	r24, 0x050F	; 0x80050f <stopwatches>
    2dee:	81 ff       	sbrs	r24, 1
    2df0:	07 c0       	rjmp	.+14     	; 0x2e00 <__vector_16+0x68>
    2df2:	ef e0       	ldi	r30, 0x0F	; 15
    2df4:	f5 e0       	ldi	r31, 0x05	; 5
    2df6:	83 81       	ldd	r24, Z+3	; 0x03
    2df8:	94 81       	ldd	r25, Z+4	; 0x04
    2dfa:	01 96       	adiw	r24, 0x01	; 1
    2dfc:	94 83       	std	Z+4, r25	; 0x04
    2dfe:	83 83       	std	Z+3, r24	; 0x03
    2e00:	80 91 0f 05 	lds	r24, 0x050F	; 0x80050f <stopwatches>
    2e04:	82 ff       	sbrs	r24, 2
    2e06:	07 c0       	rjmp	.+14     	; 0x2e16 <__vector_16+0x7e>
    2e08:	ef e0       	ldi	r30, 0x0F	; 15
    2e0a:	f5 e0       	ldi	r31, 0x05	; 5
    2e0c:	85 81       	ldd	r24, Z+5	; 0x05
    2e0e:	96 81       	ldd	r25, Z+6	; 0x06
    2e10:	01 96       	adiw	r24, 0x01	; 1
    2e12:	96 83       	std	Z+6, r25	; 0x06
    2e14:	85 83       	std	Z+5, r24	; 0x05
    2e16:	80 91 0f 05 	lds	r24, 0x050F	; 0x80050f <stopwatches>
    2e1a:	83 ff       	sbrs	r24, 3
    2e1c:	07 c0       	rjmp	.+14     	; 0x2e2c <__vector_16+0x94>
    2e1e:	ef e0       	ldi	r30, 0x0F	; 15
    2e20:	f5 e0       	ldi	r31, 0x05	; 5
    2e22:	87 81       	ldd	r24, Z+7	; 0x07
    2e24:	90 85       	ldd	r25, Z+8	; 0x08
    2e26:	01 96       	adiw	r24, 0x01	; 1
    2e28:	90 87       	std	Z+8, r25	; 0x08
    2e2a:	87 83       	std	Z+7, r24	; 0x07
    2e2c:	80 91 0f 05 	lds	r24, 0x050F	; 0x80050f <stopwatches>
    2e30:	84 ff       	sbrs	r24, 4
    2e32:	07 c0       	rjmp	.+14     	; 0x2e42 <__vector_16+0xaa>
    2e34:	ef e0       	ldi	r30, 0x0F	; 15
    2e36:	f5 e0       	ldi	r31, 0x05	; 5
    2e38:	81 85       	ldd	r24, Z+9	; 0x09
    2e3a:	92 85       	ldd	r25, Z+10	; 0x0a
    2e3c:	01 96       	adiw	r24, 0x01	; 1
    2e3e:	92 87       	std	Z+10, r25	; 0x0a
    2e40:	81 87       	std	Z+9, r24	; 0x09
    2e42:	80 91 0f 05 	lds	r24, 0x050F	; 0x80050f <stopwatches>
    2e46:	85 ff       	sbrs	r24, 5
    2e48:	07 c0       	rjmp	.+14     	; 0x2e58 <__vector_16+0xc0>
    2e4a:	ef e0       	ldi	r30, 0x0F	; 15
    2e4c:	f5 e0       	ldi	r31, 0x05	; 5
    2e4e:	83 85       	ldd	r24, Z+11	; 0x0b
    2e50:	94 85       	ldd	r25, Z+12	; 0x0c
    2e52:	01 96       	adiw	r24, 0x01	; 1
    2e54:	94 87       	std	Z+12, r25	; 0x0c
    2e56:	83 87       	std	Z+11, r24	; 0x0b
    2e58:	80 91 0f 05 	lds	r24, 0x050F	; 0x80050f <stopwatches>
    2e5c:	86 ff       	sbrs	r24, 6
    2e5e:	07 c0       	rjmp	.+14     	; 0x2e6e <__vector_16+0xd6>
    2e60:	ef e0       	ldi	r30, 0x0F	; 15
    2e62:	f5 e0       	ldi	r31, 0x05	; 5
    2e64:	85 85       	ldd	r24, Z+13	; 0x0d
    2e66:	96 85       	ldd	r25, Z+14	; 0x0e
    2e68:	01 96       	adiw	r24, 0x01	; 1
    2e6a:	96 87       	std	Z+14, r25	; 0x0e
    2e6c:	85 87       	std	Z+13, r24	; 0x0d
    2e6e:	80 91 0f 05 	lds	r24, 0x050F	; 0x80050f <stopwatches>
    2e72:	88 23       	and	r24, r24
    2e74:	3c f4       	brge	.+14     	; 0x2e84 <__vector_16+0xec>
    2e76:	ef e0       	ldi	r30, 0x0F	; 15
    2e78:	f5 e0       	ldi	r31, 0x05	; 5
    2e7a:	87 85       	ldd	r24, Z+15	; 0x0f
    2e7c:	90 89       	ldd	r25, Z+16	; 0x10
    2e7e:	01 96       	adiw	r24, 0x01	; 1
    2e80:	90 8b       	std	Z+16, r25	; 0x10
    2e82:	87 87       	std	Z+15, r24	; 0x0f
    2e84:	0e 94 fd 14 	call	0x29fa	; 0x29fa <schedulerUpdate>
    2e88:	ff 91       	pop	r31
    2e8a:	ef 91       	pop	r30
    2e8c:	bf 91       	pop	r27
    2e8e:	af 91       	pop	r26
    2e90:	9f 91       	pop	r25
    2e92:	8f 91       	pop	r24
    2e94:	7f 91       	pop	r23
    2e96:	6f 91       	pop	r22
    2e98:	5f 91       	pop	r21
    2e9a:	4f 91       	pop	r20
    2e9c:	3f 91       	pop	r19
    2e9e:	2f 91       	pop	r18
    2ea0:	0f 90       	pop	r0
    2ea2:	0f be       	out	0x3f, r0	; 63
    2ea4:	0f 90       	pop	r0
    2ea6:	1f 90       	pop	r1
    2ea8:	18 95       	reti

00002eaa <setStopwatch>:
    return 1;
}

static __inline__ uint8_t __iCliRetVal(void)
{
    cli();
    2eaa:	f8 94       	cli
    2eac:	88 30       	cpi	r24, 0x08	; 8
    2eae:	91 05       	cpc	r25, r1
    2eb0:	39 f1       	breq	.+78     	; 0x2f00 <setStopwatch+0x56>
    2eb2:	48 f4       	brcc	.+18     	; 0x2ec6 <setStopwatch+0x1c>
    2eb4:	82 30       	cpi	r24, 0x02	; 2
    2eb6:	91 05       	cpc	r25, r1
    2eb8:	c9 f0       	breq	.+50     	; 0x2eec <setStopwatch+0x42>
    2eba:	84 30       	cpi	r24, 0x04	; 4
    2ebc:	91 05       	cpc	r25, r1
    2ebe:	d9 f0       	breq	.+54     	; 0x2ef6 <setStopwatch+0x4c>
    2ec0:	01 97       	sbiw	r24, 0x01	; 1
    2ec2:	b1 f5       	brne	.+108    	; 0x2f30 <setStopwatch+0x86>
    2ec4:	0e c0       	rjmp	.+28     	; 0x2ee2 <setStopwatch+0x38>
    2ec6:	80 32       	cpi	r24, 0x20	; 32
    2ec8:	91 05       	cpc	r25, r1
    2eca:	21 f1       	breq	.+72     	; 0x2f14 <setStopwatch+0x6a>
    2ecc:	18 f4       	brcc	.+6      	; 0x2ed4 <setStopwatch+0x2a>
    2ece:	40 97       	sbiw	r24, 0x10	; 16
    2ed0:	e1 f0       	breq	.+56     	; 0x2f0a <setStopwatch+0x60>
    2ed2:	2e c0       	rjmp	.+92     	; 0x2f30 <setStopwatch+0x86>
    2ed4:	80 34       	cpi	r24, 0x40	; 64
    2ed6:	91 05       	cpc	r25, r1
    2ed8:	11 f1       	breq	.+68     	; 0x2f1e <setStopwatch+0x74>
    2eda:	80 38       	cpi	r24, 0x80	; 128
    2edc:	91 05       	cpc	r25, r1
    2ede:	21 f1       	breq	.+72     	; 0x2f28 <setStopwatch+0x7e>
    2ee0:	27 c0       	rjmp	.+78     	; 0x2f30 <setStopwatch+0x86>
    2ee2:	70 93 11 05 	sts	0x0511, r23	; 0x800511 <stopwatches+0x2>
    2ee6:	60 93 10 05 	sts	0x0510, r22	; 0x800510 <stopwatches+0x1>
    2eea:	22 c0       	rjmp	.+68     	; 0x2f30 <setStopwatch+0x86>
    2eec:	70 93 13 05 	sts	0x0513, r23	; 0x800513 <stopwatches+0x4>
    2ef0:	60 93 12 05 	sts	0x0512, r22	; 0x800512 <stopwatches+0x3>
    2ef4:	1d c0       	rjmp	.+58     	; 0x2f30 <setStopwatch+0x86>
    2ef6:	70 93 15 05 	sts	0x0515, r23	; 0x800515 <stopwatches+0x6>
    2efa:	60 93 14 05 	sts	0x0514, r22	; 0x800514 <stopwatches+0x5>
    2efe:	18 c0       	rjmp	.+48     	; 0x2f30 <setStopwatch+0x86>
    2f00:	70 93 17 05 	sts	0x0517, r23	; 0x800517 <stopwatches+0x8>
    2f04:	60 93 16 05 	sts	0x0516, r22	; 0x800516 <stopwatches+0x7>
    2f08:	13 c0       	rjmp	.+38     	; 0x2f30 <setStopwatch+0x86>
    2f0a:	70 93 19 05 	sts	0x0519, r23	; 0x800519 <stopwatches+0xa>
    2f0e:	60 93 18 05 	sts	0x0518, r22	; 0x800518 <stopwatches+0x9>
    2f12:	0e c0       	rjmp	.+28     	; 0x2f30 <setStopwatch+0x86>
    2f14:	70 93 1b 05 	sts	0x051B, r23	; 0x80051b <stopwatches+0xc>
    2f18:	60 93 1a 05 	sts	0x051A, r22	; 0x80051a <stopwatches+0xb>
    2f1c:	09 c0       	rjmp	.+18     	; 0x2f30 <setStopwatch+0x86>
    2f1e:	70 93 1d 05 	sts	0x051D, r23	; 0x80051d <stopwatches+0xe>
    2f22:	60 93 1c 05 	sts	0x051C, r22	; 0x80051c <stopwatches+0xd>
    2f26:	04 c0       	rjmp	.+8      	; 0x2f30 <setStopwatch+0x86>
    2f28:	70 93 1f 05 	sts	0x051F, r23	; 0x80051f <stopwatches+0x10>
    2f2c:	60 93 1e 05 	sts	0x051E, r22	; 0x80051e <stopwatches+0xf>
    return 1;
}

static __inline__ void __iSeiParam(const uint8_t *__s)
{
    sei();
    2f30:	78 94       	sei
    __asm__ volatile ("" ::: "memory");
    2f32:	08 95       	ret

00002f34 <getStopwatch>:
    return 1;
}

static __inline__ uint8_t __iCliRetVal(void)
{
    cli();
    2f34:	f8 94       	cli
    2f36:	88 30       	cpi	r24, 0x08	; 8
    2f38:	11 f1       	breq	.+68     	; 0x2f7e <getStopwatch+0x4a>
    2f3a:	38 f4       	brcc	.+14     	; 0x2f4a <getStopwatch+0x16>
    2f3c:	82 30       	cpi	r24, 0x02	; 2
    2f3e:	a9 f0       	breq	.+42     	; 0x2f6a <getStopwatch+0x36>
    2f40:	84 30       	cpi	r24, 0x04	; 4
    2f42:	c1 f0       	breq	.+48     	; 0x2f74 <getStopwatch+0x40>
    2f44:	81 30       	cpi	r24, 0x01	; 1
    2f46:	a1 f5       	brne	.+104    	; 0x2fb0 <getStopwatch+0x7c>
    2f48:	0b c0       	rjmp	.+22     	; 0x2f60 <getStopwatch+0x2c>
    2f4a:	80 32       	cpi	r24, 0x20	; 32
    2f4c:	11 f1       	breq	.+68     	; 0x2f92 <getStopwatch+0x5e>
    2f4e:	18 f4       	brcc	.+6      	; 0x2f56 <getStopwatch+0x22>
    2f50:	80 31       	cpi	r24, 0x10	; 16
    2f52:	d1 f0       	breq	.+52     	; 0x2f88 <getStopwatch+0x54>
    2f54:	2d c0       	rjmp	.+90     	; 0x2fb0 <getStopwatch+0x7c>
    2f56:	80 34       	cpi	r24, 0x40	; 64
    2f58:	09 f1       	breq	.+66     	; 0x2f9c <getStopwatch+0x68>
    2f5a:	80 38       	cpi	r24, 0x80	; 128
    2f5c:	21 f1       	breq	.+72     	; 0x2fa6 <getStopwatch+0x72>
    2f5e:	28 c0       	rjmp	.+80     	; 0x2fb0 <getStopwatch+0x7c>
    2f60:	80 91 10 05 	lds	r24, 0x0510	; 0x800510 <stopwatches+0x1>
    2f64:	90 91 11 05 	lds	r25, 0x0511	; 0x800511 <stopwatches+0x2>
    2f68:	25 c0       	rjmp	.+74     	; 0x2fb4 <getStopwatch+0x80>
    2f6a:	80 91 12 05 	lds	r24, 0x0512	; 0x800512 <stopwatches+0x3>
    2f6e:	90 91 13 05 	lds	r25, 0x0513	; 0x800513 <stopwatches+0x4>
    2f72:	20 c0       	rjmp	.+64     	; 0x2fb4 <getStopwatch+0x80>
    2f74:	80 91 14 05 	lds	r24, 0x0514	; 0x800514 <stopwatches+0x5>
    2f78:	90 91 15 05 	lds	r25, 0x0515	; 0x800515 <stopwatches+0x6>
    2f7c:	1b c0       	rjmp	.+54     	; 0x2fb4 <getStopwatch+0x80>
    2f7e:	80 91 16 05 	lds	r24, 0x0516	; 0x800516 <stopwatches+0x7>
    2f82:	90 91 17 05 	lds	r25, 0x0517	; 0x800517 <stopwatches+0x8>
    2f86:	16 c0       	rjmp	.+44     	; 0x2fb4 <getStopwatch+0x80>
    2f88:	80 91 18 05 	lds	r24, 0x0518	; 0x800518 <stopwatches+0x9>
    2f8c:	90 91 19 05 	lds	r25, 0x0519	; 0x800519 <stopwatches+0xa>
    2f90:	11 c0       	rjmp	.+34     	; 0x2fb4 <getStopwatch+0x80>
    2f92:	80 91 1a 05 	lds	r24, 0x051A	; 0x80051a <stopwatches+0xb>
    2f96:	90 91 1b 05 	lds	r25, 0x051B	; 0x80051b <stopwatches+0xc>
    2f9a:	0c c0       	rjmp	.+24     	; 0x2fb4 <getStopwatch+0x80>
    2f9c:	80 91 1c 05 	lds	r24, 0x051C	; 0x80051c <stopwatches+0xd>
    2fa0:	90 91 1d 05 	lds	r25, 0x051D	; 0x80051d <stopwatches+0xe>
    2fa4:	07 c0       	rjmp	.+14     	; 0x2fb4 <getStopwatch+0x80>
    2fa6:	80 91 1e 05 	lds	r24, 0x051E	; 0x80051e <stopwatches+0xf>
    2faa:	90 91 1f 05 	lds	r25, 0x051F	; 0x80051f <stopwatches+0x10>
    2fae:	02 c0       	rjmp	.+4      	; 0x2fb4 <getStopwatch+0x80>
    2fb0:	80 e0       	ldi	r24, 0x00	; 0
    2fb2:	90 e0       	ldi	r25, 0x00	; 0
    return 1;
}

static __inline__ void __iSeiParam(const uint8_t *__s)
{
    sei();
    2fb4:	78 94       	sei
    2fb6:	08 95       	ret

00002fb8 <i2c_init>:
    2fb8:	10 92 b9 00 	sts	0x00B9, r1	; 0x8000b9 <__TEXT_REGION_LENGTH__+0x7e00b9>
    2fbc:	88 e4       	ldi	r24, 0x48	; 72
    2fbe:	80 93 b8 00 	sts	0x00B8, r24	; 0x8000b8 <__TEXT_REGION_LENGTH__+0x7e00b8>
    2fc2:	08 95       	ret

00002fc4 <i2c_start>:
    2fc4:	94 ea       	ldi	r25, 0xA4	; 164
    2fc6:	90 93 bc 00 	sts	0x00BC, r25	; 0x8000bc <__TEXT_REGION_LENGTH__+0x7e00bc>
    2fca:	ec eb       	ldi	r30, 0xBC	; 188
    2fcc:	f0 e0       	ldi	r31, 0x00	; 0
    2fce:	90 81       	ld	r25, Z
    2fd0:	99 23       	and	r25, r25
    2fd2:	ec f7       	brge	.-6      	; 0x2fce <i2c_start+0xa>
    2fd4:	90 91 b9 00 	lds	r25, 0x00B9	; 0x8000b9 <__TEXT_REGION_LENGTH__+0x7e00b9>
    2fd8:	98 7f       	andi	r25, 0xF8	; 248
    2fda:	98 30       	cpi	r25, 0x08	; 8
    2fdc:	11 f0       	breq	.+4      	; 0x2fe2 <i2c_start+0x1e>
    2fde:	90 31       	cpi	r25, 0x10	; 16
    2fe0:	a1 f4       	brne	.+40     	; 0x300a <i2c_start+0x46>
    2fe2:	80 93 bb 00 	sts	0x00BB, r24	; 0x8000bb <__TEXT_REGION_LENGTH__+0x7e00bb>
    2fe6:	84 e8       	ldi	r24, 0x84	; 132
    2fe8:	80 93 bc 00 	sts	0x00BC, r24	; 0x8000bc <__TEXT_REGION_LENGTH__+0x7e00bc>
    2fec:	ec eb       	ldi	r30, 0xBC	; 188
    2fee:	f0 e0       	ldi	r31, 0x00	; 0
    2ff0:	80 81       	ld	r24, Z
    2ff2:	88 23       	and	r24, r24
    2ff4:	ec f7       	brge	.-6      	; 0x2ff0 <i2c_start+0x2c>
    2ff6:	90 91 b9 00 	lds	r25, 0x00B9	; 0x8000b9 <__TEXT_REGION_LENGTH__+0x7e00b9>
    2ffa:	98 7f       	andi	r25, 0xF8	; 248
    2ffc:	98 31       	cpi	r25, 0x18	; 24
    2ffe:	39 f0       	breq	.+14     	; 0x300e <i2c_start+0x4a>
    3000:	81 e0       	ldi	r24, 0x01	; 1
    3002:	90 34       	cpi	r25, 0x40	; 64
    3004:	29 f4       	brne	.+10     	; 0x3010 <i2c_start+0x4c>
    3006:	80 e0       	ldi	r24, 0x00	; 0
    3008:	08 95       	ret
    300a:	81 e0       	ldi	r24, 0x01	; 1
    300c:	08 95       	ret
    300e:	80 e0       	ldi	r24, 0x00	; 0
    3010:	08 95       	ret

00003012 <i2c_start_wait>:
    3012:	cf 93       	push	r28
    3014:	df 93       	push	r29
    3016:	ec eb       	ldi	r30, 0xBC	; 188
    3018:	f0 e0       	ldi	r31, 0x00	; 0
    301a:	24 ea       	ldi	r18, 0xA4	; 164
    301c:	a9 eb       	ldi	r26, 0xB9	; 185
    301e:	b0 e0       	ldi	r27, 0x00	; 0
    3020:	cb eb       	ldi	r28, 0xBB	; 187
    3022:	d0 e0       	ldi	r29, 0x00	; 0
    3024:	34 e8       	ldi	r19, 0x84	; 132
    3026:	44 e9       	ldi	r20, 0x94	; 148
    3028:	20 83       	st	Z, r18
    302a:	90 81       	ld	r25, Z
    302c:	99 23       	and	r25, r25
    302e:	ec f7       	brge	.-6      	; 0x302a <i2c_start_wait+0x18>
    3030:	9c 91       	ld	r25, X
    3032:	98 7f       	andi	r25, 0xF8	; 248
    3034:	98 30       	cpi	r25, 0x08	; 8
    3036:	11 f0       	breq	.+4      	; 0x303c <i2c_start_wait+0x2a>
    3038:	90 31       	cpi	r25, 0x10	; 16
    303a:	b1 f7       	brne	.-20     	; 0x3028 <i2c_start_wait+0x16>
    303c:	88 83       	st	Y, r24
    303e:	30 83       	st	Z, r19
    3040:	90 81       	ld	r25, Z
    3042:	99 23       	and	r25, r25
    3044:	ec f7       	brge	.-6      	; 0x3040 <i2c_start_wait+0x2e>
    3046:	9c 91       	ld	r25, X
    3048:	98 7f       	andi	r25, 0xF8	; 248
    304a:	90 32       	cpi	r25, 0x20	; 32
    304c:	11 f0       	breq	.+4      	; 0x3052 <i2c_start_wait+0x40>
    304e:	98 35       	cpi	r25, 0x58	; 88
    3050:	29 f4       	brne	.+10     	; 0x305c <i2c_start_wait+0x4a>
    3052:	40 83       	st	Z, r20
    3054:	90 81       	ld	r25, Z
    3056:	94 fd       	sbrc	r25, 4
    3058:	fd cf       	rjmp	.-6      	; 0x3054 <i2c_start_wait+0x42>
    305a:	e6 cf       	rjmp	.-52     	; 0x3028 <i2c_start_wait+0x16>
    305c:	df 91       	pop	r29
    305e:	cf 91       	pop	r28
    3060:	08 95       	ret

00003062 <i2c_stop>:
    3062:	84 e9       	ldi	r24, 0x94	; 148
    3064:	80 93 bc 00 	sts	0x00BC, r24	; 0x8000bc <__TEXT_REGION_LENGTH__+0x7e00bc>
    3068:	ec eb       	ldi	r30, 0xBC	; 188
    306a:	f0 e0       	ldi	r31, 0x00	; 0
    306c:	80 81       	ld	r24, Z
    306e:	84 fd       	sbrc	r24, 4
    3070:	fd cf       	rjmp	.-6      	; 0x306c <i2c_stop+0xa>
    3072:	08 95       	ret

00003074 <i2c_write>:
    3074:	80 93 bb 00 	sts	0x00BB, r24	; 0x8000bb <__TEXT_REGION_LENGTH__+0x7e00bb>
    3078:	84 e8       	ldi	r24, 0x84	; 132
    307a:	80 93 bc 00 	sts	0x00BC, r24	; 0x8000bc <__TEXT_REGION_LENGTH__+0x7e00bc>
    307e:	ec eb       	ldi	r30, 0xBC	; 188
    3080:	f0 e0       	ldi	r31, 0x00	; 0
    3082:	80 81       	ld	r24, Z
    3084:	88 23       	and	r24, r24
    3086:	ec f7       	brge	.-6      	; 0x3082 <i2c_write+0xe>
    3088:	90 91 b9 00 	lds	r25, 0x00B9	; 0x8000b9 <__TEXT_REGION_LENGTH__+0x7e00b9>
    308c:	98 7f       	andi	r25, 0xF8	; 248
    308e:	81 e0       	ldi	r24, 0x01	; 1
    3090:	98 32       	cpi	r25, 0x28	; 40
    3092:	09 f4       	brne	.+2      	; 0x3096 <i2c_write+0x22>
    3094:	80 e0       	ldi	r24, 0x00	; 0
    3096:	08 95       	ret

00003098 <i2c_readNak>:
    3098:	84 e8       	ldi	r24, 0x84	; 132
    309a:	80 93 bc 00 	sts	0x00BC, r24	; 0x8000bc <__TEXT_REGION_LENGTH__+0x7e00bc>
    309e:	ec eb       	ldi	r30, 0xBC	; 188
    30a0:	f0 e0       	ldi	r31, 0x00	; 0
    30a2:	80 81       	ld	r24, Z
    30a4:	88 23       	and	r24, r24
    30a6:	ec f7       	brge	.-6      	; 0x30a2 <i2c_readNak+0xa>
    30a8:	80 91 bb 00 	lds	r24, 0x00BB	; 0x8000bb <__TEXT_REGION_LENGTH__+0x7e00bb>
    30ac:	08 95       	ret

000030ae <__vector_20>:
    30ae:	1f 92       	push	r1
    30b0:	0f 92       	push	r0
    30b2:	0f b6       	in	r0, 0x3f	; 63
    30b4:	0f 92       	push	r0
    30b6:	11 24       	eor	r1, r1
    30b8:	2f 93       	push	r18
    30ba:	8f 93       	push	r24
    30bc:	9f 93       	push	r25
    30be:	ef 93       	push	r30
    30c0:	ff 93       	push	r31
    30c2:	80 91 c0 00 	lds	r24, 0x00C0	; 0x8000c0 <__TEXT_REGION_LENGTH__+0x7e00c0>
    30c6:	20 91 c6 00 	lds	r18, 0x00C6	; 0x8000c6 <__TEXT_REGION_LENGTH__+0x7e00c6>
    30ca:	8c 71       	andi	r24, 0x1C	; 28
    30cc:	e0 91 c8 03 	lds	r30, 0x03C8	; 0x8003c8 <UART_RxHead>
    30d0:	ef 5f       	subi	r30, 0xFF	; 255
    30d2:	ef 71       	andi	r30, 0x1F	; 31
    30d4:	90 91 c7 03 	lds	r25, 0x03C7	; 0x8003c7 <UART_RxTail>
    30d8:	e9 17       	cp	r30, r25
    30da:	39 f0       	breq	.+14     	; 0x30ea <__vector_20+0x3c>
    30dc:	e0 93 c8 03 	sts	0x03C8, r30	; 0x8003c8 <UART_RxHead>
    30e0:	f0 e0       	ldi	r31, 0x00	; 0
    30e2:	e5 53       	subi	r30, 0x35	; 53
    30e4:	fc 4f       	sbci	r31, 0xFC	; 252
    30e6:	20 83       	st	Z, r18
    30e8:	01 c0       	rjmp	.+2      	; 0x30ec <__vector_20+0x3e>
    30ea:	82 e0       	ldi	r24, 0x02	; 2
    30ec:	90 91 c6 03 	lds	r25, 0x03C6	; 0x8003c6 <UART_LastRxError>
    30f0:	89 2b       	or	r24, r25
    30f2:	80 93 c6 03 	sts	0x03C6, r24	; 0x8003c6 <UART_LastRxError>
    30f6:	ff 91       	pop	r31
    30f8:	ef 91       	pop	r30
    30fa:	9f 91       	pop	r25
    30fc:	8f 91       	pop	r24
    30fe:	2f 91       	pop	r18
    3100:	0f 90       	pop	r0
    3102:	0f be       	out	0x3f, r0	; 63
    3104:	0f 90       	pop	r0
    3106:	1f 90       	pop	r1
    3108:	18 95       	reti

0000310a <__vector_21>:
    310a:	1f 92       	push	r1
    310c:	0f 92       	push	r0
    310e:	0f b6       	in	r0, 0x3f	; 63
    3110:	0f 92       	push	r0
    3112:	11 24       	eor	r1, r1
    3114:	8f 93       	push	r24
    3116:	9f 93       	push	r25
    3118:	ef 93       	push	r30
    311a:	ff 93       	push	r31
    311c:	90 91 ca 03 	lds	r25, 0x03CA	; 0x8003ca <UART_TxHead>
    3120:	80 91 c9 03 	lds	r24, 0x03C9	; 0x8003c9 <UART_TxTail>
    3124:	98 17       	cp	r25, r24
    3126:	69 f0       	breq	.+26     	; 0x3142 <__vector_21+0x38>
    3128:	e0 91 c9 03 	lds	r30, 0x03C9	; 0x8003c9 <UART_TxTail>
    312c:	ef 5f       	subi	r30, 0xFF	; 255
    312e:	ef 77       	andi	r30, 0x7F	; 127
    3130:	e0 93 c9 03 	sts	0x03C9, r30	; 0x8003c9 <UART_TxTail>
    3134:	f0 e0       	ldi	r31, 0x00	; 0
    3136:	e5 51       	subi	r30, 0x15	; 21
    3138:	fc 4f       	sbci	r31, 0xFC	; 252
    313a:	80 81       	ld	r24, Z
    313c:	80 93 c6 00 	sts	0x00C6, r24	; 0x8000c6 <__TEXT_REGION_LENGTH__+0x7e00c6>
    3140:	05 c0       	rjmp	.+10     	; 0x314c <__vector_21+0x42>
    3142:	e1 ec       	ldi	r30, 0xC1	; 193
    3144:	f0 e0       	ldi	r31, 0x00	; 0
    3146:	80 81       	ld	r24, Z
    3148:	8f 7d       	andi	r24, 0xDF	; 223
    314a:	80 83       	st	Z, r24
    314c:	ff 91       	pop	r31
    314e:	ef 91       	pop	r30
    3150:	9f 91       	pop	r25
    3152:	8f 91       	pop	r24
    3154:	0f 90       	pop	r0
    3156:	0f be       	out	0x3f, r0	; 63
    3158:	0f 90       	pop	r0
    315a:	1f 90       	pop	r1
    315c:	18 95       	reti

0000315e <uart_init>:
    315e:	10 92 ca 03 	sts	0x03CA, r1	; 0x8003ca <UART_TxHead>
    3162:	10 92 c9 03 	sts	0x03C9, r1	; 0x8003c9 <UART_TxTail>
    3166:	10 92 c8 03 	sts	0x03C8, r1	; 0x8003c8 <UART_RxHead>
    316a:	10 92 c7 03 	sts	0x03C7, r1	; 0x8003c7 <UART_RxTail>
    316e:	99 23       	and	r25, r25
    3170:	1c f4       	brge	.+6      	; 0x3178 <uart_init+0x1a>
    3172:	22 e0       	ldi	r18, 0x02	; 2
    3174:	20 93 c0 00 	sts	0x00C0, r18	; 0x8000c0 <__TEXT_REGION_LENGTH__+0x7e00c0>
    3178:	90 78       	andi	r25, 0x80	; 128
    317a:	90 93 c5 00 	sts	0x00C5, r25	; 0x8000c5 <__TEXT_REGION_LENGTH__+0x7e00c5>
    317e:	80 93 c4 00 	sts	0x00C4, r24	; 0x8000c4 <__TEXT_REGION_LENGTH__+0x7e00c4>
    3182:	88 e9       	ldi	r24, 0x98	; 152
    3184:	80 93 c1 00 	sts	0x00C1, r24	; 0x8000c1 <__TEXT_REGION_LENGTH__+0x7e00c1>
    3188:	86 e0       	ldi	r24, 0x06	; 6
    318a:	80 93 c2 00 	sts	0x00C2, r24	; 0x8000c2 <__TEXT_REGION_LENGTH__+0x7e00c2>
    318e:	08 95       	ret

00003190 <uart_getc>:
    3190:	90 91 c8 03 	lds	r25, 0x03C8	; 0x8003c8 <UART_RxHead>
    3194:	80 91 c7 03 	lds	r24, 0x03C7	; 0x8003c7 <UART_RxTail>
    3198:	98 17       	cp	r25, r24
    319a:	a9 f0       	breq	.+42     	; 0x31c6 <uart_getc+0x36>
    319c:	90 91 c7 03 	lds	r25, 0x03C7	; 0x8003c7 <UART_RxTail>
    31a0:	9f 5f       	subi	r25, 0xFF	; 255
    31a2:	9f 71       	andi	r25, 0x1F	; 31
    31a4:	e9 2f       	mov	r30, r25
    31a6:	f0 e0       	ldi	r31, 0x00	; 0
    31a8:	e5 53       	subi	r30, 0x35	; 53
    31aa:	fc 4f       	sbci	r31, 0xFC	; 252
    31ac:	20 81       	ld	r18, Z
    31ae:	80 91 c6 03 	lds	r24, 0x03C6	; 0x8003c6 <UART_LastRxError>
    31b2:	90 93 c7 03 	sts	0x03C7, r25	; 0x8003c7 <UART_RxTail>
    31b6:	10 92 c6 03 	sts	0x03C6, r1	; 0x8003c6 <UART_LastRxError>
    31ba:	90 e0       	ldi	r25, 0x00	; 0
    31bc:	98 2f       	mov	r25, r24
    31be:	88 27       	eor	r24, r24
    31c0:	82 0f       	add	r24, r18
    31c2:	91 1d       	adc	r25, r1
    31c4:	08 95       	ret
    31c6:	80 e0       	ldi	r24, 0x00	; 0
    31c8:	91 e0       	ldi	r25, 0x01	; 1
    31ca:	08 95       	ret

000031cc <uart_putc>:
    31cc:	20 91 ca 03 	lds	r18, 0x03CA	; 0x8003ca <UART_TxHead>
    31d0:	2f 5f       	subi	r18, 0xFF	; 255
    31d2:	2f 77       	andi	r18, 0x7F	; 127
    31d4:	90 91 c9 03 	lds	r25, 0x03C9	; 0x8003c9 <UART_TxTail>
    31d8:	29 17       	cp	r18, r25
    31da:	e1 f3       	breq	.-8      	; 0x31d4 <uart_putc+0x8>
    31dc:	e2 2f       	mov	r30, r18
    31de:	f0 e0       	ldi	r31, 0x00	; 0
    31e0:	e5 51       	subi	r30, 0x15	; 21
    31e2:	fc 4f       	sbci	r31, 0xFC	; 252
    31e4:	80 83       	st	Z, r24
    31e6:	20 93 ca 03 	sts	0x03CA, r18	; 0x8003ca <UART_TxHead>
    31ea:	e1 ec       	ldi	r30, 0xC1	; 193
    31ec:	f0 e0       	ldi	r31, 0x00	; 0
    31ee:	80 81       	ld	r24, Z
    31f0:	80 62       	ori	r24, 0x20	; 32
    31f2:	80 83       	st	Z, r24
    31f4:	08 95       	ret

000031f6 <uart_puts>:
    31f6:	cf 93       	push	r28
    31f8:	df 93       	push	r29
    31fa:	ec 01       	movw	r28, r24
    31fc:	88 81       	ld	r24, Y
    31fe:	88 23       	and	r24, r24
    3200:	31 f0       	breq	.+12     	; 0x320e <uart_puts+0x18>
    3202:	21 96       	adiw	r28, 0x01	; 1
    3204:	0e 94 e6 18 	call	0x31cc	; 0x31cc <uart_putc>
    3208:	89 91       	ld	r24, Y+
    320a:	81 11       	cpse	r24, r1
    320c:	fb cf       	rjmp	.-10     	; 0x3204 <uart_puts+0xe>
    320e:	df 91       	pop	r29
    3210:	cf 91       	pop	r28
    3212:	08 95       	ret

00003214 <uart_puts_p>:
    3214:	cf 93       	push	r28
    3216:	df 93       	push	r29
    3218:	ec 01       	movw	r28, r24
    321a:	21 96       	adiw	r28, 0x01	; 1
    321c:	fc 01       	movw	r30, r24
    321e:	84 91       	lpm	r24, Z
    3220:	88 23       	and	r24, r24
    3222:	39 f0       	breq	.+14     	; 0x3232 <uart_puts_p+0x1e>
    3224:	0e 94 e6 18 	call	0x31cc	; 0x31cc <uart_putc>
    3228:	fe 01       	movw	r30, r28
    322a:	84 91       	lpm	r24, Z
    322c:	21 96       	adiw	r28, 0x01	; 1
    322e:	81 11       	cpse	r24, r1
    3230:	f9 cf       	rjmp	.-14     	; 0x3224 <uart_puts_p+0x10>
    3232:	df 91       	pop	r29
    3234:	cf 91       	pop	r28
    3236:	08 95       	ret

00003238 <__vector_28>:
    3238:	1f 92       	push	r1
    323a:	0f 92       	push	r0
    323c:	0f b6       	in	r0, 0x3f	; 63
    323e:	0f 92       	push	r0
    3240:	11 24       	eor	r1, r1
    3242:	2f 93       	push	r18
    3244:	8f 93       	push	r24
    3246:	9f 93       	push	r25
    3248:	ef 93       	push	r30
    324a:	ff 93       	push	r31
    324c:	80 91 c8 00 	lds	r24, 0x00C8	; 0x8000c8 <__TEXT_REGION_LENGTH__+0x7e00c8>
    3250:	20 91 ce 00 	lds	r18, 0x00CE	; 0x8000ce <__TEXT_REGION_LENGTH__+0x7e00ce>
    3254:	8c 71       	andi	r24, 0x1C	; 28
    3256:	e0 91 23 03 	lds	r30, 0x0323	; 0x800323 <UART1_RxHead>
    325a:	ef 5f       	subi	r30, 0xFF	; 255
    325c:	ef 71       	andi	r30, 0x1F	; 31
    325e:	90 91 22 03 	lds	r25, 0x0322	; 0x800322 <UART1_RxTail>
    3262:	e9 17       	cp	r30, r25
    3264:	39 f0       	breq	.+14     	; 0x3274 <__vector_28+0x3c>
    3266:	e0 93 23 03 	sts	0x0323, r30	; 0x800323 <UART1_RxHead>
    326a:	f0 e0       	ldi	r31, 0x00	; 0
    326c:	ea 5d       	subi	r30, 0xDA	; 218
    326e:	fc 4f       	sbci	r31, 0xFC	; 252
    3270:	20 83       	st	Z, r18
    3272:	01 c0       	rjmp	.+2      	; 0x3276 <__vector_28+0x3e>
    3274:	82 e0       	ldi	r24, 0x02	; 2
    3276:	90 91 21 03 	lds	r25, 0x0321	; 0x800321 <UART1_LastRxError>
    327a:	89 2b       	or	r24, r25
    327c:	80 93 21 03 	sts	0x0321, r24	; 0x800321 <UART1_LastRxError>
    3280:	ff 91       	pop	r31
    3282:	ef 91       	pop	r30
    3284:	9f 91       	pop	r25
    3286:	8f 91       	pop	r24
    3288:	2f 91       	pop	r18
    328a:	0f 90       	pop	r0
    328c:	0f be       	out	0x3f, r0	; 63
    328e:	0f 90       	pop	r0
    3290:	1f 90       	pop	r1
    3292:	18 95       	reti

00003294 <__vector_29>:
    3294:	1f 92       	push	r1
    3296:	0f 92       	push	r0
    3298:	0f b6       	in	r0, 0x3f	; 63
    329a:	0f 92       	push	r0
    329c:	11 24       	eor	r1, r1
    329e:	8f 93       	push	r24
    32a0:	9f 93       	push	r25
    32a2:	ef 93       	push	r30
    32a4:	ff 93       	push	r31
    32a6:	90 91 25 03 	lds	r25, 0x0325	; 0x800325 <UART1_TxHead>
    32aa:	80 91 24 03 	lds	r24, 0x0324	; 0x800324 <UART1_TxTail>
    32ae:	98 17       	cp	r25, r24
    32b0:	69 f0       	breq	.+26     	; 0x32cc <__vector_29+0x38>
    32b2:	e0 91 24 03 	lds	r30, 0x0324	; 0x800324 <UART1_TxTail>
    32b6:	ef 5f       	subi	r30, 0xFF	; 255
    32b8:	ef 77       	andi	r30, 0x7F	; 127
    32ba:	e0 93 24 03 	sts	0x0324, r30	; 0x800324 <UART1_TxTail>
    32be:	f0 e0       	ldi	r31, 0x00	; 0
    32c0:	ea 5b       	subi	r30, 0xBA	; 186
    32c2:	fc 4f       	sbci	r31, 0xFC	; 252
    32c4:	80 81       	ld	r24, Z
    32c6:	80 93 ce 00 	sts	0x00CE, r24	; 0x8000ce <__TEXT_REGION_LENGTH__+0x7e00ce>
    32ca:	05 c0       	rjmp	.+10     	; 0x32d6 <__vector_29+0x42>
    32cc:	e9 ec       	ldi	r30, 0xC9	; 201
    32ce:	f0 e0       	ldi	r31, 0x00	; 0
    32d0:	80 81       	ld	r24, Z
    32d2:	8f 7d       	andi	r24, 0xDF	; 223
    32d4:	80 83       	st	Z, r24
    32d6:	ff 91       	pop	r31
    32d8:	ef 91       	pop	r30
    32da:	9f 91       	pop	r25
    32dc:	8f 91       	pop	r24
    32de:	0f 90       	pop	r0
    32e0:	0f be       	out	0x3f, r0	; 63
    32e2:	0f 90       	pop	r0
    32e4:	1f 90       	pop	r1
    32e6:	18 95       	reti

000032e8 <vfprintf>:
    32e8:	a0 e1       	ldi	r26, 0x10	; 16
    32ea:	b0 e0       	ldi	r27, 0x00	; 0
    32ec:	ea e7       	ldi	r30, 0x7A	; 122
    32ee:	f9 e1       	ldi	r31, 0x19	; 25
    32f0:	0c 94 74 1d 	jmp	0x3ae8	; 0x3ae8 <__prologue_saves__>
    32f4:	7c 01       	movw	r14, r24
    32f6:	1b 01       	movw	r2, r22
    32f8:	6a 01       	movw	r12, r20
    32fa:	fc 01       	movw	r30, r24
    32fc:	17 82       	std	Z+7, r1	; 0x07
    32fe:	16 82       	std	Z+6, r1	; 0x06
    3300:	83 81       	ldd	r24, Z+3	; 0x03
    3302:	81 ff       	sbrs	r24, 1
    3304:	44 c3       	rjmp	.+1672   	; 0x398e <vfprintf+0x6a6>
    3306:	9e 01       	movw	r18, r28
    3308:	2f 5f       	subi	r18, 0xFF	; 255
    330a:	3f 4f       	sbci	r19, 0xFF	; 255
    330c:	39 01       	movw	r6, r18
    330e:	f7 01       	movw	r30, r14
    3310:	93 81       	ldd	r25, Z+3	; 0x03
    3312:	f1 01       	movw	r30, r2
    3314:	93 fd       	sbrc	r25, 3
    3316:	85 91       	lpm	r24, Z+
    3318:	93 ff       	sbrs	r25, 3
    331a:	81 91       	ld	r24, Z+
    331c:	1f 01       	movw	r2, r30
    331e:	88 23       	and	r24, r24
    3320:	09 f4       	brne	.+2      	; 0x3324 <vfprintf+0x3c>
    3322:	31 c3       	rjmp	.+1634   	; 0x3986 <vfprintf+0x69e>
    3324:	85 32       	cpi	r24, 0x25	; 37
    3326:	39 f4       	brne	.+14     	; 0x3336 <vfprintf+0x4e>
    3328:	93 fd       	sbrc	r25, 3
    332a:	85 91       	lpm	r24, Z+
    332c:	93 ff       	sbrs	r25, 3
    332e:	81 91       	ld	r24, Z+
    3330:	1f 01       	movw	r2, r30
    3332:	85 32       	cpi	r24, 0x25	; 37
    3334:	39 f4       	brne	.+14     	; 0x3344 <vfprintf+0x5c>
    3336:	b7 01       	movw	r22, r14
    3338:	90 e0       	ldi	r25, 0x00	; 0
    333a:	0e 94 23 1f 	call	0x3e46	; 0x3e46 <fputc>
    333e:	56 01       	movw	r10, r12
    3340:	65 01       	movw	r12, r10
    3342:	e5 cf       	rjmp	.-54     	; 0x330e <vfprintf+0x26>
    3344:	10 e0       	ldi	r17, 0x00	; 0
    3346:	51 2c       	mov	r5, r1
    3348:	91 2c       	mov	r9, r1
    334a:	ff e1       	ldi	r31, 0x1F	; 31
    334c:	f9 15       	cp	r31, r9
    334e:	d8 f0       	brcs	.+54     	; 0x3386 <vfprintf+0x9e>
    3350:	8b 32       	cpi	r24, 0x2B	; 43
    3352:	79 f0       	breq	.+30     	; 0x3372 <vfprintf+0x8a>
    3354:	38 f4       	brcc	.+14     	; 0x3364 <vfprintf+0x7c>
    3356:	80 32       	cpi	r24, 0x20	; 32
    3358:	79 f0       	breq	.+30     	; 0x3378 <vfprintf+0x90>
    335a:	83 32       	cpi	r24, 0x23	; 35
    335c:	a1 f4       	brne	.+40     	; 0x3386 <vfprintf+0x9e>
    335e:	f9 2d       	mov	r31, r9
    3360:	f0 61       	ori	r31, 0x10	; 16
    3362:	2e c0       	rjmp	.+92     	; 0x33c0 <vfprintf+0xd8>
    3364:	8d 32       	cpi	r24, 0x2D	; 45
    3366:	61 f0       	breq	.+24     	; 0x3380 <vfprintf+0x98>
    3368:	80 33       	cpi	r24, 0x30	; 48
    336a:	69 f4       	brne	.+26     	; 0x3386 <vfprintf+0x9e>
    336c:	29 2d       	mov	r18, r9
    336e:	21 60       	ori	r18, 0x01	; 1
    3370:	2d c0       	rjmp	.+90     	; 0x33cc <vfprintf+0xe4>
    3372:	39 2d       	mov	r19, r9
    3374:	32 60       	ori	r19, 0x02	; 2
    3376:	93 2e       	mov	r9, r19
    3378:	89 2d       	mov	r24, r9
    337a:	84 60       	ori	r24, 0x04	; 4
    337c:	98 2e       	mov	r9, r24
    337e:	2a c0       	rjmp	.+84     	; 0x33d4 <vfprintf+0xec>
    3380:	e9 2d       	mov	r30, r9
    3382:	e8 60       	ori	r30, 0x08	; 8
    3384:	15 c0       	rjmp	.+42     	; 0x33b0 <vfprintf+0xc8>
    3386:	97 fc       	sbrc	r9, 7
    3388:	2d c0       	rjmp	.+90     	; 0x33e4 <vfprintf+0xfc>
    338a:	20 ed       	ldi	r18, 0xD0	; 208
    338c:	28 0f       	add	r18, r24
    338e:	2a 30       	cpi	r18, 0x0A	; 10
    3390:	88 f4       	brcc	.+34     	; 0x33b4 <vfprintf+0xcc>
    3392:	96 fe       	sbrs	r9, 6
    3394:	06 c0       	rjmp	.+12     	; 0x33a2 <vfprintf+0xba>
    3396:	3a e0       	ldi	r19, 0x0A	; 10
    3398:	13 9f       	mul	r17, r19
    339a:	20 0d       	add	r18, r0
    339c:	11 24       	eor	r1, r1
    339e:	12 2f       	mov	r17, r18
    33a0:	19 c0       	rjmp	.+50     	; 0x33d4 <vfprintf+0xec>
    33a2:	8a e0       	ldi	r24, 0x0A	; 10
    33a4:	58 9e       	mul	r5, r24
    33a6:	20 0d       	add	r18, r0
    33a8:	11 24       	eor	r1, r1
    33aa:	52 2e       	mov	r5, r18
    33ac:	e9 2d       	mov	r30, r9
    33ae:	e0 62       	ori	r30, 0x20	; 32
    33b0:	9e 2e       	mov	r9, r30
    33b2:	10 c0       	rjmp	.+32     	; 0x33d4 <vfprintf+0xec>
    33b4:	8e 32       	cpi	r24, 0x2E	; 46
    33b6:	31 f4       	brne	.+12     	; 0x33c4 <vfprintf+0xdc>
    33b8:	96 fc       	sbrc	r9, 6
    33ba:	e5 c2       	rjmp	.+1482   	; 0x3986 <vfprintf+0x69e>
    33bc:	f9 2d       	mov	r31, r9
    33be:	f0 64       	ori	r31, 0x40	; 64
    33c0:	9f 2e       	mov	r9, r31
    33c2:	08 c0       	rjmp	.+16     	; 0x33d4 <vfprintf+0xec>
    33c4:	8c 36       	cpi	r24, 0x6C	; 108
    33c6:	21 f4       	brne	.+8      	; 0x33d0 <vfprintf+0xe8>
    33c8:	29 2d       	mov	r18, r9
    33ca:	20 68       	ori	r18, 0x80	; 128
    33cc:	92 2e       	mov	r9, r18
    33ce:	02 c0       	rjmp	.+4      	; 0x33d4 <vfprintf+0xec>
    33d0:	88 36       	cpi	r24, 0x68	; 104
    33d2:	41 f4       	brne	.+16     	; 0x33e4 <vfprintf+0xfc>
    33d4:	f1 01       	movw	r30, r2
    33d6:	93 fd       	sbrc	r25, 3
    33d8:	85 91       	lpm	r24, Z+
    33da:	93 ff       	sbrs	r25, 3
    33dc:	81 91       	ld	r24, Z+
    33de:	1f 01       	movw	r2, r30
    33e0:	81 11       	cpse	r24, r1
    33e2:	b3 cf       	rjmp	.-154    	; 0x334a <vfprintf+0x62>
    33e4:	9b eb       	ldi	r25, 0xBB	; 187
    33e6:	98 0f       	add	r25, r24
    33e8:	93 30       	cpi	r25, 0x03	; 3
    33ea:	20 f4       	brcc	.+8      	; 0x33f4 <vfprintf+0x10c>
    33ec:	99 2d       	mov	r25, r9
    33ee:	90 61       	ori	r25, 0x10	; 16
    33f0:	80 5e       	subi	r24, 0xE0	; 224
    33f2:	07 c0       	rjmp	.+14     	; 0x3402 <vfprintf+0x11a>
    33f4:	9b e9       	ldi	r25, 0x9B	; 155
    33f6:	98 0f       	add	r25, r24
    33f8:	93 30       	cpi	r25, 0x03	; 3
    33fa:	08 f0       	brcs	.+2      	; 0x33fe <vfprintf+0x116>
    33fc:	66 c1       	rjmp	.+716    	; 0x36ca <vfprintf+0x3e2>
    33fe:	99 2d       	mov	r25, r9
    3400:	9f 7e       	andi	r25, 0xEF	; 239
    3402:	96 ff       	sbrs	r25, 6
    3404:	16 e0       	ldi	r17, 0x06	; 6
    3406:	9f 73       	andi	r25, 0x3F	; 63
    3408:	99 2e       	mov	r9, r25
    340a:	85 36       	cpi	r24, 0x65	; 101
    340c:	19 f4       	brne	.+6      	; 0x3414 <vfprintf+0x12c>
    340e:	90 64       	ori	r25, 0x40	; 64
    3410:	99 2e       	mov	r9, r25
    3412:	08 c0       	rjmp	.+16     	; 0x3424 <vfprintf+0x13c>
    3414:	86 36       	cpi	r24, 0x66	; 102
    3416:	21 f4       	brne	.+8      	; 0x3420 <vfprintf+0x138>
    3418:	39 2f       	mov	r19, r25
    341a:	30 68       	ori	r19, 0x80	; 128
    341c:	93 2e       	mov	r9, r19
    341e:	02 c0       	rjmp	.+4      	; 0x3424 <vfprintf+0x13c>
    3420:	11 11       	cpse	r17, r1
    3422:	11 50       	subi	r17, 0x01	; 1
    3424:	97 fe       	sbrs	r9, 7
    3426:	07 c0       	rjmp	.+14     	; 0x3436 <vfprintf+0x14e>
    3428:	1c 33       	cpi	r17, 0x3C	; 60
    342a:	50 f4       	brcc	.+20     	; 0x3440 <vfprintf+0x158>
    342c:	44 24       	eor	r4, r4
    342e:	43 94       	inc	r4
    3430:	41 0e       	add	r4, r17
    3432:	27 e0       	ldi	r18, 0x07	; 7
    3434:	0b c0       	rjmp	.+22     	; 0x344c <vfprintf+0x164>
    3436:	18 30       	cpi	r17, 0x08	; 8
    3438:	38 f0       	brcs	.+14     	; 0x3448 <vfprintf+0x160>
    343a:	27 e0       	ldi	r18, 0x07	; 7
    343c:	17 e0       	ldi	r17, 0x07	; 7
    343e:	05 c0       	rjmp	.+10     	; 0x344a <vfprintf+0x162>
    3440:	27 e0       	ldi	r18, 0x07	; 7
    3442:	9c e3       	ldi	r25, 0x3C	; 60
    3444:	49 2e       	mov	r4, r25
    3446:	02 c0       	rjmp	.+4      	; 0x344c <vfprintf+0x164>
    3448:	21 2f       	mov	r18, r17
    344a:	41 2c       	mov	r4, r1
    344c:	56 01       	movw	r10, r12
    344e:	84 e0       	ldi	r24, 0x04	; 4
    3450:	a8 0e       	add	r10, r24
    3452:	b1 1c       	adc	r11, r1
    3454:	f6 01       	movw	r30, r12
    3456:	60 81       	ld	r22, Z
    3458:	71 81       	ldd	r23, Z+1	; 0x01
    345a:	82 81       	ldd	r24, Z+2	; 0x02
    345c:	93 81       	ldd	r25, Z+3	; 0x03
    345e:	04 2d       	mov	r16, r4
    3460:	a3 01       	movw	r20, r6
    3462:	0e 94 01 1e 	call	0x3c02	; 0x3c02 <__ftoa_engine>
    3466:	6c 01       	movw	r12, r24
    3468:	f9 81       	ldd	r31, Y+1	; 0x01
    346a:	fc 87       	std	Y+12, r31	; 0x0c
    346c:	f0 ff       	sbrs	r31, 0
    346e:	02 c0       	rjmp	.+4      	; 0x3474 <vfprintf+0x18c>
    3470:	f3 ff       	sbrs	r31, 3
    3472:	06 c0       	rjmp	.+12     	; 0x3480 <vfprintf+0x198>
    3474:	91 fc       	sbrc	r9, 1
    3476:	06 c0       	rjmp	.+12     	; 0x3484 <vfprintf+0x19c>
    3478:	92 fe       	sbrs	r9, 2
    347a:	06 c0       	rjmp	.+12     	; 0x3488 <vfprintf+0x1a0>
    347c:	00 e2       	ldi	r16, 0x20	; 32
    347e:	05 c0       	rjmp	.+10     	; 0x348a <vfprintf+0x1a2>
    3480:	0d e2       	ldi	r16, 0x2D	; 45
    3482:	03 c0       	rjmp	.+6      	; 0x348a <vfprintf+0x1a2>
    3484:	0b e2       	ldi	r16, 0x2B	; 43
    3486:	01 c0       	rjmp	.+2      	; 0x348a <vfprintf+0x1a2>
    3488:	00 e0       	ldi	r16, 0x00	; 0
    348a:	8c 85       	ldd	r24, Y+12	; 0x0c
    348c:	8c 70       	andi	r24, 0x0C	; 12
    348e:	19 f0       	breq	.+6      	; 0x3496 <vfprintf+0x1ae>
    3490:	01 11       	cpse	r16, r1
    3492:	5a c2       	rjmp	.+1204   	; 0x3948 <vfprintf+0x660>
    3494:	9b c2       	rjmp	.+1334   	; 0x39cc <vfprintf+0x6e4>
    3496:	97 fe       	sbrs	r9, 7
    3498:	10 c0       	rjmp	.+32     	; 0x34ba <vfprintf+0x1d2>
    349a:	4c 0c       	add	r4, r12
    349c:	fc 85       	ldd	r31, Y+12	; 0x0c
    349e:	f4 ff       	sbrs	r31, 4
    34a0:	04 c0       	rjmp	.+8      	; 0x34aa <vfprintf+0x1c2>
    34a2:	8a 81       	ldd	r24, Y+2	; 0x02
    34a4:	81 33       	cpi	r24, 0x31	; 49
    34a6:	09 f4       	brne	.+2      	; 0x34aa <vfprintf+0x1c2>
    34a8:	4a 94       	dec	r4
    34aa:	14 14       	cp	r1, r4
    34ac:	74 f5       	brge	.+92     	; 0x350a <vfprintf+0x222>
    34ae:	28 e0       	ldi	r18, 0x08	; 8
    34b0:	24 15       	cp	r18, r4
    34b2:	78 f5       	brcc	.+94     	; 0x3512 <vfprintf+0x22a>
    34b4:	88 e0       	ldi	r24, 0x08	; 8
    34b6:	48 2e       	mov	r4, r24
    34b8:	2c c0       	rjmp	.+88     	; 0x3512 <vfprintf+0x22a>
    34ba:	96 fc       	sbrc	r9, 6
    34bc:	2a c0       	rjmp	.+84     	; 0x3512 <vfprintf+0x22a>
    34be:	81 2f       	mov	r24, r17
    34c0:	90 e0       	ldi	r25, 0x00	; 0
    34c2:	8c 15       	cp	r24, r12
    34c4:	9d 05       	cpc	r25, r13
    34c6:	9c f0       	brlt	.+38     	; 0x34ee <vfprintf+0x206>
    34c8:	3c ef       	ldi	r19, 0xFC	; 252
    34ca:	c3 16       	cp	r12, r19
    34cc:	3f ef       	ldi	r19, 0xFF	; 255
    34ce:	d3 06       	cpc	r13, r19
    34d0:	74 f0       	brlt	.+28     	; 0x34ee <vfprintf+0x206>
    34d2:	89 2d       	mov	r24, r9
    34d4:	80 68       	ori	r24, 0x80	; 128
    34d6:	98 2e       	mov	r9, r24
    34d8:	0a c0       	rjmp	.+20     	; 0x34ee <vfprintf+0x206>
    34da:	e2 e0       	ldi	r30, 0x02	; 2
    34dc:	f0 e0       	ldi	r31, 0x00	; 0
    34de:	ec 0f       	add	r30, r28
    34e0:	fd 1f       	adc	r31, r29
    34e2:	e1 0f       	add	r30, r17
    34e4:	f1 1d       	adc	r31, r1
    34e6:	80 81       	ld	r24, Z
    34e8:	80 33       	cpi	r24, 0x30	; 48
    34ea:	19 f4       	brne	.+6      	; 0x34f2 <vfprintf+0x20a>
    34ec:	11 50       	subi	r17, 0x01	; 1
    34ee:	11 11       	cpse	r17, r1
    34f0:	f4 cf       	rjmp	.-24     	; 0x34da <vfprintf+0x1f2>
    34f2:	97 fe       	sbrs	r9, 7
    34f4:	0e c0       	rjmp	.+28     	; 0x3512 <vfprintf+0x22a>
    34f6:	44 24       	eor	r4, r4
    34f8:	43 94       	inc	r4
    34fa:	41 0e       	add	r4, r17
    34fc:	81 2f       	mov	r24, r17
    34fe:	90 e0       	ldi	r25, 0x00	; 0
    3500:	c8 16       	cp	r12, r24
    3502:	d9 06       	cpc	r13, r25
    3504:	2c f4       	brge	.+10     	; 0x3510 <vfprintf+0x228>
    3506:	1c 19       	sub	r17, r12
    3508:	04 c0       	rjmp	.+8      	; 0x3512 <vfprintf+0x22a>
    350a:	44 24       	eor	r4, r4
    350c:	43 94       	inc	r4
    350e:	01 c0       	rjmp	.+2      	; 0x3512 <vfprintf+0x22a>
    3510:	10 e0       	ldi	r17, 0x00	; 0
    3512:	97 fe       	sbrs	r9, 7
    3514:	06 c0       	rjmp	.+12     	; 0x3522 <vfprintf+0x23a>
    3516:	1c 14       	cp	r1, r12
    3518:	1d 04       	cpc	r1, r13
    351a:	34 f4       	brge	.+12     	; 0x3528 <vfprintf+0x240>
    351c:	c6 01       	movw	r24, r12
    351e:	01 96       	adiw	r24, 0x01	; 1
    3520:	05 c0       	rjmp	.+10     	; 0x352c <vfprintf+0x244>
    3522:	85 e0       	ldi	r24, 0x05	; 5
    3524:	90 e0       	ldi	r25, 0x00	; 0
    3526:	02 c0       	rjmp	.+4      	; 0x352c <vfprintf+0x244>
    3528:	81 e0       	ldi	r24, 0x01	; 1
    352a:	90 e0       	ldi	r25, 0x00	; 0
    352c:	01 11       	cpse	r16, r1
    352e:	01 96       	adiw	r24, 0x01	; 1
    3530:	11 23       	and	r17, r17
    3532:	31 f0       	breq	.+12     	; 0x3540 <vfprintf+0x258>
    3534:	21 2f       	mov	r18, r17
    3536:	30 e0       	ldi	r19, 0x00	; 0
    3538:	2f 5f       	subi	r18, 0xFF	; 255
    353a:	3f 4f       	sbci	r19, 0xFF	; 255
    353c:	82 0f       	add	r24, r18
    353e:	93 1f       	adc	r25, r19
    3540:	25 2d       	mov	r18, r5
    3542:	30 e0       	ldi	r19, 0x00	; 0
    3544:	82 17       	cp	r24, r18
    3546:	93 07       	cpc	r25, r19
    3548:	14 f4       	brge	.+4      	; 0x354e <vfprintf+0x266>
    354a:	58 1a       	sub	r5, r24
    354c:	01 c0       	rjmp	.+2      	; 0x3550 <vfprintf+0x268>
    354e:	51 2c       	mov	r5, r1
    3550:	89 2d       	mov	r24, r9
    3552:	89 70       	andi	r24, 0x09	; 9
    3554:	49 f4       	brne	.+18     	; 0x3568 <vfprintf+0x280>
    3556:	55 20       	and	r5, r5
    3558:	39 f0       	breq	.+14     	; 0x3568 <vfprintf+0x280>
    355a:	b7 01       	movw	r22, r14
    355c:	80 e2       	ldi	r24, 0x20	; 32
    355e:	90 e0       	ldi	r25, 0x00	; 0
    3560:	0e 94 23 1f 	call	0x3e46	; 0x3e46 <fputc>
    3564:	5a 94       	dec	r5
    3566:	f7 cf       	rjmp	.-18     	; 0x3556 <vfprintf+0x26e>
    3568:	00 23       	and	r16, r16
    356a:	29 f0       	breq	.+10     	; 0x3576 <vfprintf+0x28e>
    356c:	b7 01       	movw	r22, r14
    356e:	80 2f       	mov	r24, r16
    3570:	90 e0       	ldi	r25, 0x00	; 0
    3572:	0e 94 23 1f 	call	0x3e46	; 0x3e46 <fputc>
    3576:	93 fc       	sbrc	r9, 3
    3578:	09 c0       	rjmp	.+18     	; 0x358c <vfprintf+0x2a4>
    357a:	55 20       	and	r5, r5
    357c:	39 f0       	breq	.+14     	; 0x358c <vfprintf+0x2a4>
    357e:	b7 01       	movw	r22, r14
    3580:	80 e3       	ldi	r24, 0x30	; 48
    3582:	90 e0       	ldi	r25, 0x00	; 0
    3584:	0e 94 23 1f 	call	0x3e46	; 0x3e46 <fputc>
    3588:	5a 94       	dec	r5
    358a:	f7 cf       	rjmp	.-18     	; 0x357a <vfprintf+0x292>
    358c:	97 fe       	sbrs	r9, 7
    358e:	4c c0       	rjmp	.+152    	; 0x3628 <vfprintf+0x340>
    3590:	46 01       	movw	r8, r12
    3592:	d7 fe       	sbrs	r13, 7
    3594:	02 c0       	rjmp	.+4      	; 0x359a <vfprintf+0x2b2>
    3596:	81 2c       	mov	r8, r1
    3598:	91 2c       	mov	r9, r1
    359a:	c6 01       	movw	r24, r12
    359c:	88 19       	sub	r24, r8
    359e:	99 09       	sbc	r25, r9
    35a0:	f3 01       	movw	r30, r6
    35a2:	e8 0f       	add	r30, r24
    35a4:	f9 1f       	adc	r31, r25
    35a6:	fe 87       	std	Y+14, r31	; 0x0e
    35a8:	ed 87       	std	Y+13, r30	; 0x0d
    35aa:	96 01       	movw	r18, r12
    35ac:	24 19       	sub	r18, r4
    35ae:	31 09       	sbc	r19, r1
    35b0:	38 8b       	std	Y+16, r19	; 0x10
    35b2:	2f 87       	std	Y+15, r18	; 0x0f
    35b4:	01 2f       	mov	r16, r17
    35b6:	10 e0       	ldi	r17, 0x00	; 0
    35b8:	11 95       	neg	r17
    35ba:	01 95       	neg	r16
    35bc:	11 09       	sbc	r17, r1
    35be:	3f ef       	ldi	r19, 0xFF	; 255
    35c0:	83 16       	cp	r8, r19
    35c2:	93 06       	cpc	r9, r19
    35c4:	29 f4       	brne	.+10     	; 0x35d0 <vfprintf+0x2e8>
    35c6:	b7 01       	movw	r22, r14
    35c8:	8e e2       	ldi	r24, 0x2E	; 46
    35ca:	90 e0       	ldi	r25, 0x00	; 0
    35cc:	0e 94 23 1f 	call	0x3e46	; 0x3e46 <fputc>
    35d0:	c8 14       	cp	r12, r8
    35d2:	d9 04       	cpc	r13, r9
    35d4:	4c f0       	brlt	.+18     	; 0x35e8 <vfprintf+0x300>
    35d6:	8f 85       	ldd	r24, Y+15	; 0x0f
    35d8:	98 89       	ldd	r25, Y+16	; 0x10
    35da:	88 15       	cp	r24, r8
    35dc:	99 05       	cpc	r25, r9
    35de:	24 f4       	brge	.+8      	; 0x35e8 <vfprintf+0x300>
    35e0:	ed 85       	ldd	r30, Y+13	; 0x0d
    35e2:	fe 85       	ldd	r31, Y+14	; 0x0e
    35e4:	81 81       	ldd	r24, Z+1	; 0x01
    35e6:	01 c0       	rjmp	.+2      	; 0x35ea <vfprintf+0x302>
    35e8:	80 e3       	ldi	r24, 0x30	; 48
    35ea:	f1 e0       	ldi	r31, 0x01	; 1
    35ec:	8f 1a       	sub	r8, r31
    35ee:	91 08       	sbc	r9, r1
    35f0:	2d 85       	ldd	r18, Y+13	; 0x0d
    35f2:	3e 85       	ldd	r19, Y+14	; 0x0e
    35f4:	2f 5f       	subi	r18, 0xFF	; 255
    35f6:	3f 4f       	sbci	r19, 0xFF	; 255
    35f8:	3e 87       	std	Y+14, r19	; 0x0e
    35fa:	2d 87       	std	Y+13, r18	; 0x0d
    35fc:	80 16       	cp	r8, r16
    35fe:	91 06       	cpc	r9, r17
    3600:	2c f0       	brlt	.+10     	; 0x360c <vfprintf+0x324>
    3602:	b7 01       	movw	r22, r14
    3604:	90 e0       	ldi	r25, 0x00	; 0
    3606:	0e 94 23 1f 	call	0x3e46	; 0x3e46 <fputc>
    360a:	d9 cf       	rjmp	.-78     	; 0x35be <vfprintf+0x2d6>
    360c:	c8 14       	cp	r12, r8
    360e:	d9 04       	cpc	r13, r9
    3610:	41 f4       	brne	.+16     	; 0x3622 <vfprintf+0x33a>
    3612:	9a 81       	ldd	r25, Y+2	; 0x02
    3614:	96 33       	cpi	r25, 0x36	; 54
    3616:	20 f4       	brcc	.+8      	; 0x3620 <vfprintf+0x338>
    3618:	95 33       	cpi	r25, 0x35	; 53
    361a:	19 f4       	brne	.+6      	; 0x3622 <vfprintf+0x33a>
    361c:	3c 85       	ldd	r19, Y+12	; 0x0c
    361e:	34 ff       	sbrs	r19, 4
    3620:	81 e3       	ldi	r24, 0x31	; 49
    3622:	b7 01       	movw	r22, r14
    3624:	90 e0       	ldi	r25, 0x00	; 0
    3626:	4e c0       	rjmp	.+156    	; 0x36c4 <vfprintf+0x3dc>
    3628:	8a 81       	ldd	r24, Y+2	; 0x02
    362a:	81 33       	cpi	r24, 0x31	; 49
    362c:	19 f0       	breq	.+6      	; 0x3634 <vfprintf+0x34c>
    362e:	9c 85       	ldd	r25, Y+12	; 0x0c
    3630:	9f 7e       	andi	r25, 0xEF	; 239
    3632:	9c 87       	std	Y+12, r25	; 0x0c
    3634:	b7 01       	movw	r22, r14
    3636:	90 e0       	ldi	r25, 0x00	; 0
    3638:	0e 94 23 1f 	call	0x3e46	; 0x3e46 <fputc>
    363c:	11 11       	cpse	r17, r1
    363e:	05 c0       	rjmp	.+10     	; 0x364a <vfprintf+0x362>
    3640:	94 fc       	sbrc	r9, 4
    3642:	18 c0       	rjmp	.+48     	; 0x3674 <vfprintf+0x38c>
    3644:	85 e6       	ldi	r24, 0x65	; 101
    3646:	90 e0       	ldi	r25, 0x00	; 0
    3648:	17 c0       	rjmp	.+46     	; 0x3678 <vfprintf+0x390>
    364a:	b7 01       	movw	r22, r14
    364c:	8e e2       	ldi	r24, 0x2E	; 46
    364e:	90 e0       	ldi	r25, 0x00	; 0
    3650:	0e 94 23 1f 	call	0x3e46	; 0x3e46 <fputc>
    3654:	1e 5f       	subi	r17, 0xFE	; 254
    3656:	82 e0       	ldi	r24, 0x02	; 2
    3658:	01 e0       	ldi	r16, 0x01	; 1
    365a:	08 0f       	add	r16, r24
    365c:	f3 01       	movw	r30, r6
    365e:	e8 0f       	add	r30, r24
    3660:	f1 1d       	adc	r31, r1
    3662:	80 81       	ld	r24, Z
    3664:	b7 01       	movw	r22, r14
    3666:	90 e0       	ldi	r25, 0x00	; 0
    3668:	0e 94 23 1f 	call	0x3e46	; 0x3e46 <fputc>
    366c:	80 2f       	mov	r24, r16
    366e:	01 13       	cpse	r16, r17
    3670:	f3 cf       	rjmp	.-26     	; 0x3658 <vfprintf+0x370>
    3672:	e6 cf       	rjmp	.-52     	; 0x3640 <vfprintf+0x358>
    3674:	85 e4       	ldi	r24, 0x45	; 69
    3676:	90 e0       	ldi	r25, 0x00	; 0
    3678:	b7 01       	movw	r22, r14
    367a:	0e 94 23 1f 	call	0x3e46	; 0x3e46 <fputc>
    367e:	d7 fc       	sbrc	r13, 7
    3680:	06 c0       	rjmp	.+12     	; 0x368e <vfprintf+0x3a6>
    3682:	c1 14       	cp	r12, r1
    3684:	d1 04       	cpc	r13, r1
    3686:	41 f4       	brne	.+16     	; 0x3698 <vfprintf+0x3b0>
    3688:	ec 85       	ldd	r30, Y+12	; 0x0c
    368a:	e4 ff       	sbrs	r30, 4
    368c:	05 c0       	rjmp	.+10     	; 0x3698 <vfprintf+0x3b0>
    368e:	d1 94       	neg	r13
    3690:	c1 94       	neg	r12
    3692:	d1 08       	sbc	r13, r1
    3694:	8d e2       	ldi	r24, 0x2D	; 45
    3696:	01 c0       	rjmp	.+2      	; 0x369a <vfprintf+0x3b2>
    3698:	8b e2       	ldi	r24, 0x2B	; 43
    369a:	b7 01       	movw	r22, r14
    369c:	90 e0       	ldi	r25, 0x00	; 0
    369e:	0e 94 23 1f 	call	0x3e46	; 0x3e46 <fputc>
    36a2:	80 e3       	ldi	r24, 0x30	; 48
    36a4:	2a e0       	ldi	r18, 0x0A	; 10
    36a6:	c2 16       	cp	r12, r18
    36a8:	d1 04       	cpc	r13, r1
    36aa:	2c f0       	brlt	.+10     	; 0x36b6 <vfprintf+0x3ce>
    36ac:	8f 5f       	subi	r24, 0xFF	; 255
    36ae:	fa e0       	ldi	r31, 0x0A	; 10
    36b0:	cf 1a       	sub	r12, r31
    36b2:	d1 08       	sbc	r13, r1
    36b4:	f7 cf       	rjmp	.-18     	; 0x36a4 <vfprintf+0x3bc>
    36b6:	b7 01       	movw	r22, r14
    36b8:	90 e0       	ldi	r25, 0x00	; 0
    36ba:	0e 94 23 1f 	call	0x3e46	; 0x3e46 <fputc>
    36be:	b7 01       	movw	r22, r14
    36c0:	c6 01       	movw	r24, r12
    36c2:	c0 96       	adiw	r24, 0x30	; 48
    36c4:	0e 94 23 1f 	call	0x3e46	; 0x3e46 <fputc>
    36c8:	54 c1       	rjmp	.+680    	; 0x3972 <vfprintf+0x68a>
    36ca:	83 36       	cpi	r24, 0x63	; 99
    36cc:	31 f0       	breq	.+12     	; 0x36da <vfprintf+0x3f2>
    36ce:	83 37       	cpi	r24, 0x73	; 115
    36d0:	79 f0       	breq	.+30     	; 0x36f0 <vfprintf+0x408>
    36d2:	83 35       	cpi	r24, 0x53	; 83
    36d4:	09 f0       	breq	.+2      	; 0x36d8 <vfprintf+0x3f0>
    36d6:	56 c0       	rjmp	.+172    	; 0x3784 <vfprintf+0x49c>
    36d8:	20 c0       	rjmp	.+64     	; 0x371a <vfprintf+0x432>
    36da:	56 01       	movw	r10, r12
    36dc:	32 e0       	ldi	r19, 0x02	; 2
    36de:	a3 0e       	add	r10, r19
    36e0:	b1 1c       	adc	r11, r1
    36e2:	f6 01       	movw	r30, r12
    36e4:	80 81       	ld	r24, Z
    36e6:	89 83       	std	Y+1, r24	; 0x01
    36e8:	01 e0       	ldi	r16, 0x01	; 1
    36ea:	10 e0       	ldi	r17, 0x00	; 0
    36ec:	63 01       	movw	r12, r6
    36ee:	12 c0       	rjmp	.+36     	; 0x3714 <vfprintf+0x42c>
    36f0:	56 01       	movw	r10, r12
    36f2:	f2 e0       	ldi	r31, 0x02	; 2
    36f4:	af 0e       	add	r10, r31
    36f6:	b1 1c       	adc	r11, r1
    36f8:	f6 01       	movw	r30, r12
    36fa:	c0 80       	ld	r12, Z
    36fc:	d1 80       	ldd	r13, Z+1	; 0x01
    36fe:	96 fe       	sbrs	r9, 6
    3700:	03 c0       	rjmp	.+6      	; 0x3708 <vfprintf+0x420>
    3702:	61 2f       	mov	r22, r17
    3704:	70 e0       	ldi	r23, 0x00	; 0
    3706:	02 c0       	rjmp	.+4      	; 0x370c <vfprintf+0x424>
    3708:	6f ef       	ldi	r22, 0xFF	; 255
    370a:	7f ef       	ldi	r23, 0xFF	; 255
    370c:	c6 01       	movw	r24, r12
    370e:	0e 94 eb 1e 	call	0x3dd6	; 0x3dd6 <strnlen>
    3712:	8c 01       	movw	r16, r24
    3714:	f9 2d       	mov	r31, r9
    3716:	ff 77       	andi	r31, 0x7F	; 127
    3718:	14 c0       	rjmp	.+40     	; 0x3742 <vfprintf+0x45a>
    371a:	56 01       	movw	r10, r12
    371c:	22 e0       	ldi	r18, 0x02	; 2
    371e:	a2 0e       	add	r10, r18
    3720:	b1 1c       	adc	r11, r1
    3722:	f6 01       	movw	r30, r12
    3724:	c0 80       	ld	r12, Z
    3726:	d1 80       	ldd	r13, Z+1	; 0x01
    3728:	96 fe       	sbrs	r9, 6
    372a:	03 c0       	rjmp	.+6      	; 0x3732 <vfprintf+0x44a>
    372c:	61 2f       	mov	r22, r17
    372e:	70 e0       	ldi	r23, 0x00	; 0
    3730:	02 c0       	rjmp	.+4      	; 0x3736 <vfprintf+0x44e>
    3732:	6f ef       	ldi	r22, 0xFF	; 255
    3734:	7f ef       	ldi	r23, 0xFF	; 255
    3736:	c6 01       	movw	r24, r12
    3738:	0e 94 e0 1e 	call	0x3dc0	; 0x3dc0 <strnlen_P>
    373c:	8c 01       	movw	r16, r24
    373e:	f9 2d       	mov	r31, r9
    3740:	f0 68       	ori	r31, 0x80	; 128
    3742:	9f 2e       	mov	r9, r31
    3744:	f3 fd       	sbrc	r31, 3
    3746:	1a c0       	rjmp	.+52     	; 0x377c <vfprintf+0x494>
    3748:	85 2d       	mov	r24, r5
    374a:	90 e0       	ldi	r25, 0x00	; 0
    374c:	08 17       	cp	r16, r24
    374e:	19 07       	cpc	r17, r25
    3750:	a8 f4       	brcc	.+42     	; 0x377c <vfprintf+0x494>
    3752:	b7 01       	movw	r22, r14
    3754:	80 e2       	ldi	r24, 0x20	; 32
    3756:	90 e0       	ldi	r25, 0x00	; 0
    3758:	0e 94 23 1f 	call	0x3e46	; 0x3e46 <fputc>
    375c:	5a 94       	dec	r5
    375e:	f4 cf       	rjmp	.-24     	; 0x3748 <vfprintf+0x460>
    3760:	f6 01       	movw	r30, r12
    3762:	97 fc       	sbrc	r9, 7
    3764:	85 91       	lpm	r24, Z+
    3766:	97 fe       	sbrs	r9, 7
    3768:	81 91       	ld	r24, Z+
    376a:	6f 01       	movw	r12, r30
    376c:	b7 01       	movw	r22, r14
    376e:	90 e0       	ldi	r25, 0x00	; 0
    3770:	0e 94 23 1f 	call	0x3e46	; 0x3e46 <fputc>
    3774:	51 10       	cpse	r5, r1
    3776:	5a 94       	dec	r5
    3778:	01 50       	subi	r16, 0x01	; 1
    377a:	11 09       	sbc	r17, r1
    377c:	01 15       	cp	r16, r1
    377e:	11 05       	cpc	r17, r1
    3780:	79 f7       	brne	.-34     	; 0x3760 <vfprintf+0x478>
    3782:	f7 c0       	rjmp	.+494    	; 0x3972 <vfprintf+0x68a>
    3784:	84 36       	cpi	r24, 0x64	; 100
    3786:	11 f0       	breq	.+4      	; 0x378c <vfprintf+0x4a4>
    3788:	89 36       	cpi	r24, 0x69	; 105
    378a:	61 f5       	brne	.+88     	; 0x37e4 <vfprintf+0x4fc>
    378c:	56 01       	movw	r10, r12
    378e:	97 fe       	sbrs	r9, 7
    3790:	09 c0       	rjmp	.+18     	; 0x37a4 <vfprintf+0x4bc>
    3792:	24 e0       	ldi	r18, 0x04	; 4
    3794:	a2 0e       	add	r10, r18
    3796:	b1 1c       	adc	r11, r1
    3798:	f6 01       	movw	r30, r12
    379a:	60 81       	ld	r22, Z
    379c:	71 81       	ldd	r23, Z+1	; 0x01
    379e:	82 81       	ldd	r24, Z+2	; 0x02
    37a0:	93 81       	ldd	r25, Z+3	; 0x03
    37a2:	0a c0       	rjmp	.+20     	; 0x37b8 <vfprintf+0x4d0>
    37a4:	f2 e0       	ldi	r31, 0x02	; 2
    37a6:	af 0e       	add	r10, r31
    37a8:	b1 1c       	adc	r11, r1
    37aa:	f6 01       	movw	r30, r12
    37ac:	60 81       	ld	r22, Z
    37ae:	71 81       	ldd	r23, Z+1	; 0x01
    37b0:	07 2e       	mov	r0, r23
    37b2:	00 0c       	add	r0, r0
    37b4:	88 0b       	sbc	r24, r24
    37b6:	99 0b       	sbc	r25, r25
    37b8:	f9 2d       	mov	r31, r9
    37ba:	ff 76       	andi	r31, 0x6F	; 111
    37bc:	9f 2e       	mov	r9, r31
    37be:	97 ff       	sbrs	r25, 7
    37c0:	09 c0       	rjmp	.+18     	; 0x37d4 <vfprintf+0x4ec>
    37c2:	90 95       	com	r25
    37c4:	80 95       	com	r24
    37c6:	70 95       	com	r23
    37c8:	61 95       	neg	r22
    37ca:	7f 4f       	sbci	r23, 0xFF	; 255
    37cc:	8f 4f       	sbci	r24, 0xFF	; 255
    37ce:	9f 4f       	sbci	r25, 0xFF	; 255
    37d0:	f0 68       	ori	r31, 0x80	; 128
    37d2:	9f 2e       	mov	r9, r31
    37d4:	2a e0       	ldi	r18, 0x0A	; 10
    37d6:	30 e0       	ldi	r19, 0x00	; 0
    37d8:	a3 01       	movw	r20, r6
    37da:	0e 94 90 1f 	call	0x3f20	; 0x3f20 <__ultoa_invert>
    37de:	c8 2e       	mov	r12, r24
    37e0:	c6 18       	sub	r12, r6
    37e2:	3f c0       	rjmp	.+126    	; 0x3862 <vfprintf+0x57a>
    37e4:	09 2d       	mov	r16, r9
    37e6:	85 37       	cpi	r24, 0x75	; 117
    37e8:	21 f4       	brne	.+8      	; 0x37f2 <vfprintf+0x50a>
    37ea:	0f 7e       	andi	r16, 0xEF	; 239
    37ec:	2a e0       	ldi	r18, 0x0A	; 10
    37ee:	30 e0       	ldi	r19, 0x00	; 0
    37f0:	1d c0       	rjmp	.+58     	; 0x382c <vfprintf+0x544>
    37f2:	09 7f       	andi	r16, 0xF9	; 249
    37f4:	8f 36       	cpi	r24, 0x6F	; 111
    37f6:	91 f0       	breq	.+36     	; 0x381c <vfprintf+0x534>
    37f8:	18 f4       	brcc	.+6      	; 0x3800 <vfprintf+0x518>
    37fa:	88 35       	cpi	r24, 0x58	; 88
    37fc:	59 f0       	breq	.+22     	; 0x3814 <vfprintf+0x52c>
    37fe:	c3 c0       	rjmp	.+390    	; 0x3986 <vfprintf+0x69e>
    3800:	80 37       	cpi	r24, 0x70	; 112
    3802:	19 f0       	breq	.+6      	; 0x380a <vfprintf+0x522>
    3804:	88 37       	cpi	r24, 0x78	; 120
    3806:	11 f0       	breq	.+4      	; 0x380c <vfprintf+0x524>
    3808:	be c0       	rjmp	.+380    	; 0x3986 <vfprintf+0x69e>
    380a:	00 61       	ori	r16, 0x10	; 16
    380c:	04 ff       	sbrs	r16, 4
    380e:	09 c0       	rjmp	.+18     	; 0x3822 <vfprintf+0x53a>
    3810:	04 60       	ori	r16, 0x04	; 4
    3812:	07 c0       	rjmp	.+14     	; 0x3822 <vfprintf+0x53a>
    3814:	94 fe       	sbrs	r9, 4
    3816:	08 c0       	rjmp	.+16     	; 0x3828 <vfprintf+0x540>
    3818:	06 60       	ori	r16, 0x06	; 6
    381a:	06 c0       	rjmp	.+12     	; 0x3828 <vfprintf+0x540>
    381c:	28 e0       	ldi	r18, 0x08	; 8
    381e:	30 e0       	ldi	r19, 0x00	; 0
    3820:	05 c0       	rjmp	.+10     	; 0x382c <vfprintf+0x544>
    3822:	20 e1       	ldi	r18, 0x10	; 16
    3824:	30 e0       	ldi	r19, 0x00	; 0
    3826:	02 c0       	rjmp	.+4      	; 0x382c <vfprintf+0x544>
    3828:	20 e1       	ldi	r18, 0x10	; 16
    382a:	32 e0       	ldi	r19, 0x02	; 2
    382c:	56 01       	movw	r10, r12
    382e:	07 ff       	sbrs	r16, 7
    3830:	09 c0       	rjmp	.+18     	; 0x3844 <vfprintf+0x55c>
    3832:	84 e0       	ldi	r24, 0x04	; 4
    3834:	a8 0e       	add	r10, r24
    3836:	b1 1c       	adc	r11, r1
    3838:	f6 01       	movw	r30, r12
    383a:	60 81       	ld	r22, Z
    383c:	71 81       	ldd	r23, Z+1	; 0x01
    383e:	82 81       	ldd	r24, Z+2	; 0x02
    3840:	93 81       	ldd	r25, Z+3	; 0x03
    3842:	08 c0       	rjmp	.+16     	; 0x3854 <vfprintf+0x56c>
    3844:	f2 e0       	ldi	r31, 0x02	; 2
    3846:	af 0e       	add	r10, r31
    3848:	b1 1c       	adc	r11, r1
    384a:	f6 01       	movw	r30, r12
    384c:	60 81       	ld	r22, Z
    384e:	71 81       	ldd	r23, Z+1	; 0x01
    3850:	80 e0       	ldi	r24, 0x00	; 0
    3852:	90 e0       	ldi	r25, 0x00	; 0
    3854:	a3 01       	movw	r20, r6
    3856:	0e 94 90 1f 	call	0x3f20	; 0x3f20 <__ultoa_invert>
    385a:	c8 2e       	mov	r12, r24
    385c:	c6 18       	sub	r12, r6
    385e:	0f 77       	andi	r16, 0x7F	; 127
    3860:	90 2e       	mov	r9, r16
    3862:	96 fe       	sbrs	r9, 6
    3864:	0b c0       	rjmp	.+22     	; 0x387c <vfprintf+0x594>
    3866:	09 2d       	mov	r16, r9
    3868:	0e 7f       	andi	r16, 0xFE	; 254
    386a:	c1 16       	cp	r12, r17
    386c:	50 f4       	brcc	.+20     	; 0x3882 <vfprintf+0x59a>
    386e:	94 fe       	sbrs	r9, 4
    3870:	0a c0       	rjmp	.+20     	; 0x3886 <vfprintf+0x59e>
    3872:	92 fc       	sbrc	r9, 2
    3874:	08 c0       	rjmp	.+16     	; 0x3886 <vfprintf+0x59e>
    3876:	09 2d       	mov	r16, r9
    3878:	0e 7e       	andi	r16, 0xEE	; 238
    387a:	05 c0       	rjmp	.+10     	; 0x3886 <vfprintf+0x59e>
    387c:	dc 2c       	mov	r13, r12
    387e:	09 2d       	mov	r16, r9
    3880:	03 c0       	rjmp	.+6      	; 0x3888 <vfprintf+0x5a0>
    3882:	dc 2c       	mov	r13, r12
    3884:	01 c0       	rjmp	.+2      	; 0x3888 <vfprintf+0x5a0>
    3886:	d1 2e       	mov	r13, r17
    3888:	04 ff       	sbrs	r16, 4
    388a:	0d c0       	rjmp	.+26     	; 0x38a6 <vfprintf+0x5be>
    388c:	fe 01       	movw	r30, r28
    388e:	ec 0d       	add	r30, r12
    3890:	f1 1d       	adc	r31, r1
    3892:	80 81       	ld	r24, Z
    3894:	80 33       	cpi	r24, 0x30	; 48
    3896:	11 f4       	brne	.+4      	; 0x389c <vfprintf+0x5b4>
    3898:	09 7e       	andi	r16, 0xE9	; 233
    389a:	09 c0       	rjmp	.+18     	; 0x38ae <vfprintf+0x5c6>
    389c:	02 ff       	sbrs	r16, 2
    389e:	06 c0       	rjmp	.+12     	; 0x38ac <vfprintf+0x5c4>
    38a0:	d3 94       	inc	r13
    38a2:	d3 94       	inc	r13
    38a4:	04 c0       	rjmp	.+8      	; 0x38ae <vfprintf+0x5c6>
    38a6:	80 2f       	mov	r24, r16
    38a8:	86 78       	andi	r24, 0x86	; 134
    38aa:	09 f0       	breq	.+2      	; 0x38ae <vfprintf+0x5c6>
    38ac:	d3 94       	inc	r13
    38ae:	03 fd       	sbrc	r16, 3
    38b0:	11 c0       	rjmp	.+34     	; 0x38d4 <vfprintf+0x5ec>
    38b2:	00 ff       	sbrs	r16, 0
    38b4:	06 c0       	rjmp	.+12     	; 0x38c2 <vfprintf+0x5da>
    38b6:	1c 2d       	mov	r17, r12
    38b8:	d5 14       	cp	r13, r5
    38ba:	80 f4       	brcc	.+32     	; 0x38dc <vfprintf+0x5f4>
    38bc:	15 0d       	add	r17, r5
    38be:	1d 19       	sub	r17, r13
    38c0:	0d c0       	rjmp	.+26     	; 0x38dc <vfprintf+0x5f4>
    38c2:	d5 14       	cp	r13, r5
    38c4:	58 f4       	brcc	.+22     	; 0x38dc <vfprintf+0x5f4>
    38c6:	b7 01       	movw	r22, r14
    38c8:	80 e2       	ldi	r24, 0x20	; 32
    38ca:	90 e0       	ldi	r25, 0x00	; 0
    38cc:	0e 94 23 1f 	call	0x3e46	; 0x3e46 <fputc>
    38d0:	d3 94       	inc	r13
    38d2:	f7 cf       	rjmp	.-18     	; 0x38c2 <vfprintf+0x5da>
    38d4:	d5 14       	cp	r13, r5
    38d6:	10 f4       	brcc	.+4      	; 0x38dc <vfprintf+0x5f4>
    38d8:	5d 18       	sub	r5, r13
    38da:	01 c0       	rjmp	.+2      	; 0x38de <vfprintf+0x5f6>
    38dc:	51 2c       	mov	r5, r1
    38de:	04 ff       	sbrs	r16, 4
    38e0:	10 c0       	rjmp	.+32     	; 0x3902 <vfprintf+0x61a>
    38e2:	b7 01       	movw	r22, r14
    38e4:	80 e3       	ldi	r24, 0x30	; 48
    38e6:	90 e0       	ldi	r25, 0x00	; 0
    38e8:	0e 94 23 1f 	call	0x3e46	; 0x3e46 <fputc>
    38ec:	02 ff       	sbrs	r16, 2
    38ee:	17 c0       	rjmp	.+46     	; 0x391e <vfprintf+0x636>
    38f0:	01 fd       	sbrc	r16, 1
    38f2:	03 c0       	rjmp	.+6      	; 0x38fa <vfprintf+0x612>
    38f4:	88 e7       	ldi	r24, 0x78	; 120
    38f6:	90 e0       	ldi	r25, 0x00	; 0
    38f8:	02 c0       	rjmp	.+4      	; 0x38fe <vfprintf+0x616>
    38fa:	88 e5       	ldi	r24, 0x58	; 88
    38fc:	90 e0       	ldi	r25, 0x00	; 0
    38fe:	b7 01       	movw	r22, r14
    3900:	0c c0       	rjmp	.+24     	; 0x391a <vfprintf+0x632>
    3902:	80 2f       	mov	r24, r16
    3904:	86 78       	andi	r24, 0x86	; 134
    3906:	59 f0       	breq	.+22     	; 0x391e <vfprintf+0x636>
    3908:	01 ff       	sbrs	r16, 1
    390a:	02 c0       	rjmp	.+4      	; 0x3910 <vfprintf+0x628>
    390c:	8b e2       	ldi	r24, 0x2B	; 43
    390e:	01 c0       	rjmp	.+2      	; 0x3912 <vfprintf+0x62a>
    3910:	80 e2       	ldi	r24, 0x20	; 32
    3912:	07 fd       	sbrc	r16, 7
    3914:	8d e2       	ldi	r24, 0x2D	; 45
    3916:	b7 01       	movw	r22, r14
    3918:	90 e0       	ldi	r25, 0x00	; 0
    391a:	0e 94 23 1f 	call	0x3e46	; 0x3e46 <fputc>
    391e:	c1 16       	cp	r12, r17
    3920:	38 f4       	brcc	.+14     	; 0x3930 <vfprintf+0x648>
    3922:	b7 01       	movw	r22, r14
    3924:	80 e3       	ldi	r24, 0x30	; 48
    3926:	90 e0       	ldi	r25, 0x00	; 0
    3928:	0e 94 23 1f 	call	0x3e46	; 0x3e46 <fputc>
    392c:	11 50       	subi	r17, 0x01	; 1
    392e:	f7 cf       	rjmp	.-18     	; 0x391e <vfprintf+0x636>
    3930:	ca 94       	dec	r12
    3932:	f3 01       	movw	r30, r6
    3934:	ec 0d       	add	r30, r12
    3936:	f1 1d       	adc	r31, r1
    3938:	80 81       	ld	r24, Z
    393a:	b7 01       	movw	r22, r14
    393c:	90 e0       	ldi	r25, 0x00	; 0
    393e:	0e 94 23 1f 	call	0x3e46	; 0x3e46 <fputc>
    3942:	c1 10       	cpse	r12, r1
    3944:	f5 cf       	rjmp	.-22     	; 0x3930 <vfprintf+0x648>
    3946:	15 c0       	rjmp	.+42     	; 0x3972 <vfprintf+0x68a>
    3948:	f4 e0       	ldi	r31, 0x04	; 4
    394a:	f5 15       	cp	r31, r5
    394c:	60 f5       	brcc	.+88     	; 0x39a6 <vfprintf+0x6be>
    394e:	84 e0       	ldi	r24, 0x04	; 4
    3950:	58 1a       	sub	r5, r24
    3952:	93 fe       	sbrs	r9, 3
    3954:	1f c0       	rjmp	.+62     	; 0x3994 <vfprintf+0x6ac>
    3956:	01 11       	cpse	r16, r1
    3958:	27 c0       	rjmp	.+78     	; 0x39a8 <vfprintf+0x6c0>
    395a:	2c 85       	ldd	r18, Y+12	; 0x0c
    395c:	23 ff       	sbrs	r18, 3
    395e:	2a c0       	rjmp	.+84     	; 0x39b4 <vfprintf+0x6cc>
    3960:	0c e7       	ldi	r16, 0x7C	; 124
    3962:	10 e0       	ldi	r17, 0x00	; 0
    3964:	39 2d       	mov	r19, r9
    3966:	30 71       	andi	r19, 0x10	; 16
    3968:	93 2e       	mov	r9, r19
    396a:	f8 01       	movw	r30, r16
    396c:	84 91       	lpm	r24, Z
    396e:	81 11       	cpse	r24, r1
    3970:	24 c0       	rjmp	.+72     	; 0x39ba <vfprintf+0x6d2>
    3972:	55 20       	and	r5, r5
    3974:	09 f4       	brne	.+2      	; 0x3978 <vfprintf+0x690>
    3976:	e4 cc       	rjmp	.-1592   	; 0x3340 <vfprintf+0x58>
    3978:	b7 01       	movw	r22, r14
    397a:	80 e2       	ldi	r24, 0x20	; 32
    397c:	90 e0       	ldi	r25, 0x00	; 0
    397e:	0e 94 23 1f 	call	0x3e46	; 0x3e46 <fputc>
    3982:	5a 94       	dec	r5
    3984:	f6 cf       	rjmp	.-20     	; 0x3972 <vfprintf+0x68a>
    3986:	f7 01       	movw	r30, r14
    3988:	86 81       	ldd	r24, Z+6	; 0x06
    398a:	97 81       	ldd	r25, Z+7	; 0x07
    398c:	26 c0       	rjmp	.+76     	; 0x39da <vfprintf+0x6f2>
    398e:	8f ef       	ldi	r24, 0xFF	; 255
    3990:	9f ef       	ldi	r25, 0xFF	; 255
    3992:	23 c0       	rjmp	.+70     	; 0x39da <vfprintf+0x6f2>
    3994:	b7 01       	movw	r22, r14
    3996:	80 e2       	ldi	r24, 0x20	; 32
    3998:	90 e0       	ldi	r25, 0x00	; 0
    399a:	0e 94 23 1f 	call	0x3e46	; 0x3e46 <fputc>
    399e:	5a 94       	dec	r5
    39a0:	51 10       	cpse	r5, r1
    39a2:	f8 cf       	rjmp	.-16     	; 0x3994 <vfprintf+0x6ac>
    39a4:	d8 cf       	rjmp	.-80     	; 0x3956 <vfprintf+0x66e>
    39a6:	51 2c       	mov	r5, r1
    39a8:	b7 01       	movw	r22, r14
    39aa:	80 2f       	mov	r24, r16
    39ac:	90 e0       	ldi	r25, 0x00	; 0
    39ae:	0e 94 23 1f 	call	0x3e46	; 0x3e46 <fputc>
    39b2:	d3 cf       	rjmp	.-90     	; 0x395a <vfprintf+0x672>
    39b4:	00 e8       	ldi	r16, 0x80	; 128
    39b6:	10 e0       	ldi	r17, 0x00	; 0
    39b8:	d5 cf       	rjmp	.-86     	; 0x3964 <vfprintf+0x67c>
    39ba:	91 10       	cpse	r9, r1
    39bc:	80 52       	subi	r24, 0x20	; 32
    39be:	b7 01       	movw	r22, r14
    39c0:	90 e0       	ldi	r25, 0x00	; 0
    39c2:	0e 94 23 1f 	call	0x3e46	; 0x3e46 <fputc>
    39c6:	0f 5f       	subi	r16, 0xFF	; 255
    39c8:	1f 4f       	sbci	r17, 0xFF	; 255
    39ca:	cf cf       	rjmp	.-98     	; 0x396a <vfprintf+0x682>
    39cc:	23 e0       	ldi	r18, 0x03	; 3
    39ce:	25 15       	cp	r18, r5
    39d0:	10 f4       	brcc	.+4      	; 0x39d6 <vfprintf+0x6ee>
    39d2:	83 e0       	ldi	r24, 0x03	; 3
    39d4:	bd cf       	rjmp	.-134    	; 0x3950 <vfprintf+0x668>
    39d6:	51 2c       	mov	r5, r1
    39d8:	c0 cf       	rjmp	.-128    	; 0x395a <vfprintf+0x672>
    39da:	60 96       	adiw	r28, 0x10	; 16
    39dc:	e2 e1       	ldi	r30, 0x12	; 18
    39de:	0c 94 90 1d 	jmp	0x3b20	; 0x3b20 <__epilogue_restores__>

000039e2 <__udivmodqi4>:
    39e2:	99 1b       	sub	r25, r25
    39e4:	79 e0       	ldi	r23, 0x09	; 9
    39e6:	04 c0       	rjmp	.+8      	; 0x39f0 <__udivmodqi4_ep>

000039e8 <__udivmodqi4_loop>:
    39e8:	99 1f       	adc	r25, r25
    39ea:	96 17       	cp	r25, r22
    39ec:	08 f0       	brcs	.+2      	; 0x39f0 <__udivmodqi4_ep>
    39ee:	96 1b       	sub	r25, r22

000039f0 <__udivmodqi4_ep>:
    39f0:	88 1f       	adc	r24, r24
    39f2:	7a 95       	dec	r23
    39f4:	c9 f7       	brne	.-14     	; 0x39e8 <__udivmodqi4_loop>
    39f6:	80 95       	com	r24
    39f8:	08 95       	ret

000039fa <__divmodhi4>:
    39fa:	97 fb       	bst	r25, 7
    39fc:	07 2e       	mov	r0, r23
    39fe:	16 f4       	brtc	.+4      	; 0x3a04 <__divmodhi4+0xa>
    3a00:	00 94       	com	r0
    3a02:	07 d0       	rcall	.+14     	; 0x3a12 <__divmodhi4_neg1>
    3a04:	77 fd       	sbrc	r23, 7
    3a06:	09 d0       	rcall	.+18     	; 0x3a1a <__divmodhi4_neg2>
    3a08:	0e 94 ab 1d 	call	0x3b56	; 0x3b56 <__udivmodhi4>
    3a0c:	07 fc       	sbrc	r0, 7
    3a0e:	05 d0       	rcall	.+10     	; 0x3a1a <__divmodhi4_neg2>
    3a10:	3e f4       	brtc	.+14     	; 0x3a20 <__divmodhi4_exit>

00003a12 <__divmodhi4_neg1>:
    3a12:	90 95       	com	r25
    3a14:	81 95       	neg	r24
    3a16:	9f 4f       	sbci	r25, 0xFF	; 255
    3a18:	08 95       	ret

00003a1a <__divmodhi4_neg2>:
    3a1a:	70 95       	com	r23
    3a1c:	61 95       	neg	r22
    3a1e:	7f 4f       	sbci	r23, 0xFF	; 255

00003a20 <__divmodhi4_exit>:
    3a20:	08 95       	ret

00003a22 <__udivmodsi4>:
    3a22:	a1 e2       	ldi	r26, 0x21	; 33
    3a24:	1a 2e       	mov	r1, r26
    3a26:	aa 1b       	sub	r26, r26
    3a28:	bb 1b       	sub	r27, r27
    3a2a:	fd 01       	movw	r30, r26
    3a2c:	0d c0       	rjmp	.+26     	; 0x3a48 <__udivmodsi4_ep>

00003a2e <__udivmodsi4_loop>:
    3a2e:	aa 1f       	adc	r26, r26
    3a30:	bb 1f       	adc	r27, r27
    3a32:	ee 1f       	adc	r30, r30
    3a34:	ff 1f       	adc	r31, r31
    3a36:	a2 17       	cp	r26, r18
    3a38:	b3 07       	cpc	r27, r19
    3a3a:	e4 07       	cpc	r30, r20
    3a3c:	f5 07       	cpc	r31, r21
    3a3e:	20 f0       	brcs	.+8      	; 0x3a48 <__udivmodsi4_ep>
    3a40:	a2 1b       	sub	r26, r18
    3a42:	b3 0b       	sbc	r27, r19
    3a44:	e4 0b       	sbc	r30, r20
    3a46:	f5 0b       	sbc	r31, r21

00003a48 <__udivmodsi4_ep>:
    3a48:	66 1f       	adc	r22, r22
    3a4a:	77 1f       	adc	r23, r23
    3a4c:	88 1f       	adc	r24, r24
    3a4e:	99 1f       	adc	r25, r25
    3a50:	1a 94       	dec	r1
    3a52:	69 f7       	brne	.-38     	; 0x3a2e <__udivmodsi4_loop>
    3a54:	60 95       	com	r22
    3a56:	70 95       	com	r23
    3a58:	80 95       	com	r24
    3a5a:	90 95       	com	r25
    3a5c:	9b 01       	movw	r18, r22
    3a5e:	ac 01       	movw	r20, r24
    3a60:	bd 01       	movw	r22, r26
    3a62:	cf 01       	movw	r24, r30
    3a64:	08 95       	ret

00003a66 <__divmodsi4>:
    3a66:	05 2e       	mov	r0, r21
    3a68:	97 fb       	bst	r25, 7
    3a6a:	1e f4       	brtc	.+6      	; 0x3a72 <__divmodsi4+0xc>
    3a6c:	00 94       	com	r0
    3a6e:	0e 94 4a 1d 	call	0x3a94	; 0x3a94 <__negsi2>
    3a72:	57 fd       	sbrc	r21, 7
    3a74:	07 d0       	rcall	.+14     	; 0x3a84 <__divmodsi4_neg2>
    3a76:	0e 94 11 1d 	call	0x3a22	; 0x3a22 <__udivmodsi4>
    3a7a:	07 fc       	sbrc	r0, 7
    3a7c:	03 d0       	rcall	.+6      	; 0x3a84 <__divmodsi4_neg2>
    3a7e:	4e f4       	brtc	.+18     	; 0x3a92 <__divmodsi4_exit>
    3a80:	0c 94 4a 1d 	jmp	0x3a94	; 0x3a94 <__negsi2>

00003a84 <__divmodsi4_neg2>:
    3a84:	50 95       	com	r21
    3a86:	40 95       	com	r20
    3a88:	30 95       	com	r19
    3a8a:	21 95       	neg	r18
    3a8c:	3f 4f       	sbci	r19, 0xFF	; 255
    3a8e:	4f 4f       	sbci	r20, 0xFF	; 255
    3a90:	5f 4f       	sbci	r21, 0xFF	; 255

00003a92 <__divmodsi4_exit>:
    3a92:	08 95       	ret

00003a94 <__negsi2>:
    3a94:	90 95       	com	r25
    3a96:	80 95       	com	r24
    3a98:	70 95       	com	r23
    3a9a:	61 95       	neg	r22
    3a9c:	7f 4f       	sbci	r23, 0xFF	; 255
    3a9e:	8f 4f       	sbci	r24, 0xFF	; 255
    3aa0:	9f 4f       	sbci	r25, 0xFF	; 255
    3aa2:	08 95       	ret

00003aa4 <__umulhisi3>:
    3aa4:	a2 9f       	mul	r26, r18
    3aa6:	b0 01       	movw	r22, r0
    3aa8:	b3 9f       	mul	r27, r19
    3aaa:	c0 01       	movw	r24, r0
    3aac:	a3 9f       	mul	r26, r19
    3aae:	70 0d       	add	r23, r0
    3ab0:	81 1d       	adc	r24, r1
    3ab2:	11 24       	eor	r1, r1
    3ab4:	91 1d       	adc	r25, r1
    3ab6:	b2 9f       	mul	r27, r18
    3ab8:	70 0d       	add	r23, r0
    3aba:	81 1d       	adc	r24, r1
    3abc:	11 24       	eor	r1, r1
    3abe:	91 1d       	adc	r25, r1
    3ac0:	08 95       	ret

00003ac2 <__muluhisi3>:
    3ac2:	0e 94 52 1d 	call	0x3aa4	; 0x3aa4 <__umulhisi3>
    3ac6:	a5 9f       	mul	r26, r21
    3ac8:	90 0d       	add	r25, r0
    3aca:	b4 9f       	mul	r27, r20
    3acc:	90 0d       	add	r25, r0
    3ace:	a4 9f       	mul	r26, r20
    3ad0:	80 0d       	add	r24, r0
    3ad2:	91 1d       	adc	r25, r1
    3ad4:	11 24       	eor	r1, r1
    3ad6:	08 95       	ret

00003ad8 <__mulshisi3>:
    3ad8:	b7 ff       	sbrs	r27, 7
    3ada:	0c 94 61 1d 	jmp	0x3ac2	; 0x3ac2 <__muluhisi3>

00003ade <__mulohisi3>:
    3ade:	0e 94 61 1d 	call	0x3ac2	; 0x3ac2 <__muluhisi3>
    3ae2:	82 1b       	sub	r24, r18
    3ae4:	93 0b       	sbc	r25, r19
    3ae6:	08 95       	ret

00003ae8 <__prologue_saves__>:
    3ae8:	2f 92       	push	r2
    3aea:	3f 92       	push	r3
    3aec:	4f 92       	push	r4
    3aee:	5f 92       	push	r5
    3af0:	6f 92       	push	r6
    3af2:	7f 92       	push	r7
    3af4:	8f 92       	push	r8
    3af6:	9f 92       	push	r9
    3af8:	af 92       	push	r10
    3afa:	bf 92       	push	r11
    3afc:	cf 92       	push	r12
    3afe:	df 92       	push	r13
    3b00:	ef 92       	push	r14
    3b02:	ff 92       	push	r15
    3b04:	0f 93       	push	r16
    3b06:	1f 93       	push	r17
    3b08:	cf 93       	push	r28
    3b0a:	df 93       	push	r29
    3b0c:	cd b7       	in	r28, 0x3d	; 61
    3b0e:	de b7       	in	r29, 0x3e	; 62
    3b10:	ca 1b       	sub	r28, r26
    3b12:	db 0b       	sbc	r29, r27
    3b14:	0f b6       	in	r0, 0x3f	; 63
    3b16:	f8 94       	cli
    3b18:	de bf       	out	0x3e, r29	; 62
    3b1a:	0f be       	out	0x3f, r0	; 63
    3b1c:	cd bf       	out	0x3d, r28	; 61
    3b1e:	09 94       	ijmp

00003b20 <__epilogue_restores__>:
    3b20:	2a 88       	ldd	r2, Y+18	; 0x12
    3b22:	39 88       	ldd	r3, Y+17	; 0x11
    3b24:	48 88       	ldd	r4, Y+16	; 0x10
    3b26:	5f 84       	ldd	r5, Y+15	; 0x0f
    3b28:	6e 84       	ldd	r6, Y+14	; 0x0e
    3b2a:	7d 84       	ldd	r7, Y+13	; 0x0d
    3b2c:	8c 84       	ldd	r8, Y+12	; 0x0c
    3b2e:	9b 84       	ldd	r9, Y+11	; 0x0b
    3b30:	aa 84       	ldd	r10, Y+10	; 0x0a
    3b32:	b9 84       	ldd	r11, Y+9	; 0x09
    3b34:	c8 84       	ldd	r12, Y+8	; 0x08
    3b36:	df 80       	ldd	r13, Y+7	; 0x07
    3b38:	ee 80       	ldd	r14, Y+6	; 0x06
    3b3a:	fd 80       	ldd	r15, Y+5	; 0x05
    3b3c:	0c 81       	ldd	r16, Y+4	; 0x04
    3b3e:	1b 81       	ldd	r17, Y+3	; 0x03
    3b40:	aa 81       	ldd	r26, Y+2	; 0x02
    3b42:	b9 81       	ldd	r27, Y+1	; 0x01
    3b44:	ce 0f       	add	r28, r30
    3b46:	d1 1d       	adc	r29, r1
    3b48:	0f b6       	in	r0, 0x3f	; 63
    3b4a:	f8 94       	cli
    3b4c:	de bf       	out	0x3e, r29	; 62
    3b4e:	0f be       	out	0x3f, r0	; 63
    3b50:	cd bf       	out	0x3d, r28	; 61
    3b52:	ed 01       	movw	r28, r26
    3b54:	08 95       	ret

00003b56 <__udivmodhi4>:
    3b56:	aa 1b       	sub	r26, r26
    3b58:	bb 1b       	sub	r27, r27
    3b5a:	51 e1       	ldi	r21, 0x11	; 17
    3b5c:	07 c0       	rjmp	.+14     	; 0x3b6c <__udivmodhi4_ep>

00003b5e <__udivmodhi4_loop>:
    3b5e:	aa 1f       	adc	r26, r26
    3b60:	bb 1f       	adc	r27, r27
    3b62:	a6 17       	cp	r26, r22
    3b64:	b7 07       	cpc	r27, r23
    3b66:	10 f0       	brcs	.+4      	; 0x3b6c <__udivmodhi4_ep>
    3b68:	a6 1b       	sub	r26, r22
    3b6a:	b7 0b       	sbc	r27, r23

00003b6c <__udivmodhi4_ep>:
    3b6c:	88 1f       	adc	r24, r24
    3b6e:	99 1f       	adc	r25, r25
    3b70:	5a 95       	dec	r21
    3b72:	a9 f7       	brne	.-22     	; 0x3b5e <__udivmodhi4_loop>
    3b74:	80 95       	com	r24
    3b76:	90 95       	com	r25
    3b78:	bc 01       	movw	r22, r24
    3b7a:	cd 01       	movw	r24, r26
    3b7c:	08 95       	ret

00003b7e <dtostrf>:
    3b7e:	ef 92       	push	r14
    3b80:	0f 93       	push	r16
    3b82:	1f 93       	push	r17
    3b84:	cf 93       	push	r28
    3b86:	df 93       	push	r29
    3b88:	e8 01       	movw	r28, r16
    3b8a:	47 fd       	sbrc	r20, 7
    3b8c:	02 c0       	rjmp	.+4      	; 0x3b92 <dtostrf+0x14>
    3b8e:	34 e0       	ldi	r19, 0x04	; 4
    3b90:	01 c0       	rjmp	.+2      	; 0x3b94 <dtostrf+0x16>
    3b92:	34 e1       	ldi	r19, 0x14	; 20
    3b94:	04 2e       	mov	r0, r20
    3b96:	00 0c       	add	r0, r0
    3b98:	55 0b       	sbc	r21, r21
    3b9a:	57 ff       	sbrs	r21, 7
    3b9c:	03 c0       	rjmp	.+6      	; 0x3ba4 <dtostrf+0x26>
    3b9e:	51 95       	neg	r21
    3ba0:	41 95       	neg	r20
    3ba2:	51 09       	sbc	r21, r1
    3ba4:	e3 2e       	mov	r14, r19
    3ba6:	02 2f       	mov	r16, r18
    3ba8:	24 2f       	mov	r18, r20
    3baa:	ae 01       	movw	r20, r28
    3bac:	0e 94 ee 1f 	call	0x3fdc	; 0x3fdc <dtoa_prf>
    3bb0:	ce 01       	movw	r24, r28
    3bb2:	df 91       	pop	r29
    3bb4:	cf 91       	pop	r28
    3bb6:	1f 91       	pop	r17
    3bb8:	0f 91       	pop	r16
    3bba:	ef 90       	pop	r14
    3bbc:	08 95       	ret

00003bbe <atof>:
    3bbe:	66 27       	eor	r22, r22
    3bc0:	77 27       	eor	r23, r23
    3bc2:	0c 94 48 21 	jmp	0x4290	; 0x4290 <strtod>

00003bc6 <atoi>:
    3bc6:	fc 01       	movw	r30, r24
    3bc8:	88 27       	eor	r24, r24
    3bca:	99 27       	eor	r25, r25
    3bcc:	e8 94       	clt
    3bce:	21 91       	ld	r18, Z+
    3bd0:	20 32       	cpi	r18, 0x20	; 32
    3bd2:	e9 f3       	breq	.-6      	; 0x3bce <atoi+0x8>
    3bd4:	29 30       	cpi	r18, 0x09	; 9
    3bd6:	10 f0       	brcs	.+4      	; 0x3bdc <atoi+0x16>
    3bd8:	2e 30       	cpi	r18, 0x0E	; 14
    3bda:	c8 f3       	brcs	.-14     	; 0x3bce <atoi+0x8>
    3bdc:	2b 32       	cpi	r18, 0x2B	; 43
    3bde:	41 f0       	breq	.+16     	; 0x3bf0 <atoi+0x2a>
    3be0:	2d 32       	cpi	r18, 0x2D	; 45
    3be2:	39 f4       	brne	.+14     	; 0x3bf2 <atoi+0x2c>
    3be4:	68 94       	set
    3be6:	04 c0       	rjmp	.+8      	; 0x3bf0 <atoi+0x2a>
    3be8:	0e 94 01 1f 	call	0x3e02	; 0x3e02 <__mulhi_const_10>
    3bec:	82 0f       	add	r24, r18
    3bee:	91 1d       	adc	r25, r1
    3bf0:	21 91       	ld	r18, Z+
    3bf2:	20 53       	subi	r18, 0x30	; 48
    3bf4:	2a 30       	cpi	r18, 0x0A	; 10
    3bf6:	c0 f3       	brcs	.-16     	; 0x3be8 <atoi+0x22>
    3bf8:	1e f4       	brtc	.+6      	; 0x3c00 <atoi+0x3a>
    3bfa:	90 95       	com	r25
    3bfc:	81 95       	neg	r24
    3bfe:	9f 4f       	sbci	r25, 0xFF	; 255
    3c00:	08 95       	ret

00003c02 <__ftoa_engine>:
    3c02:	28 30       	cpi	r18, 0x08	; 8
    3c04:	08 f0       	brcs	.+2      	; 0x3c08 <__ftoa_engine+0x6>
    3c06:	27 e0       	ldi	r18, 0x07	; 7
    3c08:	33 27       	eor	r19, r19
    3c0a:	da 01       	movw	r26, r20
    3c0c:	99 0f       	add	r25, r25
    3c0e:	31 1d       	adc	r19, r1
    3c10:	87 fd       	sbrc	r24, 7
    3c12:	91 60       	ori	r25, 0x01	; 1
    3c14:	00 96       	adiw	r24, 0x00	; 0
    3c16:	61 05       	cpc	r22, r1
    3c18:	71 05       	cpc	r23, r1
    3c1a:	39 f4       	brne	.+14     	; 0x3c2a <__ftoa_engine+0x28>
    3c1c:	32 60       	ori	r19, 0x02	; 2
    3c1e:	2e 5f       	subi	r18, 0xFE	; 254
    3c20:	3d 93       	st	X+, r19
    3c22:	30 e3       	ldi	r19, 0x30	; 48
    3c24:	2a 95       	dec	r18
    3c26:	e1 f7       	brne	.-8      	; 0x3c20 <__ftoa_engine+0x1e>
    3c28:	08 95       	ret
    3c2a:	9f 3f       	cpi	r25, 0xFF	; 255
    3c2c:	30 f0       	brcs	.+12     	; 0x3c3a <__ftoa_engine+0x38>
    3c2e:	80 38       	cpi	r24, 0x80	; 128
    3c30:	71 05       	cpc	r23, r1
    3c32:	61 05       	cpc	r22, r1
    3c34:	09 f0       	breq	.+2      	; 0x3c38 <__ftoa_engine+0x36>
    3c36:	3c 5f       	subi	r19, 0xFC	; 252
    3c38:	3c 5f       	subi	r19, 0xFC	; 252
    3c3a:	3d 93       	st	X+, r19
    3c3c:	91 30       	cpi	r25, 0x01	; 1
    3c3e:	08 f0       	brcs	.+2      	; 0x3c42 <__ftoa_engine+0x40>
    3c40:	80 68       	ori	r24, 0x80	; 128
    3c42:	91 1d       	adc	r25, r1
    3c44:	df 93       	push	r29
    3c46:	cf 93       	push	r28
    3c48:	1f 93       	push	r17
    3c4a:	0f 93       	push	r16
    3c4c:	ff 92       	push	r15
    3c4e:	ef 92       	push	r14
    3c50:	19 2f       	mov	r17, r25
    3c52:	98 7f       	andi	r25, 0xF8	; 248
    3c54:	96 95       	lsr	r25
    3c56:	e9 2f       	mov	r30, r25
    3c58:	96 95       	lsr	r25
    3c5a:	96 95       	lsr	r25
    3c5c:	e9 0f       	add	r30, r25
    3c5e:	ff 27       	eor	r31, r31
    3c60:	e2 52       	subi	r30, 0x22	; 34
    3c62:	ff 4f       	sbci	r31, 0xFF	; 255
    3c64:	99 27       	eor	r25, r25
    3c66:	33 27       	eor	r19, r19
    3c68:	ee 24       	eor	r14, r14
    3c6a:	ff 24       	eor	r15, r15
    3c6c:	a7 01       	movw	r20, r14
    3c6e:	e7 01       	movw	r28, r14
    3c70:	05 90       	lpm	r0, Z+
    3c72:	08 94       	sec
    3c74:	07 94       	ror	r0
    3c76:	28 f4       	brcc	.+10     	; 0x3c82 <__ftoa_engine+0x80>
    3c78:	36 0f       	add	r19, r22
    3c7a:	e7 1e       	adc	r14, r23
    3c7c:	f8 1e       	adc	r15, r24
    3c7e:	49 1f       	adc	r20, r25
    3c80:	51 1d       	adc	r21, r1
    3c82:	66 0f       	add	r22, r22
    3c84:	77 1f       	adc	r23, r23
    3c86:	88 1f       	adc	r24, r24
    3c88:	99 1f       	adc	r25, r25
    3c8a:	06 94       	lsr	r0
    3c8c:	a1 f7       	brne	.-24     	; 0x3c76 <__ftoa_engine+0x74>
    3c8e:	05 90       	lpm	r0, Z+
    3c90:	07 94       	ror	r0
    3c92:	28 f4       	brcc	.+10     	; 0x3c9e <__ftoa_engine+0x9c>
    3c94:	e7 0e       	add	r14, r23
    3c96:	f8 1e       	adc	r15, r24
    3c98:	49 1f       	adc	r20, r25
    3c9a:	56 1f       	adc	r21, r22
    3c9c:	c1 1d       	adc	r28, r1
    3c9e:	77 0f       	add	r23, r23
    3ca0:	88 1f       	adc	r24, r24
    3ca2:	99 1f       	adc	r25, r25
    3ca4:	66 1f       	adc	r22, r22
    3ca6:	06 94       	lsr	r0
    3ca8:	a1 f7       	brne	.-24     	; 0x3c92 <__ftoa_engine+0x90>
    3caa:	05 90       	lpm	r0, Z+
    3cac:	07 94       	ror	r0
    3cae:	28 f4       	brcc	.+10     	; 0x3cba <__ftoa_engine+0xb8>
    3cb0:	f8 0e       	add	r15, r24
    3cb2:	49 1f       	adc	r20, r25
    3cb4:	56 1f       	adc	r21, r22
    3cb6:	c7 1f       	adc	r28, r23
    3cb8:	d1 1d       	adc	r29, r1
    3cba:	88 0f       	add	r24, r24
    3cbc:	99 1f       	adc	r25, r25
    3cbe:	66 1f       	adc	r22, r22
    3cc0:	77 1f       	adc	r23, r23
    3cc2:	06 94       	lsr	r0
    3cc4:	a1 f7       	brne	.-24     	; 0x3cae <__ftoa_engine+0xac>
    3cc6:	05 90       	lpm	r0, Z+
    3cc8:	07 94       	ror	r0
    3cca:	20 f4       	brcc	.+8      	; 0x3cd4 <__ftoa_engine+0xd2>
    3ccc:	49 0f       	add	r20, r25
    3cce:	56 1f       	adc	r21, r22
    3cd0:	c7 1f       	adc	r28, r23
    3cd2:	d8 1f       	adc	r29, r24
    3cd4:	99 0f       	add	r25, r25
    3cd6:	66 1f       	adc	r22, r22
    3cd8:	77 1f       	adc	r23, r23
    3cda:	88 1f       	adc	r24, r24
    3cdc:	06 94       	lsr	r0
    3cde:	a9 f7       	brne	.-22     	; 0x3cca <__ftoa_engine+0xc8>
    3ce0:	84 91       	lpm	r24, Z
    3ce2:	10 95       	com	r17
    3ce4:	17 70       	andi	r17, 0x07	; 7
    3ce6:	41 f0       	breq	.+16     	; 0x3cf8 <__ftoa_engine+0xf6>
    3ce8:	d6 95       	lsr	r29
    3cea:	c7 95       	ror	r28
    3cec:	57 95       	ror	r21
    3cee:	47 95       	ror	r20
    3cf0:	f7 94       	ror	r15
    3cf2:	e7 94       	ror	r14
    3cf4:	1a 95       	dec	r17
    3cf6:	c1 f7       	brne	.-16     	; 0x3ce8 <__ftoa_engine+0xe6>
    3cf8:	e4 e8       	ldi	r30, 0x84	; 132
    3cfa:	f0 e0       	ldi	r31, 0x00	; 0
    3cfc:	68 94       	set
    3cfe:	15 90       	lpm	r1, Z+
    3d00:	15 91       	lpm	r17, Z+
    3d02:	35 91       	lpm	r19, Z+
    3d04:	65 91       	lpm	r22, Z+
    3d06:	95 91       	lpm	r25, Z+
    3d08:	05 90       	lpm	r0, Z+
    3d0a:	7f e2       	ldi	r23, 0x2F	; 47
    3d0c:	73 95       	inc	r23
    3d0e:	e1 18       	sub	r14, r1
    3d10:	f1 0a       	sbc	r15, r17
    3d12:	43 0b       	sbc	r20, r19
    3d14:	56 0b       	sbc	r21, r22
    3d16:	c9 0b       	sbc	r28, r25
    3d18:	d0 09       	sbc	r29, r0
    3d1a:	c0 f7       	brcc	.-16     	; 0x3d0c <__ftoa_engine+0x10a>
    3d1c:	e1 0c       	add	r14, r1
    3d1e:	f1 1e       	adc	r15, r17
    3d20:	43 1f       	adc	r20, r19
    3d22:	56 1f       	adc	r21, r22
    3d24:	c9 1f       	adc	r28, r25
    3d26:	d0 1d       	adc	r29, r0
    3d28:	7e f4       	brtc	.+30     	; 0x3d48 <__ftoa_engine+0x146>
    3d2a:	70 33       	cpi	r23, 0x30	; 48
    3d2c:	11 f4       	brne	.+4      	; 0x3d32 <__ftoa_engine+0x130>
    3d2e:	8a 95       	dec	r24
    3d30:	e6 cf       	rjmp	.-52     	; 0x3cfe <__ftoa_engine+0xfc>
    3d32:	e8 94       	clt
    3d34:	01 50       	subi	r16, 0x01	; 1
    3d36:	30 f0       	brcs	.+12     	; 0x3d44 <__ftoa_engine+0x142>
    3d38:	08 0f       	add	r16, r24
    3d3a:	0a f4       	brpl	.+2      	; 0x3d3e <__ftoa_engine+0x13c>
    3d3c:	00 27       	eor	r16, r16
    3d3e:	02 17       	cp	r16, r18
    3d40:	08 f4       	brcc	.+2      	; 0x3d44 <__ftoa_engine+0x142>
    3d42:	20 2f       	mov	r18, r16
    3d44:	23 95       	inc	r18
    3d46:	02 2f       	mov	r16, r18
    3d48:	7a 33       	cpi	r23, 0x3A	; 58
    3d4a:	28 f0       	brcs	.+10     	; 0x3d56 <__ftoa_engine+0x154>
    3d4c:	79 e3       	ldi	r23, 0x39	; 57
    3d4e:	7d 93       	st	X+, r23
    3d50:	2a 95       	dec	r18
    3d52:	e9 f7       	brne	.-6      	; 0x3d4e <__ftoa_engine+0x14c>
    3d54:	10 c0       	rjmp	.+32     	; 0x3d76 <__ftoa_engine+0x174>
    3d56:	7d 93       	st	X+, r23
    3d58:	2a 95       	dec	r18
    3d5a:	89 f6       	brne	.-94     	; 0x3cfe <__ftoa_engine+0xfc>
    3d5c:	06 94       	lsr	r0
    3d5e:	97 95       	ror	r25
    3d60:	67 95       	ror	r22
    3d62:	37 95       	ror	r19
    3d64:	17 95       	ror	r17
    3d66:	17 94       	ror	r1
    3d68:	e1 18       	sub	r14, r1
    3d6a:	f1 0a       	sbc	r15, r17
    3d6c:	43 0b       	sbc	r20, r19
    3d6e:	56 0b       	sbc	r21, r22
    3d70:	c9 0b       	sbc	r28, r25
    3d72:	d0 09       	sbc	r29, r0
    3d74:	98 f0       	brcs	.+38     	; 0x3d9c <__ftoa_engine+0x19a>
    3d76:	23 95       	inc	r18
    3d78:	7e 91       	ld	r23, -X
    3d7a:	73 95       	inc	r23
    3d7c:	7a 33       	cpi	r23, 0x3A	; 58
    3d7e:	08 f0       	brcs	.+2      	; 0x3d82 <__ftoa_engine+0x180>
    3d80:	70 e3       	ldi	r23, 0x30	; 48
    3d82:	7c 93       	st	X, r23
    3d84:	20 13       	cpse	r18, r16
    3d86:	b8 f7       	brcc	.-18     	; 0x3d76 <__ftoa_engine+0x174>
    3d88:	7e 91       	ld	r23, -X
    3d8a:	70 61       	ori	r23, 0x10	; 16
    3d8c:	7d 93       	st	X+, r23
    3d8e:	30 f0       	brcs	.+12     	; 0x3d9c <__ftoa_engine+0x19a>
    3d90:	83 95       	inc	r24
    3d92:	71 e3       	ldi	r23, 0x31	; 49
    3d94:	7d 93       	st	X+, r23
    3d96:	70 e3       	ldi	r23, 0x30	; 48
    3d98:	2a 95       	dec	r18
    3d9a:	e1 f7       	brne	.-8      	; 0x3d94 <__ftoa_engine+0x192>
    3d9c:	11 24       	eor	r1, r1
    3d9e:	ef 90       	pop	r14
    3da0:	ff 90       	pop	r15
    3da2:	0f 91       	pop	r16
    3da4:	1f 91       	pop	r17
    3da6:	cf 91       	pop	r28
    3da8:	df 91       	pop	r29
    3daa:	99 27       	eor	r25, r25
    3dac:	87 fd       	sbrc	r24, 7
    3dae:	90 95       	com	r25
    3db0:	08 95       	ret

00003db2 <strcpy_P>:
    3db2:	fb 01       	movw	r30, r22
    3db4:	dc 01       	movw	r26, r24
    3db6:	05 90       	lpm	r0, Z+
    3db8:	0d 92       	st	X+, r0
    3dba:	00 20       	and	r0, r0
    3dbc:	e1 f7       	brne	.-8      	; 0x3db6 <strcpy_P+0x4>
    3dbe:	08 95       	ret

00003dc0 <strnlen_P>:
    3dc0:	fc 01       	movw	r30, r24
    3dc2:	05 90       	lpm	r0, Z+
    3dc4:	61 50       	subi	r22, 0x01	; 1
    3dc6:	70 40       	sbci	r23, 0x00	; 0
    3dc8:	01 10       	cpse	r0, r1
    3dca:	d8 f7       	brcc	.-10     	; 0x3dc2 <strnlen_P+0x2>
    3dcc:	80 95       	com	r24
    3dce:	90 95       	com	r25
    3dd0:	8e 0f       	add	r24, r30
    3dd2:	9f 1f       	adc	r25, r31
    3dd4:	08 95       	ret

00003dd6 <strnlen>:
    3dd6:	fc 01       	movw	r30, r24
    3dd8:	61 50       	subi	r22, 0x01	; 1
    3dda:	70 40       	sbci	r23, 0x00	; 0
    3ddc:	01 90       	ld	r0, Z+
    3dde:	01 10       	cpse	r0, r1
    3de0:	d8 f7       	brcc	.-10     	; 0x3dd8 <strnlen+0x2>
    3de2:	80 95       	com	r24
    3de4:	90 95       	com	r25
    3de6:	8e 0f       	add	r24, r30
    3de8:	9f 1f       	adc	r25, r31
    3dea:	08 95       	ret

00003dec <__itoa_ncheck>:
    3dec:	bb 27       	eor	r27, r27
    3dee:	4a 30       	cpi	r20, 0x0A	; 10
    3df0:	31 f4       	brne	.+12     	; 0x3dfe <__itoa_ncheck+0x12>
    3df2:	99 23       	and	r25, r25
    3df4:	22 f4       	brpl	.+8      	; 0x3dfe <__itoa_ncheck+0x12>
    3df6:	bd e2       	ldi	r27, 0x2D	; 45
    3df8:	90 95       	com	r25
    3dfa:	81 95       	neg	r24
    3dfc:	9f 4f       	sbci	r25, 0xFF	; 255
    3dfe:	0c 94 0a 1f 	jmp	0x3e14	; 0x3e14 <__utoa_common>

00003e02 <__mulhi_const_10>:
    3e02:	7a e0       	ldi	r23, 0x0A	; 10
    3e04:	97 9f       	mul	r25, r23
    3e06:	90 2d       	mov	r25, r0
    3e08:	87 9f       	mul	r24, r23
    3e0a:	80 2d       	mov	r24, r0
    3e0c:	91 0d       	add	r25, r1
    3e0e:	11 24       	eor	r1, r1
    3e10:	08 95       	ret

00003e12 <__utoa_ncheck>:
    3e12:	bb 27       	eor	r27, r27

00003e14 <__utoa_common>:
    3e14:	fb 01       	movw	r30, r22
    3e16:	55 27       	eor	r21, r21
    3e18:	aa 27       	eor	r26, r26
    3e1a:	88 0f       	add	r24, r24
    3e1c:	99 1f       	adc	r25, r25
    3e1e:	aa 1f       	adc	r26, r26
    3e20:	a4 17       	cp	r26, r20
    3e22:	10 f0       	brcs	.+4      	; 0x3e28 <__utoa_common+0x14>
    3e24:	a4 1b       	sub	r26, r20
    3e26:	83 95       	inc	r24
    3e28:	50 51       	subi	r21, 0x10	; 16
    3e2a:	b9 f7       	brne	.-18     	; 0x3e1a <__utoa_common+0x6>
    3e2c:	a0 5d       	subi	r26, 0xD0	; 208
    3e2e:	aa 33       	cpi	r26, 0x3A	; 58
    3e30:	08 f0       	brcs	.+2      	; 0x3e34 <__utoa_common+0x20>
    3e32:	a9 5d       	subi	r26, 0xD9	; 217
    3e34:	a1 93       	st	Z+, r26
    3e36:	00 97       	sbiw	r24, 0x00	; 0
    3e38:	79 f7       	brne	.-34     	; 0x3e18 <__utoa_common+0x4>
    3e3a:	b1 11       	cpse	r27, r1
    3e3c:	b1 93       	st	Z+, r27
    3e3e:	11 92       	st	Z+, r1
    3e40:	cb 01       	movw	r24, r22
    3e42:	0c 94 b7 22 	jmp	0x456e	; 0x456e <strrev>

00003e46 <fputc>:
    3e46:	0f 93       	push	r16
    3e48:	1f 93       	push	r17
    3e4a:	cf 93       	push	r28
    3e4c:	df 93       	push	r29
    3e4e:	fb 01       	movw	r30, r22
    3e50:	23 81       	ldd	r18, Z+3	; 0x03
    3e52:	21 fd       	sbrc	r18, 1
    3e54:	03 c0       	rjmp	.+6      	; 0x3e5c <fputc+0x16>
    3e56:	8f ef       	ldi	r24, 0xFF	; 255
    3e58:	9f ef       	ldi	r25, 0xFF	; 255
    3e5a:	2c c0       	rjmp	.+88     	; 0x3eb4 <fputc+0x6e>
    3e5c:	22 ff       	sbrs	r18, 2
    3e5e:	16 c0       	rjmp	.+44     	; 0x3e8c <fputc+0x46>
    3e60:	46 81       	ldd	r20, Z+6	; 0x06
    3e62:	57 81       	ldd	r21, Z+7	; 0x07
    3e64:	24 81       	ldd	r18, Z+4	; 0x04
    3e66:	35 81       	ldd	r19, Z+5	; 0x05
    3e68:	42 17       	cp	r20, r18
    3e6a:	53 07       	cpc	r21, r19
    3e6c:	44 f4       	brge	.+16     	; 0x3e7e <fputc+0x38>
    3e6e:	a0 81       	ld	r26, Z
    3e70:	b1 81       	ldd	r27, Z+1	; 0x01
    3e72:	9d 01       	movw	r18, r26
    3e74:	2f 5f       	subi	r18, 0xFF	; 255
    3e76:	3f 4f       	sbci	r19, 0xFF	; 255
    3e78:	31 83       	std	Z+1, r19	; 0x01
    3e7a:	20 83       	st	Z, r18
    3e7c:	8c 93       	st	X, r24
    3e7e:	26 81       	ldd	r18, Z+6	; 0x06
    3e80:	37 81       	ldd	r19, Z+7	; 0x07
    3e82:	2f 5f       	subi	r18, 0xFF	; 255
    3e84:	3f 4f       	sbci	r19, 0xFF	; 255
    3e86:	37 83       	std	Z+7, r19	; 0x07
    3e88:	26 83       	std	Z+6, r18	; 0x06
    3e8a:	14 c0       	rjmp	.+40     	; 0x3eb4 <fputc+0x6e>
    3e8c:	8b 01       	movw	r16, r22
    3e8e:	ec 01       	movw	r28, r24
    3e90:	fb 01       	movw	r30, r22
    3e92:	00 84       	ldd	r0, Z+8	; 0x08
    3e94:	f1 85       	ldd	r31, Z+9	; 0x09
    3e96:	e0 2d       	mov	r30, r0
    3e98:	09 95       	icall
    3e9a:	89 2b       	or	r24, r25
    3e9c:	e1 f6       	brne	.-72     	; 0x3e56 <fputc+0x10>
    3e9e:	d8 01       	movw	r26, r16
    3ea0:	16 96       	adiw	r26, 0x06	; 6
    3ea2:	8d 91       	ld	r24, X+
    3ea4:	9c 91       	ld	r25, X
    3ea6:	17 97       	sbiw	r26, 0x07	; 7
    3ea8:	01 96       	adiw	r24, 0x01	; 1
    3eaa:	17 96       	adiw	r26, 0x07	; 7
    3eac:	9c 93       	st	X, r25
    3eae:	8e 93       	st	-X, r24
    3eb0:	16 97       	sbiw	r26, 0x06	; 6
    3eb2:	ce 01       	movw	r24, r28
    3eb4:	df 91       	pop	r29
    3eb6:	cf 91       	pop	r28
    3eb8:	1f 91       	pop	r17
    3eba:	0f 91       	pop	r16
    3ebc:	08 95       	ret

00003ebe <sprintf_P>:
    3ebe:	ae e0       	ldi	r26, 0x0E	; 14
    3ec0:	b0 e0       	ldi	r27, 0x00	; 0
    3ec2:	e5 e6       	ldi	r30, 0x65	; 101
    3ec4:	ff e1       	ldi	r31, 0x1F	; 31
    3ec6:	0c 94 82 1d 	jmp	0x3b04	; 0x3b04 <__prologue_saves__+0x1c>
    3eca:	0d 89       	ldd	r16, Y+21	; 0x15
    3ecc:	1e 89       	ldd	r17, Y+22	; 0x16
    3ece:	8e e0       	ldi	r24, 0x0E	; 14
    3ed0:	8c 83       	std	Y+4, r24	; 0x04
    3ed2:	1a 83       	std	Y+2, r17	; 0x02
    3ed4:	09 83       	std	Y+1, r16	; 0x01
    3ed6:	8f ef       	ldi	r24, 0xFF	; 255
    3ed8:	9f e7       	ldi	r25, 0x7F	; 127
    3eda:	9e 83       	std	Y+6, r25	; 0x06
    3edc:	8d 83       	std	Y+5, r24	; 0x05
    3ede:	ae 01       	movw	r20, r28
    3ee0:	47 5e       	subi	r20, 0xE7	; 231
    3ee2:	5f 4f       	sbci	r21, 0xFF	; 255
    3ee4:	6f 89       	ldd	r22, Y+23	; 0x17
    3ee6:	78 8d       	ldd	r23, Y+24	; 0x18
    3ee8:	ce 01       	movw	r24, r28
    3eea:	01 96       	adiw	r24, 0x01	; 1
    3eec:	0e 94 74 19 	call	0x32e8	; 0x32e8 <vfprintf>
    3ef0:	ef 81       	ldd	r30, Y+7	; 0x07
    3ef2:	f8 85       	ldd	r31, Y+8	; 0x08
    3ef4:	e0 0f       	add	r30, r16
    3ef6:	f1 1f       	adc	r31, r17
    3ef8:	10 82       	st	Z, r1
    3efa:	2e 96       	adiw	r28, 0x0e	; 14
    3efc:	e4 e0       	ldi	r30, 0x04	; 4
    3efe:	0c 94 9e 1d 	jmp	0x3b3c	; 0x3b3c <__epilogue_restores__+0x1c>

00003f02 <vfprintf_P>:
    3f02:	cf 93       	push	r28
    3f04:	df 93       	push	r29
    3f06:	ec 01       	movw	r28, r24
    3f08:	8b 81       	ldd	r24, Y+3	; 0x03
    3f0a:	88 60       	ori	r24, 0x08	; 8
    3f0c:	8b 83       	std	Y+3, r24	; 0x03
    3f0e:	ce 01       	movw	r24, r28
    3f10:	0e 94 74 19 	call	0x32e8	; 0x32e8 <vfprintf>
    3f14:	2b 81       	ldd	r18, Y+3	; 0x03
    3f16:	27 7f       	andi	r18, 0xF7	; 247
    3f18:	2b 83       	std	Y+3, r18	; 0x03
    3f1a:	df 91       	pop	r29
    3f1c:	cf 91       	pop	r28
    3f1e:	08 95       	ret

00003f20 <__ultoa_invert>:
    3f20:	fa 01       	movw	r30, r20
    3f22:	aa 27       	eor	r26, r26
    3f24:	28 30       	cpi	r18, 0x08	; 8
    3f26:	51 f1       	breq	.+84     	; 0x3f7c <__ultoa_invert+0x5c>
    3f28:	20 31       	cpi	r18, 0x10	; 16
    3f2a:	81 f1       	breq	.+96     	; 0x3f8c <__ultoa_invert+0x6c>
    3f2c:	e8 94       	clt
    3f2e:	6f 93       	push	r22
    3f30:	6e 7f       	andi	r22, 0xFE	; 254
    3f32:	6e 5f       	subi	r22, 0xFE	; 254
    3f34:	7f 4f       	sbci	r23, 0xFF	; 255
    3f36:	8f 4f       	sbci	r24, 0xFF	; 255
    3f38:	9f 4f       	sbci	r25, 0xFF	; 255
    3f3a:	af 4f       	sbci	r26, 0xFF	; 255
    3f3c:	b1 e0       	ldi	r27, 0x01	; 1
    3f3e:	3e d0       	rcall	.+124    	; 0x3fbc <__ultoa_invert+0x9c>
    3f40:	b4 e0       	ldi	r27, 0x04	; 4
    3f42:	3c d0       	rcall	.+120    	; 0x3fbc <__ultoa_invert+0x9c>
    3f44:	67 0f       	add	r22, r23
    3f46:	78 1f       	adc	r23, r24
    3f48:	89 1f       	adc	r24, r25
    3f4a:	9a 1f       	adc	r25, r26
    3f4c:	a1 1d       	adc	r26, r1
    3f4e:	68 0f       	add	r22, r24
    3f50:	79 1f       	adc	r23, r25
    3f52:	8a 1f       	adc	r24, r26
    3f54:	91 1d       	adc	r25, r1
    3f56:	a1 1d       	adc	r26, r1
    3f58:	6a 0f       	add	r22, r26
    3f5a:	71 1d       	adc	r23, r1
    3f5c:	81 1d       	adc	r24, r1
    3f5e:	91 1d       	adc	r25, r1
    3f60:	a1 1d       	adc	r26, r1
    3f62:	20 d0       	rcall	.+64     	; 0x3fa4 <__ultoa_invert+0x84>
    3f64:	09 f4       	brne	.+2      	; 0x3f68 <__ultoa_invert+0x48>
    3f66:	68 94       	set
    3f68:	3f 91       	pop	r19
    3f6a:	2a e0       	ldi	r18, 0x0A	; 10
    3f6c:	26 9f       	mul	r18, r22
    3f6e:	11 24       	eor	r1, r1
    3f70:	30 19       	sub	r19, r0
    3f72:	30 5d       	subi	r19, 0xD0	; 208
    3f74:	31 93       	st	Z+, r19
    3f76:	de f6       	brtc	.-74     	; 0x3f2e <__ultoa_invert+0xe>
    3f78:	cf 01       	movw	r24, r30
    3f7a:	08 95       	ret
    3f7c:	46 2f       	mov	r20, r22
    3f7e:	47 70       	andi	r20, 0x07	; 7
    3f80:	40 5d       	subi	r20, 0xD0	; 208
    3f82:	41 93       	st	Z+, r20
    3f84:	b3 e0       	ldi	r27, 0x03	; 3
    3f86:	0f d0       	rcall	.+30     	; 0x3fa6 <__ultoa_invert+0x86>
    3f88:	c9 f7       	brne	.-14     	; 0x3f7c <__ultoa_invert+0x5c>
    3f8a:	f6 cf       	rjmp	.-20     	; 0x3f78 <__ultoa_invert+0x58>
    3f8c:	46 2f       	mov	r20, r22
    3f8e:	4f 70       	andi	r20, 0x0F	; 15
    3f90:	40 5d       	subi	r20, 0xD0	; 208
    3f92:	4a 33       	cpi	r20, 0x3A	; 58
    3f94:	18 f0       	brcs	.+6      	; 0x3f9c <__ultoa_invert+0x7c>
    3f96:	49 5d       	subi	r20, 0xD9	; 217
    3f98:	31 fd       	sbrc	r19, 1
    3f9a:	40 52       	subi	r20, 0x20	; 32
    3f9c:	41 93       	st	Z+, r20
    3f9e:	02 d0       	rcall	.+4      	; 0x3fa4 <__ultoa_invert+0x84>
    3fa0:	a9 f7       	brne	.-22     	; 0x3f8c <__ultoa_invert+0x6c>
    3fa2:	ea cf       	rjmp	.-44     	; 0x3f78 <__ultoa_invert+0x58>
    3fa4:	b4 e0       	ldi	r27, 0x04	; 4
    3fa6:	a6 95       	lsr	r26
    3fa8:	97 95       	ror	r25
    3faa:	87 95       	ror	r24
    3fac:	77 95       	ror	r23
    3fae:	67 95       	ror	r22
    3fb0:	ba 95       	dec	r27
    3fb2:	c9 f7       	brne	.-14     	; 0x3fa6 <__ultoa_invert+0x86>
    3fb4:	00 97       	sbiw	r24, 0x00	; 0
    3fb6:	61 05       	cpc	r22, r1
    3fb8:	71 05       	cpc	r23, r1
    3fba:	08 95       	ret
    3fbc:	9b 01       	movw	r18, r22
    3fbe:	ac 01       	movw	r20, r24
    3fc0:	0a 2e       	mov	r0, r26
    3fc2:	06 94       	lsr	r0
    3fc4:	57 95       	ror	r21
    3fc6:	47 95       	ror	r20
    3fc8:	37 95       	ror	r19
    3fca:	27 95       	ror	r18
    3fcc:	ba 95       	dec	r27
    3fce:	c9 f7       	brne	.-14     	; 0x3fc2 <__ultoa_invert+0xa2>
    3fd0:	62 0f       	add	r22, r18
    3fd2:	73 1f       	adc	r23, r19
    3fd4:	84 1f       	adc	r24, r20
    3fd6:	95 1f       	adc	r25, r21
    3fd8:	a0 1d       	adc	r26, r0
    3fda:	08 95       	ret

00003fdc <dtoa_prf>:
    3fdc:	a9 e0       	ldi	r26, 0x09	; 9
    3fde:	b0 e0       	ldi	r27, 0x00	; 0
    3fe0:	e4 ef       	ldi	r30, 0xF4	; 244
    3fe2:	ff e1       	ldi	r31, 0x1F	; 31
    3fe4:	0c 94 7a 1d 	jmp	0x3af4	; 0x3af4 <__prologue_saves__+0xc>
    3fe8:	6a 01       	movw	r12, r20
    3fea:	12 2f       	mov	r17, r18
    3fec:	b0 2e       	mov	r11, r16
    3fee:	2b e3       	ldi	r18, 0x3B	; 59
    3ff0:	20 17       	cp	r18, r16
    3ff2:	20 f0       	brcs	.+8      	; 0x3ffc <dtoa_prf+0x20>
    3ff4:	ff 24       	eor	r15, r15
    3ff6:	f3 94       	inc	r15
    3ff8:	f0 0e       	add	r15, r16
    3ffa:	02 c0       	rjmp	.+4      	; 0x4000 <dtoa_prf+0x24>
    3ffc:	2c e3       	ldi	r18, 0x3C	; 60
    3ffe:	f2 2e       	mov	r15, r18
    4000:	0f 2d       	mov	r16, r15
    4002:	27 e0       	ldi	r18, 0x07	; 7
    4004:	ae 01       	movw	r20, r28
    4006:	4f 5f       	subi	r20, 0xFF	; 255
    4008:	5f 4f       	sbci	r21, 0xFF	; 255
    400a:	0e 94 01 1e 	call	0x3c02	; 0x3c02 <__ftoa_engine>
    400e:	bc 01       	movw	r22, r24
    4010:	49 81       	ldd	r20, Y+1	; 0x01
    4012:	84 2f       	mov	r24, r20
    4014:	89 70       	andi	r24, 0x09	; 9
    4016:	81 30       	cpi	r24, 0x01	; 1
    4018:	31 f0       	breq	.+12     	; 0x4026 <dtoa_prf+0x4a>
    401a:	e1 fc       	sbrc	r14, 1
    401c:	06 c0       	rjmp	.+12     	; 0x402a <dtoa_prf+0x4e>
    401e:	e0 fe       	sbrs	r14, 0
    4020:	06 c0       	rjmp	.+12     	; 0x402e <dtoa_prf+0x52>
    4022:	90 e2       	ldi	r25, 0x20	; 32
    4024:	05 c0       	rjmp	.+10     	; 0x4030 <dtoa_prf+0x54>
    4026:	9d e2       	ldi	r25, 0x2D	; 45
    4028:	03 c0       	rjmp	.+6      	; 0x4030 <dtoa_prf+0x54>
    402a:	9b e2       	ldi	r25, 0x2B	; 43
    402c:	01 c0       	rjmp	.+2      	; 0x4030 <dtoa_prf+0x54>
    402e:	90 e0       	ldi	r25, 0x00	; 0
    4030:	5e 2d       	mov	r21, r14
    4032:	50 71       	andi	r21, 0x10	; 16
    4034:	43 ff       	sbrs	r20, 3
    4036:	3c c0       	rjmp	.+120    	; 0x40b0 <dtoa_prf+0xd4>
    4038:	91 11       	cpse	r25, r1
    403a:	02 c0       	rjmp	.+4      	; 0x4040 <dtoa_prf+0x64>
    403c:	83 e0       	ldi	r24, 0x03	; 3
    403e:	01 c0       	rjmp	.+2      	; 0x4042 <dtoa_prf+0x66>
    4040:	84 e0       	ldi	r24, 0x04	; 4
    4042:	81 17       	cp	r24, r17
    4044:	18 f4       	brcc	.+6      	; 0x404c <dtoa_prf+0x70>
    4046:	21 2f       	mov	r18, r17
    4048:	28 1b       	sub	r18, r24
    404a:	01 c0       	rjmp	.+2      	; 0x404e <dtoa_prf+0x72>
    404c:	20 e0       	ldi	r18, 0x00	; 0
    404e:	51 11       	cpse	r21, r1
    4050:	0b c0       	rjmp	.+22     	; 0x4068 <dtoa_prf+0x8c>
    4052:	f6 01       	movw	r30, r12
    4054:	82 2f       	mov	r24, r18
    4056:	30 e2       	ldi	r19, 0x20	; 32
    4058:	88 23       	and	r24, r24
    405a:	19 f0       	breq	.+6      	; 0x4062 <dtoa_prf+0x86>
    405c:	31 93       	st	Z+, r19
    405e:	81 50       	subi	r24, 0x01	; 1
    4060:	fb cf       	rjmp	.-10     	; 0x4058 <dtoa_prf+0x7c>
    4062:	c2 0e       	add	r12, r18
    4064:	d1 1c       	adc	r13, r1
    4066:	20 e0       	ldi	r18, 0x00	; 0
    4068:	99 23       	and	r25, r25
    406a:	29 f0       	breq	.+10     	; 0x4076 <dtoa_prf+0x9a>
    406c:	d6 01       	movw	r26, r12
    406e:	9c 93       	st	X, r25
    4070:	f6 01       	movw	r30, r12
    4072:	31 96       	adiw	r30, 0x01	; 1
    4074:	6f 01       	movw	r12, r30
    4076:	c6 01       	movw	r24, r12
    4078:	03 96       	adiw	r24, 0x03	; 3
    407a:	e2 fe       	sbrs	r14, 2
    407c:	0a c0       	rjmp	.+20     	; 0x4092 <dtoa_prf+0xb6>
    407e:	3e e4       	ldi	r19, 0x4E	; 78
    4080:	d6 01       	movw	r26, r12
    4082:	3c 93       	st	X, r19
    4084:	41 e4       	ldi	r20, 0x41	; 65
    4086:	11 96       	adiw	r26, 0x01	; 1
    4088:	4c 93       	st	X, r20
    408a:	11 97       	sbiw	r26, 0x01	; 1
    408c:	12 96       	adiw	r26, 0x02	; 2
    408e:	3c 93       	st	X, r19
    4090:	06 c0       	rjmp	.+12     	; 0x409e <dtoa_prf+0xc2>
    4092:	3e e6       	ldi	r19, 0x6E	; 110
    4094:	f6 01       	movw	r30, r12
    4096:	30 83       	st	Z, r19
    4098:	41 e6       	ldi	r20, 0x61	; 97
    409a:	41 83       	std	Z+1, r20	; 0x01
    409c:	32 83       	std	Z+2, r19	; 0x02
    409e:	fc 01       	movw	r30, r24
    40a0:	32 2f       	mov	r19, r18
    40a2:	40 e2       	ldi	r20, 0x20	; 32
    40a4:	33 23       	and	r19, r19
    40a6:	09 f4       	brne	.+2      	; 0x40aa <dtoa_prf+0xce>
    40a8:	42 c0       	rjmp	.+132    	; 0x412e <dtoa_prf+0x152>
    40aa:	41 93       	st	Z+, r20
    40ac:	31 50       	subi	r19, 0x01	; 1
    40ae:	fa cf       	rjmp	.-12     	; 0x40a4 <dtoa_prf+0xc8>
    40b0:	42 ff       	sbrs	r20, 2
    40b2:	44 c0       	rjmp	.+136    	; 0x413c <dtoa_prf+0x160>
    40b4:	91 11       	cpse	r25, r1
    40b6:	02 c0       	rjmp	.+4      	; 0x40bc <dtoa_prf+0xe0>
    40b8:	83 e0       	ldi	r24, 0x03	; 3
    40ba:	01 c0       	rjmp	.+2      	; 0x40be <dtoa_prf+0xe2>
    40bc:	84 e0       	ldi	r24, 0x04	; 4
    40be:	81 17       	cp	r24, r17
    40c0:	18 f4       	brcc	.+6      	; 0x40c8 <dtoa_prf+0xec>
    40c2:	21 2f       	mov	r18, r17
    40c4:	28 1b       	sub	r18, r24
    40c6:	01 c0       	rjmp	.+2      	; 0x40ca <dtoa_prf+0xee>
    40c8:	20 e0       	ldi	r18, 0x00	; 0
    40ca:	51 11       	cpse	r21, r1
    40cc:	0b c0       	rjmp	.+22     	; 0x40e4 <dtoa_prf+0x108>
    40ce:	f6 01       	movw	r30, r12
    40d0:	82 2f       	mov	r24, r18
    40d2:	30 e2       	ldi	r19, 0x20	; 32
    40d4:	88 23       	and	r24, r24
    40d6:	19 f0       	breq	.+6      	; 0x40de <dtoa_prf+0x102>
    40d8:	31 93       	st	Z+, r19
    40da:	81 50       	subi	r24, 0x01	; 1
    40dc:	fb cf       	rjmp	.-10     	; 0x40d4 <dtoa_prf+0xf8>
    40de:	c2 0e       	add	r12, r18
    40e0:	d1 1c       	adc	r13, r1
    40e2:	20 e0       	ldi	r18, 0x00	; 0
    40e4:	99 23       	and	r25, r25
    40e6:	29 f0       	breq	.+10     	; 0x40f2 <dtoa_prf+0x116>
    40e8:	d6 01       	movw	r26, r12
    40ea:	9c 93       	st	X, r25
    40ec:	f6 01       	movw	r30, r12
    40ee:	31 96       	adiw	r30, 0x01	; 1
    40f0:	6f 01       	movw	r12, r30
    40f2:	c6 01       	movw	r24, r12
    40f4:	03 96       	adiw	r24, 0x03	; 3
    40f6:	e2 fe       	sbrs	r14, 2
    40f8:	0b c0       	rjmp	.+22     	; 0x4110 <dtoa_prf+0x134>
    40fa:	39 e4       	ldi	r19, 0x49	; 73
    40fc:	d6 01       	movw	r26, r12
    40fe:	3c 93       	st	X, r19
    4100:	3e e4       	ldi	r19, 0x4E	; 78
    4102:	11 96       	adiw	r26, 0x01	; 1
    4104:	3c 93       	st	X, r19
    4106:	11 97       	sbiw	r26, 0x01	; 1
    4108:	36 e4       	ldi	r19, 0x46	; 70
    410a:	12 96       	adiw	r26, 0x02	; 2
    410c:	3c 93       	st	X, r19
    410e:	07 c0       	rjmp	.+14     	; 0x411e <dtoa_prf+0x142>
    4110:	39 e6       	ldi	r19, 0x69	; 105
    4112:	f6 01       	movw	r30, r12
    4114:	30 83       	st	Z, r19
    4116:	3e e6       	ldi	r19, 0x6E	; 110
    4118:	31 83       	std	Z+1, r19	; 0x01
    411a:	36 e6       	ldi	r19, 0x66	; 102
    411c:	32 83       	std	Z+2, r19	; 0x02
    411e:	fc 01       	movw	r30, r24
    4120:	32 2f       	mov	r19, r18
    4122:	40 e2       	ldi	r20, 0x20	; 32
    4124:	33 23       	and	r19, r19
    4126:	19 f0       	breq	.+6      	; 0x412e <dtoa_prf+0x152>
    4128:	41 93       	st	Z+, r20
    412a:	31 50       	subi	r19, 0x01	; 1
    412c:	fb cf       	rjmp	.-10     	; 0x4124 <dtoa_prf+0x148>
    412e:	fc 01       	movw	r30, r24
    4130:	e2 0f       	add	r30, r18
    4132:	f1 1d       	adc	r31, r1
    4134:	10 82       	st	Z, r1
    4136:	8e ef       	ldi	r24, 0xFE	; 254
    4138:	9f ef       	ldi	r25, 0xFF	; 255
    413a:	a6 c0       	rjmp	.+332    	; 0x4288 <dtoa_prf+0x2ac>
    413c:	21 e0       	ldi	r18, 0x01	; 1
    413e:	30 e0       	ldi	r19, 0x00	; 0
    4140:	91 11       	cpse	r25, r1
    4142:	02 c0       	rjmp	.+4      	; 0x4148 <dtoa_prf+0x16c>
    4144:	20 e0       	ldi	r18, 0x00	; 0
    4146:	30 e0       	ldi	r19, 0x00	; 0
    4148:	16 16       	cp	r1, r22
    414a:	17 06       	cpc	r1, r23
    414c:	1c f4       	brge	.+6      	; 0x4154 <dtoa_prf+0x178>
    414e:	fb 01       	movw	r30, r22
    4150:	31 96       	adiw	r30, 0x01	; 1
    4152:	02 c0       	rjmp	.+4      	; 0x4158 <dtoa_prf+0x17c>
    4154:	e1 e0       	ldi	r30, 0x01	; 1
    4156:	f0 e0       	ldi	r31, 0x00	; 0
    4158:	2e 0f       	add	r18, r30
    415a:	3f 1f       	adc	r19, r31
    415c:	bb 20       	and	r11, r11
    415e:	21 f0       	breq	.+8      	; 0x4168 <dtoa_prf+0x18c>
    4160:	eb 2d       	mov	r30, r11
    4162:	f0 e0       	ldi	r31, 0x00	; 0
    4164:	31 96       	adiw	r30, 0x01	; 1
    4166:	02 c0       	rjmp	.+4      	; 0x416c <dtoa_prf+0x190>
    4168:	e0 e0       	ldi	r30, 0x00	; 0
    416a:	f0 e0       	ldi	r31, 0x00	; 0
    416c:	2e 0f       	add	r18, r30
    416e:	3f 1f       	adc	r19, r31
    4170:	e1 2f       	mov	r30, r17
    4172:	f0 e0       	ldi	r31, 0x00	; 0
    4174:	2e 17       	cp	r18, r30
    4176:	3f 07       	cpc	r19, r31
    4178:	1c f4       	brge	.+6      	; 0x4180 <dtoa_prf+0x1a4>
    417a:	12 1b       	sub	r17, r18
    417c:	21 2f       	mov	r18, r17
    417e:	01 c0       	rjmp	.+2      	; 0x4182 <dtoa_prf+0x1a6>
    4180:	20 e0       	ldi	r18, 0x00	; 0
    4182:	8e 2d       	mov	r24, r14
    4184:	88 71       	andi	r24, 0x18	; 24
    4186:	59 f4       	brne	.+22     	; 0x419e <dtoa_prf+0x1c2>
    4188:	f6 01       	movw	r30, r12
    418a:	82 2f       	mov	r24, r18
    418c:	30 e2       	ldi	r19, 0x20	; 32
    418e:	88 23       	and	r24, r24
    4190:	19 f0       	breq	.+6      	; 0x4198 <dtoa_prf+0x1bc>
    4192:	31 93       	st	Z+, r19
    4194:	81 50       	subi	r24, 0x01	; 1
    4196:	fb cf       	rjmp	.-10     	; 0x418e <dtoa_prf+0x1b2>
    4198:	c2 0e       	add	r12, r18
    419a:	d1 1c       	adc	r13, r1
    419c:	20 e0       	ldi	r18, 0x00	; 0
    419e:	99 23       	and	r25, r25
    41a0:	29 f0       	breq	.+10     	; 0x41ac <dtoa_prf+0x1d0>
    41a2:	d6 01       	movw	r26, r12
    41a4:	9c 93       	st	X, r25
    41a6:	f6 01       	movw	r30, r12
    41a8:	31 96       	adiw	r30, 0x01	; 1
    41aa:	6f 01       	movw	r12, r30
    41ac:	51 11       	cpse	r21, r1
    41ae:	0b c0       	rjmp	.+22     	; 0x41c6 <dtoa_prf+0x1ea>
    41b0:	f6 01       	movw	r30, r12
    41b2:	82 2f       	mov	r24, r18
    41b4:	90 e3       	ldi	r25, 0x30	; 48
    41b6:	88 23       	and	r24, r24
    41b8:	19 f0       	breq	.+6      	; 0x41c0 <dtoa_prf+0x1e4>
    41ba:	91 93       	st	Z+, r25
    41bc:	81 50       	subi	r24, 0x01	; 1
    41be:	fb cf       	rjmp	.-10     	; 0x41b6 <dtoa_prf+0x1da>
    41c0:	c2 0e       	add	r12, r18
    41c2:	d1 1c       	adc	r13, r1
    41c4:	20 e0       	ldi	r18, 0x00	; 0
    41c6:	0f 2d       	mov	r16, r15
    41c8:	06 0f       	add	r16, r22
    41ca:	9a 81       	ldd	r25, Y+2	; 0x02
    41cc:	34 2f       	mov	r19, r20
    41ce:	30 71       	andi	r19, 0x10	; 16
    41d0:	44 ff       	sbrs	r20, 4
    41d2:	03 c0       	rjmp	.+6      	; 0x41da <dtoa_prf+0x1fe>
    41d4:	91 33       	cpi	r25, 0x31	; 49
    41d6:	09 f4       	brne	.+2      	; 0x41da <dtoa_prf+0x1fe>
    41d8:	01 50       	subi	r16, 0x01	; 1
    41da:	10 16       	cp	r1, r16
    41dc:	24 f4       	brge	.+8      	; 0x41e6 <dtoa_prf+0x20a>
    41de:	09 30       	cpi	r16, 0x09	; 9
    41e0:	18 f0       	brcs	.+6      	; 0x41e8 <dtoa_prf+0x20c>
    41e2:	08 e0       	ldi	r16, 0x08	; 8
    41e4:	01 c0       	rjmp	.+2      	; 0x41e8 <dtoa_prf+0x20c>
    41e6:	01 e0       	ldi	r16, 0x01	; 1
    41e8:	ab 01       	movw	r20, r22
    41ea:	77 ff       	sbrs	r23, 7
    41ec:	02 c0       	rjmp	.+4      	; 0x41f2 <dtoa_prf+0x216>
    41ee:	40 e0       	ldi	r20, 0x00	; 0
    41f0:	50 e0       	ldi	r21, 0x00	; 0
    41f2:	fb 01       	movw	r30, r22
    41f4:	e4 1b       	sub	r30, r20
    41f6:	f5 0b       	sbc	r31, r21
    41f8:	a1 e0       	ldi	r26, 0x01	; 1
    41fa:	b0 e0       	ldi	r27, 0x00	; 0
    41fc:	ac 0f       	add	r26, r28
    41fe:	bd 1f       	adc	r27, r29
    4200:	ea 0f       	add	r30, r26
    4202:	fb 1f       	adc	r31, r27
    4204:	8e e2       	ldi	r24, 0x2E	; 46
    4206:	a8 2e       	mov	r10, r24
    4208:	4b 01       	movw	r8, r22
    420a:	80 1a       	sub	r8, r16
    420c:	91 08       	sbc	r9, r1
    420e:	0b 2d       	mov	r16, r11
    4210:	10 e0       	ldi	r17, 0x00	; 0
    4212:	11 95       	neg	r17
    4214:	01 95       	neg	r16
    4216:	11 09       	sbc	r17, r1
    4218:	4f 3f       	cpi	r20, 0xFF	; 255
    421a:	bf ef       	ldi	r27, 0xFF	; 255
    421c:	5b 07       	cpc	r21, r27
    421e:	21 f4       	brne	.+8      	; 0x4228 <dtoa_prf+0x24c>
    4220:	d6 01       	movw	r26, r12
    4222:	ac 92       	st	X, r10
    4224:	11 96       	adiw	r26, 0x01	; 1
    4226:	6d 01       	movw	r12, r26
    4228:	64 17       	cp	r22, r20
    422a:	75 07       	cpc	r23, r21
    422c:	2c f0       	brlt	.+10     	; 0x4238 <dtoa_prf+0x25c>
    422e:	84 16       	cp	r8, r20
    4230:	95 06       	cpc	r9, r21
    4232:	14 f4       	brge	.+4      	; 0x4238 <dtoa_prf+0x25c>
    4234:	81 81       	ldd	r24, Z+1	; 0x01
    4236:	01 c0       	rjmp	.+2      	; 0x423a <dtoa_prf+0x25e>
    4238:	80 e3       	ldi	r24, 0x30	; 48
    423a:	41 50       	subi	r20, 0x01	; 1
    423c:	51 09       	sbc	r21, r1
    423e:	31 96       	adiw	r30, 0x01	; 1
    4240:	d6 01       	movw	r26, r12
    4242:	11 96       	adiw	r26, 0x01	; 1
    4244:	7d 01       	movw	r14, r26
    4246:	40 17       	cp	r20, r16
    4248:	51 07       	cpc	r21, r17
    424a:	24 f0       	brlt	.+8      	; 0x4254 <dtoa_prf+0x278>
    424c:	d6 01       	movw	r26, r12
    424e:	8c 93       	st	X, r24
    4250:	67 01       	movw	r12, r14
    4252:	e2 cf       	rjmp	.-60     	; 0x4218 <dtoa_prf+0x23c>
    4254:	64 17       	cp	r22, r20
    4256:	75 07       	cpc	r23, r21
    4258:	39 f4       	brne	.+14     	; 0x4268 <dtoa_prf+0x28c>
    425a:	96 33       	cpi	r25, 0x36	; 54
    425c:	20 f4       	brcc	.+8      	; 0x4266 <dtoa_prf+0x28a>
    425e:	95 33       	cpi	r25, 0x35	; 53
    4260:	19 f4       	brne	.+6      	; 0x4268 <dtoa_prf+0x28c>
    4262:	31 11       	cpse	r19, r1
    4264:	01 c0       	rjmp	.+2      	; 0x4268 <dtoa_prf+0x28c>
    4266:	81 e3       	ldi	r24, 0x31	; 49
    4268:	f6 01       	movw	r30, r12
    426a:	80 83       	st	Z, r24
    426c:	f7 01       	movw	r30, r14
    426e:	82 2f       	mov	r24, r18
    4270:	90 e2       	ldi	r25, 0x20	; 32
    4272:	88 23       	and	r24, r24
    4274:	19 f0       	breq	.+6      	; 0x427c <dtoa_prf+0x2a0>
    4276:	91 93       	st	Z+, r25
    4278:	81 50       	subi	r24, 0x01	; 1
    427a:	fb cf       	rjmp	.-10     	; 0x4272 <dtoa_prf+0x296>
    427c:	f7 01       	movw	r30, r14
    427e:	e2 0f       	add	r30, r18
    4280:	f1 1d       	adc	r31, r1
    4282:	10 82       	st	Z, r1
    4284:	80 e0       	ldi	r24, 0x00	; 0
    4286:	90 e0       	ldi	r25, 0x00	; 0
    4288:	29 96       	adiw	r28, 0x09	; 9
    428a:	ec e0       	ldi	r30, 0x0C	; 12
    428c:	0c 94 96 1d 	jmp	0x3b2c	; 0x3b2c <__epilogue_restores__+0xc>

00004290 <strtod>:
    4290:	a0 e0       	ldi	r26, 0x00	; 0
    4292:	b0 e0       	ldi	r27, 0x00	; 0
    4294:	ee e4       	ldi	r30, 0x4E	; 78
    4296:	f1 e2       	ldi	r31, 0x21	; 33
    4298:	0c 94 7a 1d 	jmp	0x3af4	; 0x3af4 <__prologue_saves__+0xc>
    429c:	ec 01       	movw	r28, r24
    429e:	6b 01       	movw	r12, r22
    42a0:	61 15       	cp	r22, r1
    42a2:	71 05       	cpc	r23, r1
    42a4:	19 f0       	breq	.+6      	; 0x42ac <strtod+0x1c>
    42a6:	fb 01       	movw	r30, r22
    42a8:	91 83       	std	Z+1, r25	; 0x01
    42aa:	80 83       	st	Z, r24
    42ac:	7e 01       	movw	r14, r28
    42ae:	ff ef       	ldi	r31, 0xFF	; 255
    42b0:	ef 1a       	sub	r14, r31
    42b2:	ff 0a       	sbc	r15, r31
    42b4:	08 81       	ld	r16, Y
    42b6:	80 2f       	mov	r24, r16
    42b8:	90 e0       	ldi	r25, 0x00	; 0
    42ba:	0e 94 96 22 	call	0x452c	; 0x452c <isspace>
    42be:	89 2b       	or	r24, r25
    42c0:	11 f0       	breq	.+4      	; 0x42c6 <strtod+0x36>
    42c2:	e7 01       	movw	r28, r14
    42c4:	f3 cf       	rjmp	.-26     	; 0x42ac <strtod+0x1c>
    42c6:	0d 32       	cpi	r16, 0x2D	; 45
    42c8:	39 f4       	brne	.+14     	; 0x42d8 <strtod+0x48>
    42ca:	7e 01       	movw	r14, r28
    42cc:	82 e0       	ldi	r24, 0x02	; 2
    42ce:	e8 0e       	add	r14, r24
    42d0:	f1 1c       	adc	r15, r1
    42d2:	09 81       	ldd	r16, Y+1	; 0x01
    42d4:	11 e0       	ldi	r17, 0x01	; 1
    42d6:	08 c0       	rjmp	.+16     	; 0x42e8 <strtod+0x58>
    42d8:	0b 32       	cpi	r16, 0x2B	; 43
    42da:	29 f4       	brne	.+10     	; 0x42e6 <strtod+0x56>
    42dc:	7e 01       	movw	r14, r28
    42de:	92 e0       	ldi	r25, 0x02	; 2
    42e0:	e9 0e       	add	r14, r25
    42e2:	f1 1c       	adc	r15, r1
    42e4:	09 81       	ldd	r16, Y+1	; 0x01
    42e6:	10 e0       	ldi	r17, 0x00	; 0
    42e8:	e7 01       	movw	r28, r14
    42ea:	21 97       	sbiw	r28, 0x01	; 1
    42ec:	43 e0       	ldi	r20, 0x03	; 3
    42ee:	50 e0       	ldi	r21, 0x00	; 0
    42f0:	66 e8       	ldi	r22, 0x86	; 134
    42f2:	71 e0       	ldi	r23, 0x01	; 1
    42f4:	ce 01       	movw	r24, r28
    42f6:	0e 94 9f 22 	call	0x453e	; 0x453e <strncasecmp_P>
    42fa:	89 2b       	or	r24, r25
    42fc:	c1 f4       	brne	.+48     	; 0x432e <strtod+0x9e>
    42fe:	23 96       	adiw	r28, 0x03	; 3
    4300:	45 e0       	ldi	r20, 0x05	; 5
    4302:	50 e0       	ldi	r21, 0x00	; 0
    4304:	61 e8       	ldi	r22, 0x81	; 129
    4306:	71 e0       	ldi	r23, 0x01	; 1
    4308:	ce 01       	movw	r24, r28
    430a:	0e 94 9f 22 	call	0x453e	; 0x453e <strncasecmp_P>
    430e:	89 2b       	or	r24, r25
    4310:	09 f4       	brne	.+2      	; 0x4314 <strtod+0x84>
    4312:	25 96       	adiw	r28, 0x05	; 5
    4314:	c1 14       	cp	r12, r1
    4316:	d1 04       	cpc	r13, r1
    4318:	19 f0       	breq	.+6      	; 0x4320 <strtod+0x90>
    431a:	f6 01       	movw	r30, r12
    431c:	d1 83       	std	Z+1, r29	; 0x01
    431e:	c0 83       	st	Z, r28
    4320:	11 11       	cpse	r17, r1
    4322:	f6 c0       	rjmp	.+492    	; 0x4510 <strtod+0x280>
    4324:	60 e0       	ldi	r22, 0x00	; 0
    4326:	70 e0       	ldi	r23, 0x00	; 0
    4328:	80 e8       	ldi	r24, 0x80	; 128
    432a:	9f e7       	ldi	r25, 0x7F	; 127
    432c:	fa c0       	rjmp	.+500    	; 0x4522 <strtod+0x292>
    432e:	43 e0       	ldi	r20, 0x03	; 3
    4330:	50 e0       	ldi	r21, 0x00	; 0
    4332:	6e e7       	ldi	r22, 0x7E	; 126
    4334:	71 e0       	ldi	r23, 0x01	; 1
    4336:	ce 01       	movw	r24, r28
    4338:	0e 94 9f 22 	call	0x453e	; 0x453e <strncasecmp_P>
    433c:	89 2b       	or	r24, r25
    433e:	59 f4       	brne	.+22     	; 0x4356 <strtod+0xc6>
    4340:	c1 14       	cp	r12, r1
    4342:	d1 04       	cpc	r13, r1
    4344:	09 f4       	brne	.+2      	; 0x4348 <strtod+0xb8>
    4346:	e9 c0       	rjmp	.+466    	; 0x451a <strtod+0x28a>
    4348:	f2 e0       	ldi	r31, 0x02	; 2
    434a:	ef 0e       	add	r14, r31
    434c:	f1 1c       	adc	r15, r1
    434e:	f6 01       	movw	r30, r12
    4350:	f1 82       	std	Z+1, r15	; 0x01
    4352:	e0 82       	st	Z, r14
    4354:	e2 c0       	rjmp	.+452    	; 0x451a <strtod+0x28a>
    4356:	20 e0       	ldi	r18, 0x00	; 0
    4358:	30 e0       	ldi	r19, 0x00	; 0
    435a:	a9 01       	movw	r20, r18
    435c:	c0 e0       	ldi	r28, 0x00	; 0
    435e:	d0 e0       	ldi	r29, 0x00	; 0
    4360:	f7 01       	movw	r30, r14
    4362:	80 ed       	ldi	r24, 0xD0	; 208
    4364:	a8 2e       	mov	r10, r24
    4366:	a0 0e       	add	r10, r16
    4368:	89 e0       	ldi	r24, 0x09	; 9
    436a:	8a 15       	cp	r24, r10
    436c:	30 f1       	brcs	.+76     	; 0x43ba <strtod+0x12a>
    436e:	91 2f       	mov	r25, r17
    4370:	92 60       	ori	r25, 0x02	; 2
    4372:	b9 2e       	mov	r11, r25
    4374:	81 2f       	mov	r24, r17
    4376:	88 70       	andi	r24, 0x08	; 8
    4378:	12 ff       	sbrs	r17, 2
    437a:	04 c0       	rjmp	.+8      	; 0x4384 <strtod+0xf4>
    437c:	81 11       	cpse	r24, r1
    437e:	24 c0       	rjmp	.+72     	; 0x43c8 <strtod+0x138>
    4380:	21 96       	adiw	r28, 0x01	; 1
    4382:	22 c0       	rjmp	.+68     	; 0x43c8 <strtod+0x138>
    4384:	81 11       	cpse	r24, r1
    4386:	21 97       	sbiw	r28, 0x01	; 1
    4388:	a5 e0       	ldi	r26, 0x05	; 5
    438a:	b0 e0       	ldi	r27, 0x00	; 0
    438c:	0e 94 61 1d 	call	0x3ac2	; 0x3ac2 <__muluhisi3>
    4390:	dc 01       	movw	r26, r24
    4392:	cb 01       	movw	r24, r22
    4394:	88 0f       	add	r24, r24
    4396:	99 1f       	adc	r25, r25
    4398:	aa 1f       	adc	r26, r26
    439a:	bb 1f       	adc	r27, r27
    439c:	9c 01       	movw	r18, r24
    439e:	ad 01       	movw	r20, r26
    43a0:	2a 0d       	add	r18, r10
    43a2:	31 1d       	adc	r19, r1
    43a4:	41 1d       	adc	r20, r1
    43a6:	51 1d       	adc	r21, r1
    43a8:	28 39       	cpi	r18, 0x98	; 152
    43aa:	89 e9       	ldi	r24, 0x99	; 153
    43ac:	38 07       	cpc	r19, r24
    43ae:	48 07       	cpc	r20, r24
    43b0:	89 e1       	ldi	r24, 0x19	; 25
    43b2:	58 07       	cpc	r21, r24
    43b4:	48 f0       	brcs	.+18     	; 0x43c8 <strtod+0x138>
    43b6:	16 60       	ori	r17, 0x06	; 6
    43b8:	06 c0       	rjmp	.+12     	; 0x43c6 <strtod+0x136>
    43ba:	9e ef       	ldi	r25, 0xFE	; 254
    43bc:	a9 12       	cpse	r10, r25
    43be:	0a c0       	rjmp	.+20     	; 0x43d4 <strtod+0x144>
    43c0:	13 fd       	sbrc	r17, 3
    43c2:	40 c0       	rjmp	.+128    	; 0x4444 <strtod+0x1b4>
    43c4:	18 60       	ori	r17, 0x08	; 8
    43c6:	b1 2e       	mov	r11, r17
    43c8:	8f ef       	ldi	r24, 0xFF	; 255
    43ca:	e8 1a       	sub	r14, r24
    43cc:	f8 0a       	sbc	r15, r24
    43ce:	00 81       	ld	r16, Z
    43d0:	1b 2d       	mov	r17, r11
    43d2:	c6 cf       	rjmp	.-116    	; 0x4360 <strtod+0xd0>
    43d4:	80 2f       	mov	r24, r16
    43d6:	8f 7d       	andi	r24, 0xDF	; 223
    43d8:	85 34       	cpi	r24, 0x45	; 69
    43da:	a1 f5       	brne	.+104    	; 0x4444 <strtod+0x1b4>
    43dc:	80 81       	ld	r24, Z
    43de:	8d 32       	cpi	r24, 0x2D	; 45
    43e0:	11 f4       	brne	.+4      	; 0x43e6 <strtod+0x156>
    43e2:	10 61       	ori	r17, 0x10	; 16
    43e4:	06 c0       	rjmp	.+12     	; 0x43f2 <strtod+0x162>
    43e6:	8b 32       	cpi	r24, 0x2B	; 43
    43e8:	21 f0       	breq	.+8      	; 0x43f2 <strtod+0x162>
    43ea:	31 96       	adiw	r30, 0x01	; 1
    43ec:	61 e0       	ldi	r22, 0x01	; 1
    43ee:	70 e0       	ldi	r23, 0x00	; 0
    43f0:	04 c0       	rjmp	.+8      	; 0x43fa <strtod+0x16a>
    43f2:	81 81       	ldd	r24, Z+1	; 0x01
    43f4:	32 96       	adiw	r30, 0x02	; 2
    43f6:	62 e0       	ldi	r22, 0x02	; 2
    43f8:	70 e0       	ldi	r23, 0x00	; 0
    43fa:	80 53       	subi	r24, 0x30	; 48
    43fc:	8a 30       	cpi	r24, 0x0A	; 10
    43fe:	18 f0       	brcs	.+6      	; 0x4406 <strtod+0x176>
    4400:	e6 1b       	sub	r30, r22
    4402:	f7 0b       	sbc	r31, r23
    4404:	1f c0       	rjmp	.+62     	; 0x4444 <strtod+0x1b4>
    4406:	60 e0       	ldi	r22, 0x00	; 0
    4408:	70 e0       	ldi	r23, 0x00	; 0
    440a:	60 38       	cpi	r22, 0x80	; 128
    440c:	9c e0       	ldi	r25, 0x0C	; 12
    440e:	79 07       	cpc	r23, r25
    4410:	5c f4       	brge	.+22     	; 0x4428 <strtod+0x198>
    4412:	db 01       	movw	r26, r22
    4414:	aa 0f       	add	r26, r26
    4416:	bb 1f       	adc	r27, r27
    4418:	aa 0f       	add	r26, r26
    441a:	bb 1f       	adc	r27, r27
    441c:	6a 0f       	add	r22, r26
    441e:	7b 1f       	adc	r23, r27
    4420:	66 0f       	add	r22, r22
    4422:	77 1f       	adc	r23, r23
    4424:	68 0f       	add	r22, r24
    4426:	71 1d       	adc	r23, r1
    4428:	31 96       	adiw	r30, 0x01	; 1
    442a:	df 01       	movw	r26, r30
    442c:	11 97       	sbiw	r26, 0x01	; 1
    442e:	8c 91       	ld	r24, X
    4430:	80 53       	subi	r24, 0x30	; 48
    4432:	8a 30       	cpi	r24, 0x0A	; 10
    4434:	50 f3       	brcs	.-44     	; 0x440a <strtod+0x17a>
    4436:	14 ff       	sbrs	r17, 4
    4438:	03 c0       	rjmp	.+6      	; 0x4440 <strtod+0x1b0>
    443a:	71 95       	neg	r23
    443c:	61 95       	neg	r22
    443e:	71 09       	sbc	r23, r1
    4440:	c6 0f       	add	r28, r22
    4442:	d7 1f       	adc	r29, r23
    4444:	11 ff       	sbrs	r17, 1
    4446:	08 c0       	rjmp	.+16     	; 0x4458 <strtod+0x1c8>
    4448:	c1 14       	cp	r12, r1
    444a:	d1 04       	cpc	r13, r1
    444c:	29 f0       	breq	.+10     	; 0x4458 <strtod+0x1c8>
    444e:	cf 01       	movw	r24, r30
    4450:	01 97       	sbiw	r24, 0x01	; 1
    4452:	f6 01       	movw	r30, r12
    4454:	91 83       	std	Z+1, r25	; 0x01
    4456:	80 83       	st	Z, r24
    4458:	ca 01       	movw	r24, r20
    445a:	b9 01       	movw	r22, r18
    445c:	0e 94 cc 22 	call	0x4598	; 0x4598 <__floatunsisf>
    4460:	21 2f       	mov	r18, r17
    4462:	23 70       	andi	r18, 0x03	; 3
    4464:	23 30       	cpi	r18, 0x03	; 3
    4466:	19 f0       	breq	.+6      	; 0x446e <strtod+0x1de>
    4468:	4b 01       	movw	r8, r22
    446a:	5c 01       	movw	r10, r24
    446c:	06 c0       	rjmp	.+12     	; 0x447a <strtod+0x1ea>
    446e:	4b 01       	movw	r8, r22
    4470:	5c 01       	movw	r10, r24
    4472:	b7 fa       	bst	r11, 7
    4474:	b0 94       	com	r11
    4476:	b7 f8       	bld	r11, 7
    4478:	b0 94       	com	r11
    447a:	20 e0       	ldi	r18, 0x00	; 0
    447c:	30 e0       	ldi	r19, 0x00	; 0
    447e:	a9 01       	movw	r20, r18
    4480:	c5 01       	movw	r24, r10
    4482:	b4 01       	movw	r22, r8
    4484:	0e 94 c7 22 	call	0x458e	; 0x458e <__cmpsf2>
    4488:	88 23       	and	r24, r24
    448a:	09 f4       	brne	.+2      	; 0x448e <strtod+0x1fe>
    448c:	3e c0       	rjmp	.+124    	; 0x450a <strtod+0x27a>
    448e:	d7 ff       	sbrs	r29, 7
    4490:	06 c0       	rjmp	.+12     	; 0x449e <strtod+0x20e>
    4492:	d1 95       	neg	r29
    4494:	c1 95       	neg	r28
    4496:	d1 09       	sbc	r29, r1
    4498:	0d e9       	ldi	r16, 0x9D	; 157
    449a:	11 e0       	ldi	r17, 0x01	; 1
    449c:	02 c0       	rjmp	.+4      	; 0x44a2 <strtod+0x212>
    449e:	05 eb       	ldi	r16, 0xB5	; 181
    44a0:	11 e0       	ldi	r17, 0x01	; 1
    44a2:	68 01       	movw	r12, r16
    44a4:	f8 e1       	ldi	r31, 0x18	; 24
    44a6:	cf 1a       	sub	r12, r31
    44a8:	d1 08       	sbc	r13, r1
    44aa:	90 e2       	ldi	r25, 0x20	; 32
    44ac:	e9 2e       	mov	r14, r25
    44ae:	f1 2c       	mov	r15, r1
    44b0:	ce 15       	cp	r28, r14
    44b2:	df 05       	cpc	r29, r15
    44b4:	74 f0       	brlt	.+28     	; 0x44d2 <strtod+0x242>
    44b6:	f8 01       	movw	r30, r16
    44b8:	25 91       	lpm	r18, Z+
    44ba:	35 91       	lpm	r19, Z+
    44bc:	45 91       	lpm	r20, Z+
    44be:	54 91       	lpm	r21, Z
    44c0:	c5 01       	movw	r24, r10
    44c2:	b4 01       	movw	r22, r8
    44c4:	0e 94 aa 10 	call	0x2154	; 0x2154 <__mulsf3>
    44c8:	4b 01       	movw	r8, r22
    44ca:	5c 01       	movw	r10, r24
    44cc:	ce 19       	sub	r28, r14
    44ce:	df 09       	sbc	r29, r15
    44d0:	ef cf       	rjmp	.-34     	; 0x44b0 <strtod+0x220>
    44d2:	04 50       	subi	r16, 0x04	; 4
    44d4:	11 09       	sbc	r17, r1
    44d6:	f5 94       	asr	r15
    44d8:	e7 94       	ror	r14
    44da:	0c 15       	cp	r16, r12
    44dc:	1d 05       	cpc	r17, r13
    44de:	41 f7       	brne	.-48     	; 0x44b0 <strtod+0x220>
    44e0:	8a 2d       	mov	r24, r10
    44e2:	88 0f       	add	r24, r24
    44e4:	8b 2d       	mov	r24, r11
    44e6:	88 1f       	adc	r24, r24
    44e8:	8f 3f       	cpi	r24, 0xFF	; 255
    44ea:	49 f0       	breq	.+18     	; 0x44fe <strtod+0x26e>
    44ec:	20 e0       	ldi	r18, 0x00	; 0
    44ee:	30 e0       	ldi	r19, 0x00	; 0
    44f0:	a9 01       	movw	r20, r18
    44f2:	c5 01       	movw	r24, r10
    44f4:	b4 01       	movw	r22, r8
    44f6:	0e 94 c7 22 	call	0x458e	; 0x458e <__cmpsf2>
    44fa:	81 11       	cpse	r24, r1
    44fc:	06 c0       	rjmp	.+12     	; 0x450a <strtod+0x27a>
    44fe:	82 e2       	ldi	r24, 0x22	; 34
    4500:	90 e0       	ldi	r25, 0x00	; 0
    4502:	90 93 27 05 	sts	0x0527, r25	; 0x800527 <errno+0x1>
    4506:	80 93 26 05 	sts	0x0526, r24	; 0x800526 <errno>
    450a:	c5 01       	movw	r24, r10
    450c:	b4 01       	movw	r22, r8
    450e:	09 c0       	rjmp	.+18     	; 0x4522 <strtod+0x292>
    4510:	60 e0       	ldi	r22, 0x00	; 0
    4512:	70 e0       	ldi	r23, 0x00	; 0
    4514:	80 e8       	ldi	r24, 0x80	; 128
    4516:	9f ef       	ldi	r25, 0xFF	; 255
    4518:	04 c0       	rjmp	.+8      	; 0x4522 <strtod+0x292>
    451a:	60 e0       	ldi	r22, 0x00	; 0
    451c:	70 e0       	ldi	r23, 0x00	; 0
    451e:	80 ec       	ldi	r24, 0xC0	; 192
    4520:	9f e7       	ldi	r25, 0x7F	; 127
    4522:	cd b7       	in	r28, 0x3d	; 61
    4524:	de b7       	in	r29, 0x3e	; 62
    4526:	ec e0       	ldi	r30, 0x0C	; 12
    4528:	0c 94 96 1d 	jmp	0x3b2c	; 0x3b2c <__epilogue_restores__+0xc>

0000452c <isspace>:
    452c:	91 11       	cpse	r25, r1
    452e:	0c 94 2d 23 	jmp	0x465a	; 0x465a <__ctype_isfalse>
    4532:	80 32       	cpi	r24, 0x20	; 32
    4534:	19 f0       	breq	.+6      	; 0x453c <isspace+0x10>
    4536:	89 50       	subi	r24, 0x09	; 9
    4538:	85 50       	subi	r24, 0x05	; 5
    453a:	c8 f7       	brcc	.-14     	; 0x452e <isspace+0x2>
    453c:	08 95       	ret

0000453e <strncasecmp_P>:
    453e:	fb 01       	movw	r30, r22
    4540:	dc 01       	movw	r26, r24
    4542:	41 50       	subi	r20, 0x01	; 1
    4544:	50 40       	sbci	r21, 0x00	; 0
    4546:	88 f0       	brcs	.+34     	; 0x456a <strncasecmp_P+0x2c>
    4548:	8d 91       	ld	r24, X+
    454a:	81 34       	cpi	r24, 0x41	; 65
    454c:	1c f0       	brlt	.+6      	; 0x4554 <strncasecmp_P+0x16>
    454e:	8b 35       	cpi	r24, 0x5B	; 91
    4550:	0c f4       	brge	.+2      	; 0x4554 <strncasecmp_P+0x16>
    4552:	80 5e       	subi	r24, 0xE0	; 224
    4554:	65 91       	lpm	r22, Z+
    4556:	61 34       	cpi	r22, 0x41	; 65
    4558:	1c f0       	brlt	.+6      	; 0x4560 <strncasecmp_P+0x22>
    455a:	6b 35       	cpi	r22, 0x5B	; 91
    455c:	0c f4       	brge	.+2      	; 0x4560 <strncasecmp_P+0x22>
    455e:	60 5e       	subi	r22, 0xE0	; 224
    4560:	86 1b       	sub	r24, r22
    4562:	61 11       	cpse	r22, r1
    4564:	71 f3       	breq	.-36     	; 0x4542 <strncasecmp_P+0x4>
    4566:	99 0b       	sbc	r25, r25
    4568:	08 95       	ret
    456a:	88 1b       	sub	r24, r24
    456c:	fc cf       	rjmp	.-8      	; 0x4566 <strncasecmp_P+0x28>

0000456e <strrev>:
    456e:	dc 01       	movw	r26, r24
    4570:	fc 01       	movw	r30, r24
    4572:	67 2f       	mov	r22, r23
    4574:	71 91       	ld	r23, Z+
    4576:	77 23       	and	r23, r23
    4578:	e1 f7       	brne	.-8      	; 0x4572 <strrev+0x4>
    457a:	32 97       	sbiw	r30, 0x02	; 2
    457c:	04 c0       	rjmp	.+8      	; 0x4586 <strrev+0x18>
    457e:	7c 91       	ld	r23, X
    4580:	6d 93       	st	X+, r22
    4582:	70 83       	st	Z, r23
    4584:	62 91       	ld	r22, -Z
    4586:	ae 17       	cp	r26, r30
    4588:	bf 07       	cpc	r27, r31
    458a:	c8 f3       	brcs	.-14     	; 0x457e <strrev+0x10>
    458c:	08 95       	ret

0000458e <__cmpsf2>:
    458e:	0e 94 09 23 	call	0x4612	; 0x4612 <__fp_cmp>
    4592:	08 f4       	brcc	.+2      	; 0x4596 <__cmpsf2+0x8>
    4594:	81 e0       	ldi	r24, 0x01	; 1
    4596:	08 95       	ret

00004598 <__floatunsisf>:
    4598:	e8 94       	clt
    459a:	09 c0       	rjmp	.+18     	; 0x45ae <__floatsisf+0x12>

0000459c <__floatsisf>:
    459c:	97 fb       	bst	r25, 7
    459e:	3e f4       	brtc	.+14     	; 0x45ae <__floatsisf+0x12>
    45a0:	90 95       	com	r25
    45a2:	80 95       	com	r24
    45a4:	70 95       	com	r23
    45a6:	61 95       	neg	r22
    45a8:	7f 4f       	sbci	r23, 0xFF	; 255
    45aa:	8f 4f       	sbci	r24, 0xFF	; 255
    45ac:	9f 4f       	sbci	r25, 0xFF	; 255
    45ae:	99 23       	and	r25, r25
    45b0:	a9 f0       	breq	.+42     	; 0x45dc <__floatsisf+0x40>
    45b2:	f9 2f       	mov	r31, r25
    45b4:	96 e9       	ldi	r25, 0x96	; 150
    45b6:	bb 27       	eor	r27, r27
    45b8:	93 95       	inc	r25
    45ba:	f6 95       	lsr	r31
    45bc:	87 95       	ror	r24
    45be:	77 95       	ror	r23
    45c0:	67 95       	ror	r22
    45c2:	b7 95       	ror	r27
    45c4:	f1 11       	cpse	r31, r1
    45c6:	f8 cf       	rjmp	.-16     	; 0x45b8 <__floatsisf+0x1c>
    45c8:	fa f4       	brpl	.+62     	; 0x4608 <__floatsisf+0x6c>
    45ca:	bb 0f       	add	r27, r27
    45cc:	11 f4       	brne	.+4      	; 0x45d2 <__floatsisf+0x36>
    45ce:	60 ff       	sbrs	r22, 0
    45d0:	1b c0       	rjmp	.+54     	; 0x4608 <__floatsisf+0x6c>
    45d2:	6f 5f       	subi	r22, 0xFF	; 255
    45d4:	7f 4f       	sbci	r23, 0xFF	; 255
    45d6:	8f 4f       	sbci	r24, 0xFF	; 255
    45d8:	9f 4f       	sbci	r25, 0xFF	; 255
    45da:	16 c0       	rjmp	.+44     	; 0x4608 <__floatsisf+0x6c>
    45dc:	88 23       	and	r24, r24
    45de:	11 f0       	breq	.+4      	; 0x45e4 <__floatsisf+0x48>
    45e0:	96 e9       	ldi	r25, 0x96	; 150
    45e2:	11 c0       	rjmp	.+34     	; 0x4606 <__floatsisf+0x6a>
    45e4:	77 23       	and	r23, r23
    45e6:	21 f0       	breq	.+8      	; 0x45f0 <__floatsisf+0x54>
    45e8:	9e e8       	ldi	r25, 0x8E	; 142
    45ea:	87 2f       	mov	r24, r23
    45ec:	76 2f       	mov	r23, r22
    45ee:	05 c0       	rjmp	.+10     	; 0x45fa <__floatsisf+0x5e>
    45f0:	66 23       	and	r22, r22
    45f2:	71 f0       	breq	.+28     	; 0x4610 <__floatsisf+0x74>
    45f4:	96 e8       	ldi	r25, 0x86	; 134
    45f6:	86 2f       	mov	r24, r22
    45f8:	70 e0       	ldi	r23, 0x00	; 0
    45fa:	60 e0       	ldi	r22, 0x00	; 0
    45fc:	2a f0       	brmi	.+10     	; 0x4608 <__floatsisf+0x6c>
    45fe:	9a 95       	dec	r25
    4600:	66 0f       	add	r22, r22
    4602:	77 1f       	adc	r23, r23
    4604:	88 1f       	adc	r24, r24
    4606:	da f7       	brpl	.-10     	; 0x45fe <__floatsisf+0x62>
    4608:	88 0f       	add	r24, r24
    460a:	96 95       	lsr	r25
    460c:	87 95       	ror	r24
    460e:	97 f9       	bld	r25, 7
    4610:	08 95       	ret

00004612 <__fp_cmp>:
    4612:	99 0f       	add	r25, r25
    4614:	00 08       	sbc	r0, r0
    4616:	55 0f       	add	r21, r21
    4618:	aa 0b       	sbc	r26, r26
    461a:	e0 e8       	ldi	r30, 0x80	; 128
    461c:	fe ef       	ldi	r31, 0xFE	; 254
    461e:	16 16       	cp	r1, r22
    4620:	17 06       	cpc	r1, r23
    4622:	e8 07       	cpc	r30, r24
    4624:	f9 07       	cpc	r31, r25
    4626:	c0 f0       	brcs	.+48     	; 0x4658 <__fp_cmp+0x46>
    4628:	12 16       	cp	r1, r18
    462a:	13 06       	cpc	r1, r19
    462c:	e4 07       	cpc	r30, r20
    462e:	f5 07       	cpc	r31, r21
    4630:	98 f0       	brcs	.+38     	; 0x4658 <__fp_cmp+0x46>
    4632:	62 1b       	sub	r22, r18
    4634:	73 0b       	sbc	r23, r19
    4636:	84 0b       	sbc	r24, r20
    4638:	95 0b       	sbc	r25, r21
    463a:	39 f4       	brne	.+14     	; 0x464a <__fp_cmp+0x38>
    463c:	0a 26       	eor	r0, r26
    463e:	61 f0       	breq	.+24     	; 0x4658 <__fp_cmp+0x46>
    4640:	23 2b       	or	r18, r19
    4642:	24 2b       	or	r18, r20
    4644:	25 2b       	or	r18, r21
    4646:	21 f4       	brne	.+8      	; 0x4650 <__fp_cmp+0x3e>
    4648:	08 95       	ret
    464a:	0a 26       	eor	r0, r26
    464c:	09 f4       	brne	.+2      	; 0x4650 <__fp_cmp+0x3e>
    464e:	a1 40       	sbci	r26, 0x01	; 1
    4650:	a6 95       	lsr	r26
    4652:	8f ef       	ldi	r24, 0xFF	; 255
    4654:	81 1d       	adc	r24, r1
    4656:	81 1d       	adc	r24, r1
    4658:	08 95       	ret

0000465a <__ctype_isfalse>:
    465a:	99 27       	eor	r25, r25
    465c:	88 27       	eor	r24, r24

0000465e <__ctype_istrue>:
    465e:	08 95       	ret

00004660 <eeprom_read_block>:
    4660:	dc 01       	movw	r26, r24
    4662:	cb 01       	movw	r24, r22

00004664 <eeprom_read_blraw>:
    4664:	fc 01       	movw	r30, r24
    4666:	f9 99       	sbic	0x1f, 1	; 31
    4668:	fe cf       	rjmp	.-4      	; 0x4666 <eeprom_read_blraw+0x2>
    466a:	06 c0       	rjmp	.+12     	; 0x4678 <eeprom_read_blraw+0x14>
    466c:	f2 bd       	out	0x22, r31	; 34
    466e:	e1 bd       	out	0x21, r30	; 33
    4670:	f8 9a       	sbi	0x1f, 0	; 31
    4672:	31 96       	adiw	r30, 0x01	; 1
    4674:	00 b4       	in	r0, 0x20	; 32
    4676:	0d 92       	st	X+, r0
    4678:	41 50       	subi	r20, 0x01	; 1
    467a:	50 40       	sbci	r21, 0x00	; 0
    467c:	b8 f7       	brcc	.-18     	; 0x466c <eeprom_read_blraw+0x8>
    467e:	08 95       	ret

00004680 <_exit>:
    4680:	f8 94       	cli

00004682 <__stop_program>:
    4682:	ff cf       	rjmp	.-2      	; 0x4682 <__stop_program>
