
04 Maze Solver I.elf:     file format elf32-avr

Sections:
Idx Name          Size      VMA       LMA       File off  Algn
  0 .data         0000004a  00800100  0000330e  000033c2  2**0
                  CONTENTS, ALLOC, LOAD, DATA
  1 .text         0000330e  00000000  00000000  000000b4  2**1
                  CONTENTS, ALLOC, LOAD, READONLY, CODE
  2 .bss          00000137  0080014a  0080014a  0000340c  2**0
                  ALLOC
  3 .eeprom       0000000a  00810000  00810000  0000340c  2**0
                  CONTENTS, ALLOC, LOAD, DATA
  4 .comment      0000005c  00000000  00000000  00003416  2**0
                  CONTENTS, READONLY
  5 .note.gnu.avr.deviceinfo 00000040  00000000  00000000  00003474  2**2
                  CONTENTS, READONLY
  6 .debug_aranges 000004a0  00000000  00000000  000034b8  2**3
                  CONTENTS, READONLY, DEBUGGING
  7 .debug_info   00006611  00000000  00000000  00003958  2**0
                  CONTENTS, READONLY, DEBUGGING
  8 .debug_abbrev 00001d03  00000000  00000000  00009f69  2**0
                  CONTENTS, READONLY, DEBUGGING
  9 .debug_line   00002d66  00000000  00000000  0000bc6c  2**0
                  CONTENTS, READONLY, DEBUGGING
 10 .debug_frame  00000d90  00000000  00000000  0000e9d4  2**2
                  CONTENTS, READONLY, DEBUGGING
 11 .debug_str    00001361  00000000  00000000  0000f764  2**0
                  CONTENTS, READONLY, DEBUGGING
 12 .debug_loc    0000379e  00000000  00000000  00010ac5  2**0
                  CONTENTS, READONLY, DEBUGGING
 13 .debug_ranges 000003c8  00000000  00000000  00014263  2**0
                  CONTENTS, READONLY, DEBUGGING

Disassembly of section .text:

00000000 <__vectors>:
       0:	0c 94 82 02 	jmp	0x504	; 0x504 <__ctors_end>
       4:	0c 94 81 0a 	jmp	0x1502	; 0x1502 <__vector_1>
       8:	0c 94 ad 0a 	jmp	0x155a	; 0x155a <__vector_2>
       c:	0c 94 9f 02 	jmp	0x53e	; 0x53e <__bad_interrupt>
      10:	0c 94 9f 02 	jmp	0x53e	; 0x53e <__bad_interrupt>
      14:	0c 94 9f 02 	jmp	0x53e	; 0x53e <__bad_interrupt>
      18:	0c 94 9f 02 	jmp	0x53e	; 0x53e <__bad_interrupt>
      1c:	0c 94 9f 02 	jmp	0x53e	; 0x53e <__bad_interrupt>
      20:	0c 94 9f 02 	jmp	0x53e	; 0x53e <__bad_interrupt>
      24:	0c 94 9f 02 	jmp	0x53e	; 0x53e <__bad_interrupt>
      28:	0c 94 9f 02 	jmp	0x53e	; 0x53e <__bad_interrupt>
      2c:	0c 94 9f 02 	jmp	0x53e	; 0x53e <__bad_interrupt>
      30:	0c 94 9f 02 	jmp	0x53e	; 0x53e <__bad_interrupt>
      34:	0c 94 9f 02 	jmp	0x53e	; 0x53e <__bad_interrupt>
      38:	0c 94 9f 02 	jmp	0x53e	; 0x53e <__bad_interrupt>
      3c:	0c 94 9f 02 	jmp	0x53e	; 0x53e <__bad_interrupt>
      40:	0c 94 45 11 	jmp	0x228a	; 0x228a <__vector_16>
      44:	0c 94 9f 02 	jmp	0x53e	; 0x53e <__bad_interrupt>
      48:	0c 94 9f 02 	jmp	0x53e	; 0x53e <__bad_interrupt>
      4c:	0c 94 9f 02 	jmp	0x53e	; 0x53e <__bad_interrupt>
      50:	0c 94 55 12 	jmp	0x24aa	; 0x24aa <__vector_20>
      54:	0c 94 83 12 	jmp	0x2506	; 0x2506 <__vector_21>
      58:	0c 94 9f 02 	jmp	0x53e	; 0x53e <__bad_interrupt>
      5c:	0c 94 9f 02 	jmp	0x53e	; 0x53e <__bad_interrupt>
      60:	0c 94 9f 02 	jmp	0x53e	; 0x53e <__bad_interrupt>
      64:	0c 94 9f 02 	jmp	0x53e	; 0x53e <__bad_interrupt>
      68:	0c 94 9f 02 	jmp	0x53e	; 0x53e <__bad_interrupt>
      6c:	0c 94 9f 02 	jmp	0x53e	; 0x53e <__bad_interrupt>
      70:	0c 94 ed 12 	jmp	0x25da	; 0x25da <__vector_28>
      74:	0c 94 1b 13 	jmp	0x2636	; 0x2636 <__vector_29>
      78:	0c 94 9f 02 	jmp	0x53e	; 0x53e <__bad_interrupt>
      7c:	d0 08       	sbc	r13, r0
      7e:	f7 08       	sbc	r15, r7
      80:	04 09       	sbc	r16, r4
      82:	11 09       	sbc	r17, r1
      84:	ea 08       	sbc	r14, r10
      86:	1e 09       	sbc	r17, r14
      88:	2b 09       	sbc	r18, r11
      8a:	dd 08       	sbc	r13, r13
      8c:	62 09       	sbc	r22, r2
      8e:	5c 09       	sbc	r21, r12
      90:	5e 09       	sbc	r21, r14
      92:	58 09       	sbc	r21, r8
      94:	5a 09       	sbc	r21, r10
      96:	54 09       	sbc	r21, r4
      98:	56 09       	sbc	r21, r6
      9a:	52 09       	sbc	r21, r2

0000009c <__trampolines_end>:
      9c:	6e 61       	ori	r22, 0x1E	; 30
      9e:	6e 00       	.word	0x006e	; ????

000000a0 <__c.2332>:
      a0:	69 6e 66 00 00 40 7a 10 f3 5a 00 a0 72 4e 18 09     inf..@z..Z..rN..
      b0:	00 10 a5 d4 e8 00 00 e8 76 48 17 00 00 e4 0b 54     ........vH.....T
      c0:	02 00 00 ca 9a 3b 00 00 00 e1 f5 05 00 00 80 96     .....;..........
      d0:	98 00 00 00 40 42 0f 00 00 00 a0 86 01 00 00 00     ....@B..........
      e0:	10 27 00 00 00 00 e8 03 00 00 00 00 64 00 00 00     .'..........d...
      f0:	00 00 0a 00 00 00 00 00 01 00 00 00 00 00 2c 76     ..............,v
     100:	d8 88 dc 67 4f 08 23 df c1 df ae 59 e1 b1 b7 96     ...gO.#....Y....
     110:	e5 e3 e4 53 c6 3a e6 51 99 76 96 e8 e6 c2 84 26     ...S.:.Q.v.....&
     120:	eb 89 8c 9b 62 ed 40 7c 6f fc ef bc 9c 9f 40 f2     ....b.@|o.....@.
     130:	ba a5 6f a5 f4 90 05 5a 2a f7 5c 93 6b 6c f9 67     ..o....Z*.\.kl.g
     140:	6d c1 1b fc e0 e4 0d 47 fe f5 20 e6 b5 00 d0 ed     m......G.. .....
     150:	90 2e 03 00 94 35 77 05 00 80 84 1e 08 00 00 20     .....5w........ 
     160:	4e 0a 00 00 00 c8 0c 33 33 33 33 0f 98 6e 12 83     N......3333..n..
     170:	11 41 ef 8d 21 14 89 3b e6 55 16 cf fe e6 db 18     .A..!..;.U......
     180:	d1 84 4b 38 1b f7 7c 1d 90 1d a4 bb e4 24 20 32     ..K8..|......$ 2
     190:	84 72 5e 22 81 00 c9 f1 24 ec a1 e5 3d 27           .r^"....$...='

0000019e <__c.2724>:
     19e:	42 61 74 74 3a 25 69 00                             Batt:%i.

000001a6 <__c.2722>:
     1a6:	55 6e 6b 6e 6f 77 6e 20 45 72 72 6f 72 00           Unknown Error.

000001b4 <__c.2719>:
     1b4:	50 61 74 68 20 4d 65 6d 6f 72 79 20 46 75 6c 6c     Path Memory Full
     1c4:	2e 00                                               ..

000001c6 <__c.2716>:
     1c6:	49 6e 74 65 72 73 65 63 74 69 6f 6e 20 52 65 61     Intersection Rea
     1d6:	64 2d 45 72 72 6f 72 2e 00                          d-Error..

000001df <__c.2712>:
     1df:	49 6e 74 65 72 73 65 63 74 69 6f 6e 20 64 6f 65     Intersection doe
     1ef:	73 6e 27 74 20 6d 61 74 63 68 20 74 6f 20 73 74     sn't match to st
     1ff:	6f 72 65 64 20 54 75 72 6e 20 69 6e 20 50 61 74     ored Turn in Pat
     20f:	68 2d 4d 65 6d 6f 72 79 21 00                       h-Memory!.

00000219 <__c.2709>:
     219:	53 74 61 74 65 20 45 72 72 6f 72 3a 20 25 69 00     State Error: %i.

00000229 <__c.2697>:
     229:	50 72 65 73 73 20 53 74 61 72 74 2d 42 75 74 74     Press Start-Butt
     239:	6f 6e 20 74 6f 20 73 74 61 72 74 20 74 68 65 20     on to start the 
     249:	53 70 65 65 64 72 75 6e 20 61 67 61 69 6e 0a 0a     Speedrun again..
	...

0000025a <__c.2695>:
     25a:	42 61 74 74 3a 25 69 0a 00                          Batt:%i..

00000263 <__c.2693>:
     263:	0a 2a 2a 2a 2a 2a 2a 2a 2a 2a 2a 2a 2a 2a 4d 61     .*************Ma
     273:	7a 65 20 53 6f 6c 76 65 20 66 69 6e 69 73 68 65     ze Solve finishe
     283:	64 21 2a 2a 2a 2a 2a 2a 2a 2a 2a 2a 2a 2a 2a 2a     d!**************
     293:	2a 2a 0a 00                                         **..

00000297 <__c.2691>:
     297:	50 72 65 73 73 20 53 74 61 72 74 2d 42 75 74 74     Press Start-Butt
     2a7:	6f 6e 20 74 6f 20 73 74 61 72 74 20 74 68 65 20     on to start the 
     2b7:	53 70 65 65 64 72 75 6e 0a 00                       Speedrun..

000002c1 <__c.2689>:
     2c1:	42 61 74 74 3a 25 69 0a 00                          Batt:%i..

000002ca <__c.2687>:
     2ca:	50 61 74 68 20 4f 70 74 69 6d 69 7a 65 64 3a 20     Path Optimized: 
     2da:	25 73 0a 00                                         %s..

000002de <__c.2685>:
     2de:	50 61 74 68 20 4d 65 6d 6f 72 79 3a 20 25 73 0a     Path Memory: %s.
	...

000002ef <__c.2683>:
     2ef:	0a 2a 2a 2a 2a 2a 2a 2a 2a 2a 2a 4d 61 7a 65 20     .**********Maze 
     2ff:	53 65 61 72 63 68 20 66 69 6e 69 73 68 65 64 21     Search finished!
     30f:	2a 2a 2a 2a 2a 2a 2a 2a 2a 2a 2a 2a 2a 2a 2a 2a     ****************
     31f:	0a 00                                               ..

00000321 <__c.2668>:
     321:	50 61 74 68 20 4d 65 6d 6f 72 79 3a 20 25 73 0a     Path Memory: %s.
	...

00000332 <__c.2663>:
     332:	41 63 74 75 61 6c 20 49 6e 74 65 72 73 65 63 74     Actual Intersect
     342:	69 6f 6e 20 54 79 70 65 3a 20 25 73 0a 00           ion Type: %s..

00000350 <__c.2632>:
     350:	54 65 73 74 20 46 69 6e 69 73 68 65 64 2e 00        Test Finished..

0000035f <__c.2627>:
     35f:	74 3a 25 69 6d 73 20 45 3a 25 69 20 73 25 30 35     t:%ims E:%i s%05
     36f:	64 00                                               d.

00000371 <__c.2619>:
     371:	54 69 6c 65 20 44 65 74 65 63 74 65 64 2e 00        Tile Detected..

00000380 <__c.2613>:
     380:	4c 69 6e 69 65 6e 73 65 6e 73 6f 72 20 54 69 6d     Liniensensor Tim
     390:	69 6e 67 20 54 65 73 74 00                          ing Test.

00000399 <__c.2608>:
     399:	53 74 61 72 74 20 4d 61 7a 65 20 73 65 61 72 63     Start Maze searc
     3a9:	68 21 0a 00                                         h!..

000003ad <__c.2603>:
     3ad:	43 61 6c 69 62 72 61 74 69 6f 6e 20 66 69 6e 69     Calibration fini
     3bd:	73 68 65 64 2e 0a 00                                shed...

000003c4 <__c.2597>:
     3c4:	2d 50 72 65 73 73 20 53 54 41 52 54 20 66 6f 72     -Press START for
     3d4:	20 4d 61 7a 65 20 53 65 61 72 63 68 2e 0a 2d 50      Maze Search..-P
     3e4:	72 65 73 73 20 55 53 45 52 20 66 6f 72 20 6e 65     ress USER for ne
     3f4:	77 20 63 61 6c 69 62 72 61 74 69 6f 6e 0a 00        w calibration..

00000403 <__c.2595>:
     403:	42 61 74 74 65 72 79 3a 25 69 20 0a 00              Battery:%i ..

00000410 <__c.2593>:
     410:	50 49 44 2d 50 61 72 61 6d 3d 20 4b 50 3a 25 31     PID-Param= KP:%1
     420:	2e 32 66 20 20 4b 49 3a 25 31 2e 32 66 20 20 4b     .2f  KI:%1.2f  K
     430:	44 3a 25 31 2e 32 66 20 0a 00                       D:%1.2f ..

0000043a <__c.2591>:
     43a:	0a 0a 50 72 6f 67 72 61 6d 6d 20 4d 61 7a 65 20     ..Programm Maze 
     44a:	53 65 61 72 63 68 2e 0a 00                          Search...

00000453 <__c.2525>:
     453:	55 6e 6b 6e 6f 77 6e 00                             Unknown.

0000045b <__c.2522>:
     45b:	53 74 72 61 69 67 68 74 20 52 69 67 68 74 00        Straight Right.

0000046a <__c.2519>:
     46a:	53 74 72 61 69 67 68 74 20 4c 65 66 74 00           Straight Left.

00000478 <__c.2516>:
     478:	54 2d 57 61 79 00                                   T-Way.

0000047e <__c.2513>:
     47e:	52 69 67 68 74 00                                   Right.

00000484 <__c.2510>:
     484:	4c 65 66 74 00                                      Left.

00000489 <__c.2507>:
     489:	46 6f 75 72 20 57 61 79 00                          Four Way.

00000492 <__c.2504>:
     492:	46 69 6e 69 73 68 00                                Finish.

00000499 <__c.2500>:
     499:	44 65 61 64 20 45 6e 64 00                          Dead End.

000004a2 <optimize8>:
     4a2:	52 55 52 00                                         RUR.

000004a6 <optimize7>:
     4a6:	52 55 53 00                                         RUS.

000004aa <optimize6>:
     4aa:	4c 55 52 00                                         LUR.

000004ae <optimize5>:
     4ae:	4c 55 53 00                                         LUS.

000004b2 <optimize4>:
     4b2:	52 55 4c 00                                         RUL.

000004b6 <optimize3>:
     4b6:	53 55 53 00                                         SUS.

000004ba <optimize2>:
     4ba:	53 55 4c 00                                         SUL.

000004be <optimize1>:
     4be:	4c 55 4c 00                                         LUL.

000004c2 <__c.2643>:
     4c2:	25 69 3a 20 25 69 00                                %i: %i.

000004c9 <__c.2640>:
     4c9:	4b 61 6c 69 62 72 61 74 69 6f 6e 20 44 61 74 61     Kalibration Data
     4d9:	0a 00                                               ..

000004db <error_str>:
     4db:	2d 45 52 52 4f 52 2d 20 00                          -ERROR- .

000004e4 <info_str>:
     4e4:	2d 49 4e 46 4f 2d 20 00                             -INFO- .

000004ec <debug_str>:
     4ec:	2d 44 45 42 55 47 2d 20 00                          -DEBUG- .

000004f5 <__c.2655>:
     4f5:	4c 6f 77 20 42 61 74 74 65 72 79 3a 25 69 00        Low Battery:%i.

00000504 <__ctors_end>:
     504:	11 24       	eor	r1, r1
     506:	1f be       	out	0x3f, r1	; 63
     508:	cf ef       	ldi	r28, 0xFF	; 255
     50a:	d0 e1       	ldi	r29, 0x10	; 16
     50c:	de bf       	out	0x3e, r29	; 62
     50e:	cd bf       	out	0x3d, r28	; 61

00000510 <__do_copy_data>:
     510:	11 e0       	ldi	r17, 0x01	; 1
     512:	a0 e0       	ldi	r26, 0x00	; 0
     514:	b1 e0       	ldi	r27, 0x01	; 1
     516:	ee e0       	ldi	r30, 0x0E	; 14
     518:	f3 e3       	ldi	r31, 0x33	; 51
     51a:	02 c0       	rjmp	.+4      	; 0x520 <__do_copy_data+0x10>
     51c:	05 90       	lpm	r0, Z+
     51e:	0d 92       	st	X+, r0
     520:	aa 34       	cpi	r26, 0x4A	; 74
     522:	b1 07       	cpc	r27, r17
     524:	d9 f7       	brne	.-10     	; 0x51c <__do_copy_data+0xc>

00000526 <__do_clear_bss>:
     526:	22 e0       	ldi	r18, 0x02	; 2
     528:	aa e4       	ldi	r26, 0x4A	; 74
     52a:	b1 e0       	ldi	r27, 0x01	; 1
     52c:	01 c0       	rjmp	.+2      	; 0x530 <.do_clear_bss_start>

0000052e <.do_clear_bss_loop>:
     52e:	1d 92       	st	X+, r1

00000530 <.do_clear_bss_start>:
     530:	a1 38       	cpi	r26, 0x81	; 129
     532:	b2 07       	cpc	r27, r18
     534:	e1 f7       	brne	.-8      	; 0x52e <.do_clear_bss_loop>
     536:	0e 94 42 08 	call	0x1084	; 0x1084 <main>
     53a:	0c 94 85 19 	jmp	0x330a	; 0x330a <_exit>

0000053e <__bad_interrupt>:
     53e:	0c 94 00 00 	jmp	0	; 0x0 <__vectors>

00000542 <do_state_reset>:
		{
			action(data);
		}
	}
	return new_state;
}
     542:	fc 01       	movw	r30, r24
     544:	10 82       	st	Z, r1
     546:	46 98       	cbi	0x08, 6	; 8
     548:	20 e1       	ldi	r18, 0x10	; 16
     54a:	32 e0       	ldi	r19, 0x02	; 2
     54c:	46 e6       	ldi	r20, 0x66	; 102
     54e:	50 e0       	ldi	r21, 0x00	; 0
     550:	60 e0       	ldi	r22, 0x00	; 0
     552:	70 e0       	ldi	r23, 0x00	; 0
     554:	86 e6       	ldi	r24, 0x66	; 102
     556:	90 e0       	ldi	r25, 0x00	; 0
     558:	0e 94 4b 0e 	call	0x1c96	; 0x1c96 <pid_Init>
     55c:	83 e0       	ldi	r24, 0x03	; 3
     55e:	0e 94 36 10 	call	0x206c	; 0x206c <disableDevice>
     562:	81 e0       	ldi	r24, 0x01	; 1
     564:	08 95       	ret

00000566 <out_state_control>:
     566:	fc 01       	movw	r30, r24
     568:	80 81       	ld	r24, Z
     56a:	80 fd       	sbrc	r24, 0
     56c:	0e c0       	rjmp	.+28     	; 0x58a <out_state_control+0x24>
     56e:	82 e2       	ldi	r24, 0x22	; 34
     570:	92 e0       	ldi	r25, 0x02	; 2
     572:	9f 93       	push	r25
     574:	8f 93       	push	r24
     576:	81 e2       	ldi	r24, 0x21	; 33
     578:	93 e0       	ldi	r25, 0x03	; 3
     57a:	9f 93       	push	r25
     57c:	8f 93       	push	r24
     57e:	0e 94 a8 18 	call	0x3150	; 0x3150 <printf_P>
     582:	0f 90       	pop	r0
     584:	0f 90       	pop	r0
     586:	0f 90       	pop	r0
     588:	0f 90       	pop	r0
     58a:	08 95       	ret

0000058c <in_state_stop>:
     58c:	cf 93       	push	r28
     58e:	df 93       	push	r29
     590:	ec 01       	movw	r28, r24
     592:	60 e0       	ldi	r22, 0x00	; 0
     594:	70 e0       	ldi	r23, 0x00	; 0
     596:	81 e0       	ldi	r24, 0x01	; 1
     598:	90 e0       	ldi	r25, 0x00	; 0
     59a:	0e 94 ce 11 	call	0x239c	; 0x239c <setStopwatch>
     59e:	ea e6       	ldi	r30, 0x6A	; 106
     5a0:	f2 e0       	ldi	r31, 0x02	; 2
     5a2:	80 81       	ld	r24, Z
     5a4:	81 60       	ori	r24, 0x01	; 1
     5a6:	80 83       	st	Z, r24
     5a8:	88 81       	ld	r24, Y
     5aa:	8b 7f       	andi	r24, 0xFB	; 251
     5ac:	87 7f       	andi	r24, 0xF7	; 247
     5ae:	88 83       	st	Y, r24
     5b0:	df 91       	pop	r29
     5b2:	cf 91       	pop	r28
     5b4:	08 95       	ret

000005b6 <in_state_begin>:
     5b6:	8a e3       	ldi	r24, 0x3A	; 58
     5b8:	94 e0       	ldi	r25, 0x04	; 4
     5ba:	0e 94 db 12 	call	0x25b6	; 0x25b6 <uart_puts_p>
     5be:	20 e1       	ldi	r18, 0x10	; 16
     5c0:	32 e0       	ldi	r19, 0x02	; 2
     5c2:	46 e6       	ldi	r20, 0x66	; 102
     5c4:	50 e0       	ldi	r21, 0x00	; 0
     5c6:	60 e0       	ldi	r22, 0x00	; 0
     5c8:	70 e0       	ldi	r23, 0x00	; 0
     5ca:	86 e6       	ldi	r24, 0x66	; 102
     5cc:	90 e0       	ldi	r25, 0x00	; 0
     5ce:	0e 94 4b 0e 	call	0x1c96	; 0x1c96 <pid_Init>
     5d2:	3f e3       	ldi	r19, 0x3F	; 63
     5d4:	3f 93       	push	r19
     5d6:	2c e4       	ldi	r18, 0x4C	; 76
     5d8:	2f 93       	push	r18
     5da:	9c ec       	ldi	r25, 0xCC	; 204
     5dc:	9f 93       	push	r25
     5de:	8d ec       	ldi	r24, 0xCD	; 205
     5e0:	8f 93       	push	r24
     5e2:	1f 92       	push	r1
     5e4:	1f 92       	push	r1
     5e6:	1f 92       	push	r1
     5e8:	1f 92       	push	r1
     5ea:	3f 93       	push	r19
     5ec:	2f 93       	push	r18
     5ee:	9f 93       	push	r25
     5f0:	8f 93       	push	r24
     5f2:	80 e1       	ldi	r24, 0x10	; 16
     5f4:	94 e0       	ldi	r25, 0x04	; 4
     5f6:	9f 93       	push	r25
     5f8:	8f 93       	push	r24
     5fa:	0e 94 a8 18 	call	0x3150	; 0x3150 <printf_P>
     5fe:	0e 94 ec 0f 	call	0x1fd8	; 0x1fd8 <batt_voltage>
     602:	9f 93       	push	r25
     604:	8f 93       	push	r24
     606:	83 e0       	ldi	r24, 0x03	; 3
     608:	94 e0       	ldi	r25, 0x04	; 4
     60a:	9f 93       	push	r25
     60c:	8f 93       	push	r24
     60e:	0e 94 a8 18 	call	0x3150	; 0x3150 <printf_P>
     612:	60 e0       	ldi	r22, 0x00	; 0
     614:	70 e0       	ldi	r23, 0x00	; 0
     616:	81 e0       	ldi	r24, 0x01	; 1
     618:	90 e0       	ldi	r25, 0x00	; 0
     61a:	0e 94 ce 11 	call	0x239c	; 0x239c <setStopwatch>
     61e:	60 e0       	ldi	r22, 0x00	; 0
     620:	70 e0       	ldi	r23, 0x00	; 0
     622:	82 e0       	ldi	r24, 0x02	; 2
     624:	90 e0       	ldi	r25, 0x00	; 0
     626:	0e 94 ce 11 	call	0x239c	; 0x239c <setStopwatch>
     62a:	81 e0       	ldi	r24, 0x01	; 1
     62c:	0e 94 18 10 	call	0x2030	; 0x2030 <enableDevice>
     630:	80 e0       	ldi	r24, 0x00	; 0
     632:	0e 94 07 10 	call	0x200e	; 0x200e <setStatusLED>
     636:	ec ee       	ldi	r30, 0xEC	; 236
     638:	f1 e0       	ldi	r31, 0x01	; 1
     63a:	80 81       	ld	r24, Z
     63c:	81 60       	ori	r24, 0x01	; 1
     63e:	80 83       	st	Z, r24
     640:	e3 ef       	ldi	r30, 0xF3	; 243
     642:	f1 e0       	ldi	r31, 0x01	; 1
     644:	80 81       	ld	r24, Z
     646:	81 60       	ori	r24, 0x01	; 1
     648:	80 83       	st	Z, r24
     64a:	84 ec       	ldi	r24, 0xC4	; 196
     64c:	93 e0       	ldi	r25, 0x03	; 3
     64e:	9f 93       	push	r25
     650:	8f 93       	push	r24
     652:	0e 94 a8 18 	call	0x3150	; 0x3150 <printf_P>
     656:	8d b7       	in	r24, 0x3d	; 61
     658:	9e b7       	in	r25, 0x3e	; 62
     65a:	44 96       	adiw	r24, 0x14	; 20
     65c:	0f b6       	in	r0, 0x3f	; 63
     65e:	f8 94       	cli
     660:	9e bf       	out	0x3e, r25	; 62
     662:	0f be       	out	0x3f, r0	; 63
     664:	8d bf       	out	0x3d, r24	; 61
     666:	08 95       	ret

00000668 <out_state_begin>:
     668:	89 e9       	ldi	r24, 0x99	; 153
     66a:	93 e0       	ldi	r25, 0x03	; 3
     66c:	9f 93       	push	r25
     66e:	8f 93       	push	r24
     670:	0e 94 a8 18 	call	0x3150	; 0x3150 <printf_P>
     674:	8a e0       	ldi	r24, 0x0A	; 10
     676:	0e 94 07 10 	call	0x200e	; 0x200e <setStatusLED>
     67a:	ea e6       	ldi	r30, 0x6A	; 106
     67c:	f2 e0       	ldi	r31, 0x02	; 2
     67e:	80 81       	ld	r24, Z
     680:	8e 7f       	andi	r24, 0xFE	; 254
     682:	80 83       	st	Z, r24
     684:	0f 90       	pop	r0
     686:	0f 90       	pop	r0
     688:	08 95       	ret

0000068a <out_state_stop>:
     68a:	ea e6       	ldi	r30, 0x6A	; 106
     68c:	f2 e0       	ldi	r31, 0x02	; 2
     68e:	80 81       	ld	r24, Z
     690:	8e 7f       	andi	r24, 0xFE	; 254
     692:	80 83       	st	Z, r24
     694:	60 e0       	ldi	r22, 0x00	; 0
     696:	70 e0       	ldi	r23, 0x00	; 0
     698:	81 e0       	ldi	r24, 0x01	; 1
     69a:	90 e0       	ldi	r25, 0x00	; 0
     69c:	0e 94 ce 11 	call	0x239c	; 0x239c <setStopwatch>
     6a0:	8a e0       	ldi	r24, 0x0A	; 10
     6a2:	0e 94 07 10 	call	0x200e	; 0x200e <setStatusLED>
     6a6:	08 95       	ret

000006a8 <out_state_turn>:
     6a8:	8a e0       	ldi	r24, 0x0A	; 10
     6aa:	0e 94 07 10 	call	0x200e	; 0x200e <setStatusLED>
     6ae:	ea e6       	ldi	r30, 0x6A	; 106
     6b0:	f2 e0       	ldi	r31, 0x02	; 2
     6b2:	80 81       	ld	r24, Z
     6b4:	8e 7f       	andi	r24, 0xFE	; 254
     6b6:	80 83       	st	Z, r24
     6b8:	80 81       	ld	r24, Z
     6ba:	8d 7f       	andi	r24, 0xFD	; 253
     6bc:	80 83       	st	Z, r24
     6be:	08 95       	ret

000006c0 <out_state_finish>:
     6c0:	8a e0       	ldi	r24, 0x0A	; 10
     6c2:	0e 94 07 10 	call	0x200e	; 0x200e <setStatusLED>
     6c6:	46 98       	cbi	0x08, 6	; 8
     6c8:	ea e6       	ldi	r30, 0x6A	; 106
     6ca:	f2 e0       	ldi	r31, 0x02	; 2
     6cc:	80 81       	ld	r24, Z
     6ce:	8e 7f       	andi	r24, 0xFE	; 254
     6d0:	80 83       	st	Z, r24
     6d2:	08 95       	ret

000006d4 <do_state_turn>:
     6d4:	1f 93       	push	r17
     6d6:	cf 93       	push	r28
     6d8:	df 93       	push	r29
     6da:	ec 01       	movw	r28, r24
     6dc:	80 91 db 01 	lds	r24, 0x01DB	; 0x8001db <motorStatus>
     6e0:	84 fd       	sbrc	r24, 4
     6e2:	05 c0       	rjmp	.+10     	; 0x6ee <do_state_turn+0x1a>
     6e4:	ea e6       	ldi	r30, 0x6A	; 106
     6e6:	f2 e0       	ldi	r31, 0x02	; 2
     6e8:	80 81       	ld	r24, Z
     6ea:	81 60       	ori	r24, 0x01	; 1
     6ec:	80 83       	st	Z, r24
     6ee:	81 e0       	ldi	r24, 0x01	; 1
     6f0:	0e 94 13 12 	call	0x2426	; 0x2426 <getStopwatch>
     6f4:	c2 97       	sbiw	r24, 0x32	; 50
     6f6:	10 f0       	brcs	.+4      	; 0x6fc <do_state_turn+0x28>
     6f8:	13 e0       	ldi	r17, 0x03	; 3
     6fa:	01 c0       	rjmp	.+2      	; 0x6fe <do_state_turn+0x2a>
     6fc:	16 e0       	ldi	r17, 0x06	; 6
     6fe:	82 e0       	ldi	r24, 0x02	; 2
     700:	0e 94 13 12 	call	0x2426	; 0x2426 <getStopwatch>
     704:	85 36       	cpi	r24, 0x65	; 101
     706:	91 05       	cpc	r25, r1
     708:	c0 f0       	brcs	.+48     	; 0x73a <do_state_turn+0x66>
     70a:	88 81       	ld	r24, Y
     70c:	84 fb       	bst	r24, 4
     70e:	22 27       	eor	r18, r18
     710:	20 f9       	bld	r18, 0
     712:	91 e0       	ldi	r25, 0x01	; 1
     714:	92 27       	eor	r25, r18
     716:	90 fb       	bst	r25, 0
     718:	84 f9       	bld	r24, 4
     71a:	88 83       	st	Y, r24
     71c:	84 ff       	sbrs	r24, 4
     71e:	04 c0       	rjmp	.+8      	; 0x728 <do_state_turn+0x54>
     720:	80 e0       	ldi	r24, 0x00	; 0
     722:	0e 94 07 10 	call	0x200e	; 0x200e <setStatusLED>
     726:	03 c0       	rjmp	.+6      	; 0x72e <do_state_turn+0x5a>
     728:	8a e0       	ldi	r24, 0x0A	; 10
     72a:	0e 94 07 10 	call	0x200e	; 0x200e <setStatusLED>
     72e:	60 e0       	ldi	r22, 0x00	; 0
     730:	70 e0       	ldi	r23, 0x00	; 0
     732:	82 e0       	ldi	r24, 0x02	; 2
     734:	90 e0       	ldi	r25, 0x00	; 0
     736:	0e 94 ce 11 	call	0x239c	; 0x239c <setStopwatch>
     73a:	81 2f       	mov	r24, r17
     73c:	df 91       	pop	r29
     73e:	cf 91       	pop	r28
     740:	1f 91       	pop	r17
     742:	08 95       	ret

00000744 <do_state_finish>:
     744:	cf 93       	push	r28
     746:	df 93       	push	r29
     748:	ec 01       	movw	r28, r24
     74a:	82 e0       	ldi	r24, 0x02	; 2
     74c:	0e 94 13 12 	call	0x2426	; 0x2426 <getStopwatch>
     750:	85 3f       	cpi	r24, 0xF5	; 245
     752:	91 40       	sbci	r25, 0x01	; 1
     754:	a0 f0       	brcs	.+40     	; 0x77e <do_state_finish+0x3a>
     756:	88 81       	ld	r24, Y
     758:	84 fb       	bst	r24, 4
     75a:	22 27       	eor	r18, r18
     75c:	20 f9       	bld	r18, 0
     75e:	91 e0       	ldi	r25, 0x01	; 1
     760:	92 27       	eor	r25, r18
     762:	90 fb       	bst	r25, 0
     764:	84 f9       	bld	r24, 4
     766:	88 83       	st	Y, r24
     768:	84 ff       	sbrs	r24, 4
     76a:	02 c0       	rjmp	.+4      	; 0x770 <do_state_finish+0x2c>
     76c:	46 9a       	sbi	0x08, 6	; 8
     76e:	01 c0       	rjmp	.+2      	; 0x772 <do_state_finish+0x2e>
     770:	46 98       	cbi	0x08, 6	; 8
     772:	60 e0       	ldi	r22, 0x00	; 0
     774:	70 e0       	ldi	r23, 0x00	; 0
     776:	82 e0       	ldi	r24, 0x02	; 2
     778:	90 e0       	ldi	r25, 0x00	; 0
     77a:	0e 94 ce 11 	call	0x239c	; 0x239c <setStopwatch>
     77e:	1c 99       	sbic	0x03, 4	; 3
     780:	09 c0       	rjmp	.+18     	; 0x794 <do_state_finish+0x50>
     782:	ea e6       	ldi	r30, 0x6A	; 106
     784:	f2 e0       	ldi	r31, 0x02	; 2
     786:	80 81       	ld	r24, Z
     788:	81 60       	ori	r24, 0x01	; 1
     78a:	80 83       	st	Z, r24
     78c:	46 9a       	sbi	0x08, 6	; 8
     78e:	81 e0       	ldi	r24, 0x01	; 1
     790:	0e 94 07 10 	call	0x200e	; 0x200e <setStatusLED>
     794:	81 e0       	ldi	r24, 0x01	; 1
     796:	0e 94 13 12 	call	0x2426	; 0x2426 <getStopwatch>
     79a:	81 3d       	cpi	r24, 0xD1	; 209
     79c:	97 40       	sbci	r25, 0x07	; 7
     79e:	10 f0       	brcs	.+4      	; 0x7a4 <do_state_finish+0x60>
     7a0:	83 e0       	ldi	r24, 0x03	; 3
     7a2:	01 c0       	rjmp	.+2      	; 0x7a6 <do_state_finish+0x62>
     7a4:	87 e0       	ldi	r24, 0x07	; 7
     7a6:	df 91       	pop	r29
     7a8:	cf 91       	pop	r28
     7aa:	08 95       	ret

000007ac <do_state_error>:
     7ac:	81 e0       	ldi	r24, 0x01	; 1
     7ae:	0e 94 13 12 	call	0x2426	; 0x2426 <getStopwatch>
     7b2:	85 3f       	cpi	r24, 0xF5	; 245
     7b4:	91 40       	sbci	r25, 0x01	; 1
     7b6:	48 f0       	brcs	.+18     	; 0x7ca <do_state_error+0x1e>
     7b8:	81 e0       	ldi	r24, 0x01	; 1
     7ba:	0e 94 07 10 	call	0x200e	; 0x200e <setStatusLED>
     7be:	60 e0       	ldi	r22, 0x00	; 0
     7c0:	70 e0       	ldi	r23, 0x00	; 0
     7c2:	81 e0       	ldi	r24, 0x01	; 1
     7c4:	90 e0       	ldi	r25, 0x00	; 0
     7c6:	0e 94 ce 11 	call	0x239c	; 0x239c <setStopwatch>
     7ca:	88 e0       	ldi	r24, 0x08	; 8
     7cc:	08 95       	ret

000007ce <do_state_begin>:
     7ce:	cf 93       	push	r28
     7d0:	1c 99       	sbic	0x03, 4	; 3
     7d2:	08 c0       	rjmp	.+16     	; 0x7e4 <do_state_begin+0x16>
     7d4:	ea e6       	ldi	r30, 0x6A	; 106
     7d6:	f2 e0       	ldi	r31, 0x02	; 2
     7d8:	80 81       	ld	r24, Z
     7da:	81 60       	ori	r24, 0x01	; 1
     7dc:	80 83       	st	Z, r24
     7de:	83 e0       	ldi	r24, 0x03	; 3
     7e0:	0e 94 07 10 	call	0x200e	; 0x200e <setStatusLED>
     7e4:	1b 99       	sbic	0x03, 3	; 3
     7e6:	08 c0       	rjmp	.+16     	; 0x7f8 <do_state_begin+0x2a>
     7e8:	ea e6       	ldi	r30, 0x6A	; 106
     7ea:	f2 e0       	ldi	r31, 0x02	; 2
     7ec:	80 81       	ld	r24, Z
     7ee:	82 60       	ori	r24, 0x02	; 2
     7f0:	80 83       	st	Z, r24
     7f2:	83 e0       	ldi	r24, 0x03	; 3
     7f4:	0e 94 07 10 	call	0x200e	; 0x200e <setStatusLED>
     7f8:	81 e0       	ldi	r24, 0x01	; 1
     7fa:	0e 94 13 12 	call	0x2426	; 0x2426 <getStopwatch>
     7fe:	81 3d       	cpi	r24, 0xD1	; 209
     800:	97 40       	sbci	r25, 0x07	; 7
     802:	28 f0       	brcs	.+10     	; 0x80e <do_state_begin+0x40>
     804:	81 e0       	ldi	r24, 0x01	; 1
     806:	0e 94 07 10 	call	0x200e	; 0x200e <setStatusLED>
     80a:	c3 e0       	ldi	r28, 0x03	; 3
     80c:	01 c0       	rjmp	.+2      	; 0x810 <do_state_begin+0x42>
     80e:	c1 e0       	ldi	r28, 0x01	; 1
     810:	82 e0       	ldi	r24, 0x02	; 2
     812:	0e 94 13 12 	call	0x2426	; 0x2426 <getStopwatch>
     816:	8d 3d       	cpi	r24, 0xDD	; 221
     818:	95 40       	sbci	r25, 0x05	; 5
     81a:	a8 f0       	brcs	.+42     	; 0x846 <do_state_begin+0x78>
     81c:	0e 94 6e 0b 	call	0x16dc	; 0x16dc <calibrateSensors>
     820:	8d ea       	ldi	r24, 0xAD	; 173
     822:	93 e0       	ldi	r25, 0x03	; 3
     824:	9f 93       	push	r25
     826:	8f 93       	push	r24
     828:	0e 94 a8 18 	call	0x3150	; 0x3150 <printf_P>
     82c:	ea e6       	ldi	r30, 0x6A	; 106
     82e:	f2 e0       	ldi	r31, 0x02	; 2
     830:	80 81       	ld	r24, Z
     832:	8d 7f       	andi	r24, 0xFD	; 253
     834:	80 83       	st	Z, r24
     836:	60 e0       	ldi	r22, 0x00	; 0
     838:	70 e0       	ldi	r23, 0x00	; 0
     83a:	82 e0       	ldi	r24, 0x02	; 2
     83c:	90 e0       	ldi	r25, 0x00	; 0
     83e:	0e 94 ce 11 	call	0x239c	; 0x239c <setStopwatch>
     842:	0f 90       	pop	r0
     844:	0f 90       	pop	r0
     846:	8c 2f       	mov	r24, r28
     848:	cf 91       	pop	r28
     84a:	08 95       	ret

0000084c <out_state_debug>:
     84c:	80 e5       	ldi	r24, 0x50	; 80
     84e:	93 e0       	ldi	r25, 0x03	; 3
     850:	9f 93       	push	r25
     852:	8f 93       	push	r24
     854:	0e 94 d7 0c 	call	0x19ae	; 0x19ae <_log_Debug>
     858:	60 e0       	ldi	r22, 0x00	; 0
     85a:	70 e0       	ldi	r23, 0x00	; 0
     85c:	80 e0       	ldi	r24, 0x00	; 0
     85e:	90 e0       	ldi	r25, 0x00	; 0
     860:	0e 94 82 0d 	call	0x1b04	; 0x1b04 <motor_speed>
     864:	60 e0       	ldi	r22, 0x00	; 0
     866:	80 e0       	ldi	r24, 0x00	; 0
     868:	0e 94 46 0d 	call	0x1a8c	; 0x1a8c <motorDirection>
     86c:	ea e6       	ldi	r30, 0x6A	; 106
     86e:	f2 e0       	ldi	r31, 0x02	; 2
     870:	80 81       	ld	r24, Z
     872:	8e 7f       	andi	r24, 0xFE	; 254
     874:	80 83       	st	Z, r24
     876:	80 81       	ld	r24, Z
     878:	8d 7f       	andi	r24, 0xFD	; 253
     87a:	80 83       	st	Z, r24
     87c:	80 81       	ld	r24, Z
     87e:	8b 7f       	andi	r24, 0xFB	; 251
     880:	80 83       	st	Z, r24
     882:	80 81       	ld	r24, Z
     884:	87 7f       	andi	r24, 0xF7	; 247
     886:	80 83       	st	Z, r24
     888:	80 81       	ld	r24, Z
     88a:	8f 7e       	andi	r24, 0xEF	; 239
     88c:	80 83       	st	Z, r24
     88e:	0f 90       	pop	r0
     890:	0f 90       	pop	r0
     892:	08 95       	ret

00000894 <out_state_drive>:
     894:	68 e7       	ldi	r22, 0x78	; 120
     896:	70 e0       	ldi	r23, 0x00	; 0
     898:	88 e7       	ldi	r24, 0x78	; 120
     89a:	90 e0       	ldi	r25, 0x00	; 0
     89c:	0e 94 82 0d 	call	0x1b04	; 0x1b04 <motor_speed>
     8a0:	ea e6       	ldi	r30, 0x6A	; 106
     8a2:	f2 e0       	ldi	r31, 0x02	; 2
     8a4:	80 81       	ld	r24, Z
     8a6:	8e 7f       	andi	r24, 0xFE	; 254
     8a8:	80 83       	st	Z, r24
     8aa:	80 81       	ld	r24, Z
     8ac:	8d 7f       	andi	r24, 0xFD	; 253
     8ae:	80 83       	st	Z, r24
     8b0:	80 81       	ld	r24, Z
     8b2:	8b 7f       	andi	r24, 0xFB	; 251
     8b4:	80 83       	st	Z, r24
     8b6:	8a e0       	ldi	r24, 0x0A	; 10
     8b8:	0e 94 07 10 	call	0x200e	; 0x200e <setStatusLED>
     8bc:	08 95       	ret

000008be <in_state_debug>:
     8be:	cf 93       	push	r28
     8c0:	df 93       	push	r29
     8c2:	ec 01       	movw	r28, r24
     8c4:	80 e8       	ldi	r24, 0x80	; 128
     8c6:	93 e0       	ldi	r25, 0x03	; 3
     8c8:	9f 93       	push	r25
     8ca:	8f 93       	push	r24
     8cc:	0e 94 d7 0c 	call	0x19ae	; 0x19ae <_log_Debug>
     8d0:	61 e0       	ldi	r22, 0x01	; 1
     8d2:	81 e0       	ldi	r24, 0x01	; 1
     8d4:	0e 94 46 0d 	call	0x1a8c	; 0x1a8c <motorDirection>
     8d8:	68 e7       	ldi	r22, 0x78	; 120
     8da:	70 e0       	ldi	r23, 0x00	; 0
     8dc:	88 e7       	ldi	r24, 0x78	; 120
     8de:	90 e0       	ldi	r25, 0x00	; 0
     8e0:	0e 94 82 0d 	call	0x1b04	; 0x1b04 <motor_speed>
     8e4:	80 e1       	ldi	r24, 0x10	; 16
     8e6:	92 e0       	ldi	r25, 0x02	; 2
     8e8:	0e 94 24 0f 	call	0x1e48	; 0x1e48 <pid_Reset_Integrator>
     8ec:	83 e0       	ldi	r24, 0x03	; 3
     8ee:	0e 94 07 10 	call	0x200e	; 0x200e <setStatusLED>
     8f2:	88 81       	ld	r24, Y
     8f4:	8d 7f       	andi	r24, 0xFD	; 253
     8f6:	88 83       	st	Y, r24
     8f8:	60 e0       	ldi	r22, 0x00	; 0
     8fa:	70 e0       	ldi	r23, 0x00	; 0
     8fc:	81 e0       	ldi	r24, 0x01	; 1
     8fe:	90 e0       	ldi	r25, 0x00	; 0
     900:	0e 94 ce 11 	call	0x239c	; 0x239c <setStopwatch>
     904:	ca e6       	ldi	r28, 0x6A	; 106
     906:	d2 e0       	ldi	r29, 0x02	; 2
     908:	88 81       	ld	r24, Y
     90a:	81 60       	ori	r24, 0x01	; 1
     90c:	88 83       	st	Y, r24
     90e:	60 e0       	ldi	r22, 0x00	; 0
     910:	70 e0       	ldi	r23, 0x00	; 0
     912:	82 e0       	ldi	r24, 0x02	; 2
     914:	90 e0       	ldi	r25, 0x00	; 0
     916:	0e 94 ce 11 	call	0x239c	; 0x239c <setStopwatch>
     91a:	88 81       	ld	r24, Y
     91c:	82 60       	ori	r24, 0x02	; 2
     91e:	88 83       	st	Y, r24
     920:	88 81       	ld	r24, Y
     922:	8b 7f       	andi	r24, 0xFB	; 251
     924:	88 83       	st	Y, r24
     926:	60 e0       	ldi	r22, 0x00	; 0
     928:	70 e0       	ldi	r23, 0x00	; 0
     92a:	84 e0       	ldi	r24, 0x04	; 4
     92c:	90 e0       	ldi	r25, 0x00	; 0
     92e:	0e 94 ce 11 	call	0x239c	; 0x239c <setStopwatch>
     932:	88 81       	ld	r24, Y
     934:	88 60       	ori	r24, 0x08	; 8
     936:	88 83       	st	Y, r24
     938:	60 e0       	ldi	r22, 0x00	; 0
     93a:	70 e0       	ldi	r23, 0x00	; 0
     93c:	88 e0       	ldi	r24, 0x08	; 8
     93e:	90 e0       	ldi	r25, 0x00	; 0
     940:	0e 94 ce 11 	call	0x239c	; 0x239c <setStopwatch>
     944:	88 81       	ld	r24, Y
     946:	8f 7e       	andi	r24, 0xEF	; 239
     948:	88 83       	st	Y, r24
     94a:	60 e0       	ldi	r22, 0x00	; 0
     94c:	70 e0       	ldi	r23, 0x00	; 0
     94e:	80 e1       	ldi	r24, 0x10	; 16
     950:	90 e0       	ldi	r25, 0x00	; 0
     952:	0e 94 ce 11 	call	0x239c	; 0x239c <setStopwatch>
     956:	0e 94 d9 0a 	call	0x15b2	; 0x15b2 <lineRead>
     95a:	0f 90       	pop	r0
     95c:	0f 90       	pop	r0
     95e:	df 91       	pop	r29
     960:	cf 91       	pop	r28
     962:	08 95       	ret

00000964 <in_state_drive>:
     964:	cf 93       	push	r28
     966:	df 93       	push	r29
     968:	ec 01       	movw	r28, r24
     96a:	61 e0       	ldi	r22, 0x01	; 1
     96c:	81 e0       	ldi	r24, 0x01	; 1
     96e:	0e 94 46 0d 	call	0x1a8c	; 0x1a8c <motorDirection>
     972:	68 e7       	ldi	r22, 0x78	; 120
     974:	70 e0       	ldi	r23, 0x00	; 0
     976:	88 e7       	ldi	r24, 0x78	; 120
     978:	90 e0       	ldi	r25, 0x00	; 0
     97a:	0e 94 82 0d 	call	0x1b04	; 0x1b04 <motor_speed>
     97e:	80 e1       	ldi	r24, 0x10	; 16
     980:	92 e0       	ldi	r25, 0x02	; 2
     982:	0e 94 24 0f 	call	0x1e48	; 0x1e48 <pid_Reset_Integrator>
     986:	83 e0       	ldi	r24, 0x03	; 3
     988:	0e 94 07 10 	call	0x200e	; 0x200e <setStatusLED>
     98c:	88 81       	ld	r24, Y
     98e:	8d 7f       	andi	r24, 0xFD	; 253
     990:	88 83       	st	Y, r24
     992:	60 e0       	ldi	r22, 0x00	; 0
     994:	70 e0       	ldi	r23, 0x00	; 0
     996:	81 e0       	ldi	r24, 0x01	; 1
     998:	90 e0       	ldi	r25, 0x00	; 0
     99a:	0e 94 ce 11 	call	0x239c	; 0x239c <setStopwatch>
     99e:	ca e6       	ldi	r28, 0x6A	; 106
     9a0:	d2 e0       	ldi	r29, 0x02	; 2
     9a2:	88 81       	ld	r24, Y
     9a4:	81 60       	ori	r24, 0x01	; 1
     9a6:	88 83       	st	Y, r24
     9a8:	60 e0       	ldi	r22, 0x00	; 0
     9aa:	70 e0       	ldi	r23, 0x00	; 0
     9ac:	82 e0       	ldi	r24, 0x02	; 2
     9ae:	90 e0       	ldi	r25, 0x00	; 0
     9b0:	0e 94 ce 11 	call	0x239c	; 0x239c <setStopwatch>
     9b4:	88 81       	ld	r24, Y
     9b6:	82 60       	ori	r24, 0x02	; 2
     9b8:	88 83       	st	Y, r24
     9ba:	88 81       	ld	r24, Y
     9bc:	84 60       	ori	r24, 0x04	; 4
     9be:	88 83       	st	Y, r24
     9c0:	0e 94 d9 0a 	call	0x15b2	; 0x15b2 <lineRead>
     9c4:	df 91       	pop	r29
     9c6:	cf 91       	pop	r28
     9c8:	08 95       	ret

000009ca <do_state_drive>:
     9ca:	ef 92       	push	r14
     9cc:	ff 92       	push	r15
     9ce:	1f 93       	push	r17
     9d0:	cf 93       	push	r28
     9d2:	df 93       	push	r29
     9d4:	ec 01       	movw	r28, r24
     9d6:	82 e0       	ldi	r24, 0x02	; 2
     9d8:	0e 94 13 12 	call	0x2426	; 0x2426 <getStopwatch>
     9dc:	8a 3f       	cpi	r24, 0xFA	; 250
     9de:	91 05       	cpc	r25, r1
     9e0:	38 f1       	brcs	.+78     	; 0xa30 <do_state_drive+0x66>
     9e2:	80 91 08 02 	lds	r24, 0x0208	; 0x800208 <lineSensors+0x15>
     9e6:	81 11       	cpse	r24, r1
     9e8:	04 c0       	rjmp	.+8      	; 0x9f2 <do_state_drive+0x28>
     9ea:	80 91 0c 02 	lds	r24, 0x020C	; 0x80020c <lineSensors+0x19>
     9ee:	88 23       	and	r24, r24
     9f0:	49 f0       	breq	.+18     	; 0xa04 <do_state_drive+0x3a>
     9f2:	88 81       	ld	r24, Y
     9f4:	82 60       	ori	r24, 0x02	; 2
     9f6:	88 83       	st	Y, r24
     9f8:	80 91 08 02 	lds	r24, 0x0208	; 0x800208 <lineSensors+0x15>
     9fc:	81 11       	cpse	r24, r1
     9fe:	1a c0       	rjmp	.+52     	; 0xa34 <do_state_drive+0x6a>
     a00:	14 e0       	ldi	r17, 0x04	; 4
     a02:	01 c0       	rjmp	.+2      	; 0xa06 <do_state_drive+0x3c>
     a04:	13 e0       	ldi	r17, 0x03	; 3
     a06:	80 91 09 02 	lds	r24, 0x0209	; 0x800209 <lineSensors+0x16>
     a0a:	81 11       	cpse	r24, r1
     a0c:	14 c0       	rjmp	.+40     	; 0xa36 <do_state_drive+0x6c>
     a0e:	80 91 0a 02 	lds	r24, 0x020A	; 0x80020a <lineSensors+0x17>
     a12:	81 11       	cpse	r24, r1
     a14:	10 c0       	rjmp	.+32     	; 0xa36 <do_state_drive+0x6c>
     a16:	80 91 0b 02 	lds	r24, 0x020B	; 0x80020b <lineSensors+0x18>
     a1a:	81 11       	cpse	r24, r1
     a1c:	0c c0       	rjmp	.+24     	; 0xa36 <do_state_drive+0x6c>
     a1e:	80 91 0c 02 	lds	r24, 0x020C	; 0x80020c <lineSensors+0x19>
     a22:	81 11       	cpse	r24, r1
     a24:	08 c0       	rjmp	.+16     	; 0xa36 <do_state_drive+0x6c>
     a26:	88 81       	ld	r24, Y
     a28:	82 60       	ori	r24, 0x02	; 2
     a2a:	88 83       	st	Y, r24
     a2c:	14 e0       	ldi	r17, 0x04	; 4
     a2e:	03 c0       	rjmp	.+6      	; 0xa36 <do_state_drive+0x6c>
     a30:	13 e0       	ldi	r17, 0x03	; 3
     a32:	01 c0       	rjmp	.+2      	; 0xa36 <do_state_drive+0x6c>
     a34:	14 e0       	ldi	r17, 0x04	; 4
     a36:	81 e0       	ldi	r24, 0x01	; 1
     a38:	0e 94 13 12 	call	0x2426	; 0x2426 <getStopwatch>
     a3c:	88 97       	sbiw	r24, 0x28	; 40
     a3e:	f8 f0       	brcs	.+62     	; 0xa7e <do_state_drive+0xb4>
     a40:	88 81       	ld	r24, Y
     a42:	81 fd       	sbrc	r24, 1
     a44:	1c c0       	rjmp	.+56     	; 0xa7e <do_state_drive+0xb4>
     a46:	0e 94 d9 0a 	call	0x15b2	; 0x15b2 <lineRead>
     a4a:	0e 94 1e 0b 	call	0x163c	; 0x163c <followTrack>
     a4e:	7c 01       	movw	r14, r24
     a50:	60 e0       	ldi	r22, 0x00	; 0
     a52:	70 e0       	ldi	r23, 0x00	; 0
     a54:	81 e0       	ldi	r24, 0x01	; 1
     a56:	90 e0       	ldi	r25, 0x00	; 0
     a58:	0e 94 ce 11 	call	0x239c	; 0x239c <setStopwatch>
     a5c:	b7 01       	movw	r22, r14
     a5e:	6a 50       	subi	r22, 0x0A	; 10
     a60:	71 09       	sbc	r23, r1
     a62:	40 e1       	ldi	r20, 0x10	; 16
     a64:	52 e0       	ldi	r21, 0x02	; 2
     a66:	80 e0       	ldi	r24, 0x00	; 0
     a68:	90 e0       	ldi	r25, 0x00	; 0
     a6a:	0e 94 76 0e 	call	0x1cec	; 0x1cec <pid_Controller>
     a6e:	68 e7       	ldi	r22, 0x78	; 120
     a70:	70 e0       	ldi	r23, 0x00	; 0
     a72:	68 1b       	sub	r22, r24
     a74:	79 0b       	sbc	r23, r25
     a76:	88 58       	subi	r24, 0x88	; 136
     a78:	9f 4f       	sbci	r25, 0xFF	; 255
     a7a:	0e 94 82 0d 	call	0x1b04	; 0x1b04 <motor_speed>
     a7e:	84 e0       	ldi	r24, 0x04	; 4
     a80:	0e 94 13 12 	call	0x2426	; 0x2426 <getStopwatch>
     a84:	85 36       	cpi	r24, 0x65	; 101
     a86:	91 05       	cpc	r25, r1
     a88:	c0 f0       	brcs	.+48     	; 0xaba <do_state_drive+0xf0>
     a8a:	88 81       	ld	r24, Y
     a8c:	84 fb       	bst	r24, 4
     a8e:	22 27       	eor	r18, r18
     a90:	20 f9       	bld	r18, 0
     a92:	91 e0       	ldi	r25, 0x01	; 1
     a94:	92 27       	eor	r25, r18
     a96:	90 fb       	bst	r25, 0
     a98:	84 f9       	bld	r24, 4
     a9a:	88 83       	st	Y, r24
     a9c:	84 ff       	sbrs	r24, 4
     a9e:	04 c0       	rjmp	.+8      	; 0xaa8 <do_state_drive+0xde>
     aa0:	83 e0       	ldi	r24, 0x03	; 3
     aa2:	0e 94 07 10 	call	0x200e	; 0x200e <setStatusLED>
     aa6:	03 c0       	rjmp	.+6      	; 0xaae <do_state_drive+0xe4>
     aa8:	8a e0       	ldi	r24, 0x0A	; 10
     aaa:	0e 94 07 10 	call	0x200e	; 0x200e <setStatusLED>
     aae:	60 e0       	ldi	r22, 0x00	; 0
     ab0:	70 e0       	ldi	r23, 0x00	; 0
     ab2:	84 e0       	ldi	r24, 0x04	; 4
     ab4:	90 e0       	ldi	r25, 0x00	; 0
     ab6:	0e 94 ce 11 	call	0x239c	; 0x239c <setStopwatch>
     aba:	81 2f       	mov	r24, r17
     abc:	df 91       	pop	r29
     abe:	cf 91       	pop	r28
     ac0:	1f 91       	pop	r17
     ac2:	ff 90       	pop	r15
     ac4:	ef 90       	pop	r14
     ac6:	08 95       	ret

00000ac8 <do_state_stop>:
     ac8:	cf 93       	push	r28
     aca:	df 93       	push	r29
     acc:	ec 01       	movw	r28, r24
     ace:	88 81       	ld	r24, Y
     ad0:	82 fd       	sbrc	r24, 2
     ad2:	0d c0       	rjmp	.+26     	; 0xaee <do_state_stop+0x26>
     ad4:	81 e0       	ldi	r24, 0x01	; 1
     ad6:	0e 94 13 12 	call	0x2426	; 0x2426 <getStopwatch>
     ada:	c2 97       	sbiw	r24, 0x32	; 50
     adc:	40 f0       	brcs	.+16     	; 0xaee <do_state_stop+0x26>
     ade:	0e 94 d9 0a 	call	0x15b2	; 0x15b2 <lineRead>
     ae2:	0e 94 81 08 	call	0x1102	; 0x1102 <patternRead>
     ae6:	89 83       	std	Y+1, r24	; 0x01
     ae8:	88 81       	ld	r24, Y
     aea:	84 60       	ori	r24, 0x04	; 4
     aec:	88 83       	st	Y, r24
     aee:	88 81       	ld	r24, Y
     af0:	83 fd       	sbrc	r24, 3
     af2:	0e c0       	rjmp	.+28     	; 0xb10 <do_state_stop+0x48>
     af4:	81 e0       	ldi	r24, 0x01	; 1
     af6:	0e 94 13 12 	call	0x2426	; 0x2426 <getStopwatch>
     afa:	88 3c       	cpi	r24, 0xC8	; 200
     afc:	91 05       	cpc	r25, r1
     afe:	40 f0       	brcs	.+16     	; 0xb10 <do_state_stop+0x48>
     b00:	0e 94 d9 0a 	call	0x15b2	; 0x15b2 <lineRead>
     b04:	0e 94 81 08 	call	0x1102	; 0x1102 <patternRead>
     b08:	8a 83       	std	Y+2, r24	; 0x02
     b0a:	88 81       	ld	r24, Y
     b0c:	88 60       	ori	r24, 0x08	; 8
     b0e:	88 83       	st	Y, r24
     b10:	81 e0       	ldi	r24, 0x01	; 1
     b12:	0e 94 13 12 	call	0x2426	; 0x2426 <getStopwatch>
     b16:	8c 32       	cpi	r24, 0x2C	; 44
     b18:	91 40       	sbci	r25, 0x01	; 1
     b1a:	30 f0       	brcs	.+12     	; 0xb28 <do_state_stop+0x60>
     b1c:	60 e0       	ldi	r22, 0x00	; 0
     b1e:	80 e0       	ldi	r24, 0x00	; 0
     b20:	0e 94 46 0d 	call	0x1a8c	; 0x1a8c <motorDirection>
     b24:	85 e0       	ldi	r24, 0x05	; 5
     b26:	01 c0       	rjmp	.+2      	; 0xb2a <do_state_stop+0x62>
     b28:	84 e0       	ldi	r24, 0x04	; 4
     b2a:	df 91       	pop	r29
     b2c:	cf 91       	pop	r28
     b2e:	08 95       	ret

00000b30 <do_state_debug>:
     b30:	ef 92       	push	r14
     b32:	ff 92       	push	r15
     b34:	0f 93       	push	r16
     b36:	1f 93       	push	r17
     b38:	cf 93       	push	r28
     b3a:	df 93       	push	r29
     b3c:	ec 01       	movw	r28, r24
     b3e:	88 81       	ld	r24, Y
     b40:	81 fd       	sbrc	r24, 1
     b42:	26 c0       	rjmp	.+76     	; 0xb90 <do_state_debug+0x60>
     b44:	80 91 08 02 	lds	r24, 0x0208	; 0x800208 <lineSensors+0x15>
     b48:	81 11       	cpse	r24, r1
     b4a:	04 c0       	rjmp	.+8      	; 0xb54 <do_state_debug+0x24>
     b4c:	80 91 0c 02 	lds	r24, 0x020C	; 0x80020c <lineSensors+0x19>
     b50:	88 23       	and	r24, r24
     b52:	f1 f0       	breq	.+60     	; 0xb90 <do_state_debug+0x60>
     b54:	83 e0       	ldi	r24, 0x03	; 3
     b56:	0e 94 18 10 	call	0x2030	; 0x2030 <enableDevice>
     b5a:	81 e7       	ldi	r24, 0x71	; 113
     b5c:	93 e0       	ldi	r25, 0x03	; 3
     b5e:	9f 93       	push	r25
     b60:	8f 93       	push	r24
     b62:	0e 94 d7 0c 	call	0x19ae	; 0x19ae <_log_Debug>
     b66:	68 e7       	ldi	r22, 0x78	; 120
     b68:	70 e0       	ldi	r23, 0x00	; 0
     b6a:	88 e7       	ldi	r24, 0x78	; 120
     b6c:	90 e0       	ldi	r25, 0x00	; 0
     b6e:	0e 94 82 0d 	call	0x1b04	; 0x1b04 <motor_speed>
     b72:	ea e6       	ldi	r30, 0x6A	; 106
     b74:	f2 e0       	ldi	r31, 0x02	; 2
     b76:	80 81       	ld	r24, Z
     b78:	84 60       	ori	r24, 0x04	; 4
     b7a:	80 83       	st	Z, r24
     b7c:	80 81       	ld	r24, Z
     b7e:	80 61       	ori	r24, 0x10	; 16
     b80:	80 83       	st	Z, r24
     b82:	88 81       	ld	r24, Y
     b84:	82 60       	ori	r24, 0x02	; 2
     b86:	88 83       	st	Y, r24
     b88:	0e 94 78 0a 	call	0x14f0	; 0x14f0 <encoderReset>
     b8c:	0f 90       	pop	r0
     b8e:	0f 90       	pop	r0
     b90:	81 e0       	ldi	r24, 0x01	; 1
     b92:	0e 94 13 12 	call	0x2426	; 0x2426 <getStopwatch>
     b96:	88 97       	sbiw	r24, 0x28	; 40
     b98:	f8 f0       	brcs	.+62     	; 0xbd8 <do_state_debug+0xa8>
     b9a:	88 81       	ld	r24, Y
     b9c:	81 fd       	sbrc	r24, 1
     b9e:	1c c0       	rjmp	.+56     	; 0xbd8 <do_state_debug+0xa8>
     ba0:	0e 94 d9 0a 	call	0x15b2	; 0x15b2 <lineRead>
     ba4:	0e 94 1e 0b 	call	0x163c	; 0x163c <followTrack>
     ba8:	8c 01       	movw	r16, r24
     baa:	60 e0       	ldi	r22, 0x00	; 0
     bac:	70 e0       	ldi	r23, 0x00	; 0
     bae:	81 e0       	ldi	r24, 0x01	; 1
     bb0:	90 e0       	ldi	r25, 0x00	; 0
     bb2:	0e 94 ce 11 	call	0x239c	; 0x239c <setStopwatch>
     bb6:	b8 01       	movw	r22, r16
     bb8:	6a 50       	subi	r22, 0x0A	; 10
     bba:	71 09       	sbc	r23, r1
     bbc:	40 e1       	ldi	r20, 0x10	; 16
     bbe:	52 e0       	ldi	r21, 0x02	; 2
     bc0:	80 e0       	ldi	r24, 0x00	; 0
     bc2:	90 e0       	ldi	r25, 0x00	; 0
     bc4:	0e 94 76 0e 	call	0x1cec	; 0x1cec <pid_Controller>
     bc8:	68 e7       	ldi	r22, 0x78	; 120
     bca:	70 e0       	ldi	r23, 0x00	; 0
     bcc:	68 1b       	sub	r22, r24
     bce:	79 0b       	sbc	r23, r25
     bd0:	88 58       	subi	r24, 0x88	; 136
     bd2:	9f 4f       	sbci	r25, 0xFF	; 255
     bd4:	0e 94 82 0d 	call	0x1b04	; 0x1b04 <motor_speed>
     bd8:	84 e0       	ldi	r24, 0x04	; 4
     bda:	0e 94 13 12 	call	0x2426	; 0x2426 <getStopwatch>
     bde:	44 97       	sbiw	r24, 0x14	; 20
     be0:	f0 f1       	brcs	.+124    	; 0xc5e <do_state_debug+0x12e>
     be2:	88 81       	ld	r24, Y
     be4:	81 ff       	sbrs	r24, 1
     be6:	3d c0       	rjmp	.+122    	; 0xc62 <do_state_debug+0x132>
     be8:	60 e0       	ldi	r22, 0x00	; 0
     bea:	70 e0       	ldi	r23, 0x00	; 0
     bec:	84 e0       	ldi	r24, 0x04	; 4
     bee:	90 e0       	ldi	r25, 0x00	; 0
     bf0:	0e 94 ce 11 	call	0x239c	; 0x239c <setStopwatch>
     bf4:	0e 94 d9 0a 	call	0x15b2	; 0x15b2 <lineRead>
     bf8:	0e 94 81 08 	call	0x1102	; 0x1102 <patternRead>
     bfc:	89 83       	std	Y+1, r24	; 0x01
     bfe:	90 e0       	ldi	r25, 0x00	; 0
     c00:	0e 94 5b 08 	call	0x10b6	; 0x10b6 <dezToBin>
     c04:	f8 2e       	mov	r15, r24
     c06:	e9 2e       	mov	r14, r25
     c08:	eb ed       	ldi	r30, 0xDB	; 219
     c0a:	f1 e0       	ldi	r31, 0x01	; 1
     c0c:	06 81       	ldd	r16, Z+6	; 0x06
     c0e:	17 81       	ldd	r17, Z+7	; 0x07
     c10:	80 85       	ldd	r24, Z+8	; 0x08
     c12:	91 85       	ldd	r25, Z+9	; 0x09
     c14:	08 0f       	add	r16, r24
     c16:	19 1f       	adc	r17, r25
     c18:	80 e1       	ldi	r24, 0x10	; 16
     c1a:	0e 94 13 12 	call	0x2426	; 0x2426 <getStopwatch>
     c1e:	ef 92       	push	r14
     c20:	ff 92       	push	r15
     c22:	1f 93       	push	r17
     c24:	0f 93       	push	r16
     c26:	9f 93       	push	r25
     c28:	8f 93       	push	r24
     c2a:	8f e5       	ldi	r24, 0x5F	; 95
     c2c:	93 e0       	ldi	r25, 0x03	; 3
     c2e:	9f 93       	push	r25
     c30:	8f 93       	push	r24
     c32:	0e 94 d7 0c 	call	0x19ae	; 0x19ae <_log_Debug>
     c36:	80 e1       	ldi	r24, 0x10	; 16
     c38:	0e 94 13 12 	call	0x2426	; 0x2426 <getStopwatch>
     c3c:	2d b7       	in	r18, 0x3d	; 61
     c3e:	3e b7       	in	r19, 0x3e	; 62
     c40:	28 5f       	subi	r18, 0xF8	; 248
     c42:	3f 4f       	sbci	r19, 0xFF	; 255
     c44:	0f b6       	in	r0, 0x3f	; 63
     c46:	f8 94       	cli
     c48:	3e bf       	out	0x3e, r19	; 62
     c4a:	0f be       	out	0x3f, r0	; 63
     c4c:	2d bf       	out	0x3d, r18	; 61
     c4e:	85 3f       	cpi	r24, 0xF5	; 245
     c50:	91 40       	sbci	r25, 0x01	; 1
     c52:	48 f0       	brcs	.+18     	; 0xc66 <do_state_debug+0x136>
     c54:	83 e0       	ldi	r24, 0x03	; 3
     c56:	0e 94 36 10 	call	0x206c	; 0x206c <disableDevice>
     c5a:	10 e0       	ldi	r17, 0x00	; 0
     c5c:	05 c0       	rjmp	.+10     	; 0xc68 <do_state_debug+0x138>
     c5e:	12 e0       	ldi	r17, 0x02	; 2
     c60:	03 c0       	rjmp	.+6      	; 0xc68 <do_state_debug+0x138>
     c62:	12 e0       	ldi	r17, 0x02	; 2
     c64:	01 c0       	rjmp	.+2      	; 0xc68 <do_state_debug+0x138>
     c66:	12 e0       	ldi	r17, 0x02	; 2
     c68:	88 e0       	ldi	r24, 0x08	; 8
     c6a:	0e 94 13 12 	call	0x2426	; 0x2426 <getStopwatch>
     c6e:	85 36       	cpi	r24, 0x65	; 101
     c70:	91 05       	cpc	r25, r1
     c72:	c0 f0       	brcs	.+48     	; 0xca4 <do_state_debug+0x174>
     c74:	88 81       	ld	r24, Y
     c76:	84 fb       	bst	r24, 4
     c78:	22 27       	eor	r18, r18
     c7a:	20 f9       	bld	r18, 0
     c7c:	91 e0       	ldi	r25, 0x01	; 1
     c7e:	92 27       	eor	r25, r18
     c80:	90 fb       	bst	r25, 0
     c82:	84 f9       	bld	r24, 4
     c84:	88 83       	st	Y, r24
     c86:	84 ff       	sbrs	r24, 4
     c88:	04 c0       	rjmp	.+8      	; 0xc92 <do_state_debug+0x162>
     c8a:	83 e0       	ldi	r24, 0x03	; 3
     c8c:	0e 94 07 10 	call	0x200e	; 0x200e <setStatusLED>
     c90:	03 c0       	rjmp	.+6      	; 0xc98 <do_state_debug+0x168>
     c92:	8a e0       	ldi	r24, 0x0A	; 10
     c94:	0e 94 07 10 	call	0x200e	; 0x200e <setStatusLED>
     c98:	60 e0       	ldi	r22, 0x00	; 0
     c9a:	70 e0       	ldi	r23, 0x00	; 0
     c9c:	88 e0       	ldi	r24, 0x08	; 8
     c9e:	90 e0       	ldi	r25, 0x00	; 0
     ca0:	0e 94 ce 11 	call	0x239c	; 0x239c <setStopwatch>
     ca4:	81 2f       	mov	r24, r17
     ca6:	df 91       	pop	r29
     ca8:	cf 91       	pop	r28
     caa:	1f 91       	pop	r17
     cac:	0f 91       	pop	r16
     cae:	ff 90       	pop	r15
     cb0:	ef 90       	pop	r14
     cb2:	08 95       	ret

00000cb4 <do_state_control>:
     cb4:	ef 92       	push	r14
     cb6:	ff 92       	push	r15
     cb8:	0f 93       	push	r16
     cba:	1f 93       	push	r17
     cbc:	cf 93       	push	r28
     cbe:	df 93       	push	r29
     cc0:	cd b7       	in	r28, 0x3d	; 61
     cc2:	de b7       	in	r29, 0x3e	; 62
     cc4:	2f 97       	sbiw	r28, 0x0f	; 15
     cc6:	0f b6       	in	r0, 0x3f	; 63
     cc8:	f8 94       	cli
     cca:	de bf       	out	0x3e, r29	; 62
     ccc:	0f be       	out	0x3f, r0	; 63
     cce:	cd bf       	out	0x3d, r28	; 61
     cd0:	8c 01       	movw	r16, r24
     cd2:	fc 01       	movw	r30, r24
     cd4:	62 81       	ldd	r22, Z+2	; 0x02
     cd6:	81 81       	ldd	r24, Z+1	; 0x01
     cd8:	0e 94 99 08 	call	0x1132	; 0x1132 <validateIntersection>
     cdc:	f8 01       	movw	r30, r16
     cde:	83 83       	std	Z+3, r24	; 0x03
     ce0:	68 2f       	mov	r22, r24
     ce2:	ce 01       	movw	r24, r28
     ce4:	01 96       	adiw	r24, 0x01	; 1
     ce6:	7c 01       	movw	r14, r24
     ce8:	0e 94 c1 08 	call	0x1182	; 0x1182 <printIntersection>
     cec:	ff 92       	push	r15
     cee:	ef 92       	push	r14
     cf0:	82 e3       	ldi	r24, 0x32	; 50
     cf2:	93 e0       	ldi	r25, 0x03	; 3
     cf4:	9f 93       	push	r25
     cf6:	8f 93       	push	r24
     cf8:	0e 94 a8 18 	call	0x3150	; 0x3150 <printf_P>
     cfc:	f8 01       	movw	r30, r16
     cfe:	83 81       	ldd	r24, Z+3	; 0x03
     d00:	0e 94 49 09 	call	0x1292	; 0x1292 <mazeSearch>
     d04:	f8 01       	movw	r30, r16
     d06:	84 83       	std	Z+4, r24	; 0x04
     d08:	90 81       	ld	r25, Z
     d0a:	0f 90       	pop	r0
     d0c:	0f 90       	pop	r0
     d0e:	0f 90       	pop	r0
     d10:	0f 90       	pop	r0
     d12:	90 fd       	sbrc	r25, 0
     d14:	2d c0       	rjmp	.+90     	; 0xd70 <do_state_control+0xbc>
     d16:	93 81       	ldd	r25, Z+3	; 0x03
     d18:	91 50       	subi	r25, 0x01	; 1
     d1a:	92 30       	cpi	r25, 0x02	; 2
     d1c:	08 f4       	brcc	.+2      	; 0xd20 <do_state_control+0x6c>
     d1e:	58 c0       	rjmp	.+176    	; 0xdd0 <do_state_control+0x11c>
     d20:	e0 91 0f 02 	lds	r30, 0x020F	; 0x80020f <pathIndex>
     d24:	91 e0       	ldi	r25, 0x01	; 1
     d26:	9e 0f       	add	r25, r30
     d28:	90 93 0f 02 	sts	0x020F, r25	; 0x80020f <pathIndex>
     d2c:	f0 e0       	ldi	r31, 0x00	; 0
     d2e:	ee 5d       	subi	r30, 0xDE	; 222
     d30:	fd 4f       	sbci	r31, 0xFD	; 253
     d32:	80 83       	st	Z, r24
     d34:	e9 2f       	mov	r30, r25
     d36:	f0 e0       	ldi	r31, 0x00	; 0
     d38:	ee 5d       	subi	r30, 0xDE	; 222
     d3a:	fd 4f       	sbci	r31, 0xFD	; 253
     d3c:	10 82       	st	Z, r1
     d3e:	91 33       	cpi	r25, 0x31	; 49
     d40:	28 f0       	brcs	.+10     	; 0xd4c <do_state_control+0x98>
     d42:	82 e0       	ldi	r24, 0x02	; 2
     d44:	f8 01       	movw	r30, r16
     d46:	85 83       	std	Z+5, r24	; 0x05
     d48:	88 e0       	ldi	r24, 0x08	; 8
     d4a:	45 c0       	rjmp	.+138    	; 0xdd6 <do_state_control+0x122>
     d4c:	f8 01       	movw	r30, r16
     d4e:	84 81       	ldd	r24, Z+4	; 0x04
     d50:	81 11       	cpse	r24, r1
     d52:	05 c0       	rjmp	.+10     	; 0xd5e <do_state_control+0xaa>
     d54:	0f 2e       	mov	r0, r31
     d56:	f7 e0       	ldi	r31, 0x07	; 7
     d58:	ff 2e       	mov	r15, r31
     d5a:	f0 2d       	mov	r31, r0
     d5c:	04 c0       	rjmp	.+8      	; 0xd66 <do_state_control+0xb2>
     d5e:	0f 2e       	mov	r0, r31
     d60:	f6 e0       	ldi	r31, 0x06	; 6
     d62:	ff 2e       	mov	r15, r31
     d64:	f0 2d       	mov	r31, r0
     d66:	f8 01       	movw	r30, r16
     d68:	80 81       	ld	r24, Z
     d6a:	80 ff       	sbrs	r24, 0
     d6c:	29 c0       	rjmp	.+82     	; 0xdc0 <do_state_control+0x10c>
     d6e:	04 c0       	rjmp	.+8      	; 0xd78 <do_state_control+0xc4>
     d70:	0f 2e       	mov	r0, r31
     d72:	f6 e0       	ldi	r31, 0x06	; 6
     d74:	ff 2e       	mov	r15, r31
     d76:	f0 2d       	mov	r31, r0
     d78:	f8 01       	movw	r30, r16
     d7a:	63 81       	ldd	r22, Z+3	; 0x03
     d7c:	8f ef       	ldi	r24, 0xFF	; 255
     d7e:	86 0f       	add	r24, r22
     d80:	82 30       	cpi	r24, 0x02	; 2
     d82:	00 f1       	brcs	.+64     	; 0xdc4 <do_state_control+0x110>
     d84:	e0 91 0f 02 	lds	r30, 0x020F	; 0x80020f <pathIndex>
     d88:	f0 e0       	ldi	r31, 0x00	; 0
     d8a:	ee 5d       	subi	r30, 0xDE	; 222
     d8c:	fd 4f       	sbci	r31, 0xFD	; 253
     d8e:	80 81       	ld	r24, Z
     d90:	88 23       	and	r24, r24
     d92:	d1 f0       	breq	.+52     	; 0xdc8 <do_state_control+0x114>
     d94:	0e 94 46 0a 	call	0x148c	; 0x148c <pathCompare>
     d98:	88 23       	and	r24, r24
     d9a:	71 f0       	breq	.+28     	; 0xdb8 <do_state_control+0x104>
     d9c:	e0 91 0f 02 	lds	r30, 0x020F	; 0x80020f <pathIndex>
     da0:	81 e0       	ldi	r24, 0x01	; 1
     da2:	8e 0f       	add	r24, r30
     da4:	80 93 0f 02 	sts	0x020F, r24	; 0x80020f <pathIndex>
     da8:	f0 e0       	ldi	r31, 0x00	; 0
     daa:	ee 5d       	subi	r30, 0xDE	; 222
     dac:	fd 4f       	sbci	r31, 0xFD	; 253
     dae:	80 81       	ld	r24, Z
     db0:	f8 01       	movw	r30, r16
     db2:	84 83       	std	Z+4, r24	; 0x04
     db4:	8f 2d       	mov	r24, r15
     db6:	0f c0       	rjmp	.+30     	; 0xdd6 <do_state_control+0x122>
     db8:	f8 01       	movw	r30, r16
     dba:	15 82       	std	Z+5, r1	; 0x05
     dbc:	88 e0       	ldi	r24, 0x08	; 8
     dbe:	0b c0       	rjmp	.+22     	; 0xdd6 <do_state_control+0x122>
     dc0:	8f 2d       	mov	r24, r15
     dc2:	09 c0       	rjmp	.+18     	; 0xdd6 <do_state_control+0x122>
     dc4:	8f 2d       	mov	r24, r15
     dc6:	07 c0       	rjmp	.+14     	; 0xdd6 <do_state_control+0x122>
     dc8:	87 e0       	ldi	r24, 0x07	; 7
     dca:	05 c0       	rjmp	.+10     	; 0xdd6 <do_state_control+0x122>
     dcc:	86 e0       	ldi	r24, 0x06	; 6
     dce:	03 c0       	rjmp	.+6      	; 0xdd6 <do_state_control+0x122>
     dd0:	81 11       	cpse	r24, r1
     dd2:	fc cf       	rjmp	.-8      	; 0xdcc <do_state_control+0x118>
     dd4:	87 e0       	ldi	r24, 0x07	; 7
     dd6:	2f 96       	adiw	r28, 0x0f	; 15
     dd8:	0f b6       	in	r0, 0x3f	; 63
     dda:	f8 94       	cli
     ddc:	de bf       	out	0x3e, r29	; 62
     dde:	0f be       	out	0x3f, r0	; 63
     de0:	cd bf       	out	0x3d, r28	; 61
     de2:	df 91       	pop	r29
     de4:	cf 91       	pop	r28
     de6:	1f 91       	pop	r17
     de8:	0f 91       	pop	r16
     dea:	ff 90       	pop	r15
     dec:	ef 90       	pop	r14
     dee:	08 95       	ret

00000df0 <in_state_turn>:
     df0:	cf 93       	push	r28
     df2:	df 93       	push	r29
     df4:	ec 01       	movw	r28, r24
     df6:	80 e0       	ldi	r24, 0x00	; 0
     df8:	0e 94 07 10 	call	0x200e	; 0x200e <setStatusLED>
     dfc:	8c 81       	ldd	r24, Y+4	; 0x04
     dfe:	8c 34       	cpi	r24, 0x4C	; 76
     e00:	39 f4       	brne	.+14     	; 0xe10 <in_state_turn+0x20>
     e02:	41 e0       	ldi	r20, 0x01	; 1
     e04:	62 e7       	ldi	r22, 0x72	; 114
     e06:	71 e0       	ldi	r23, 0x01	; 1
     e08:	80 e0       	ldi	r24, 0x00	; 0
     e0a:	0e 94 bb 0d 	call	0x1b76	; 0x1b76 <rotate>
     e0e:	11 c0       	rjmp	.+34     	; 0xe32 <in_state_turn+0x42>
     e10:	82 35       	cpi	r24, 0x52	; 82
     e12:	39 f4       	brne	.+14     	; 0xe22 <in_state_turn+0x32>
     e14:	41 e0       	ldi	r20, 0x01	; 1
     e16:	62 e7       	ldi	r22, 0x72	; 114
     e18:	71 e0       	ldi	r23, 0x01	; 1
     e1a:	81 e0       	ldi	r24, 0x01	; 1
     e1c:	0e 94 bb 0d 	call	0x1b76	; 0x1b76 <rotate>
     e20:	08 c0       	rjmp	.+16     	; 0xe32 <in_state_turn+0x42>
     e22:	85 35       	cpi	r24, 0x55	; 85
     e24:	31 f4       	brne	.+12     	; 0xe32 <in_state_turn+0x42>
     e26:	41 e0       	ldi	r20, 0x01	; 1
     e28:	60 e2       	ldi	r22, 0x20	; 32
     e2a:	73 e0       	ldi	r23, 0x03	; 3
     e2c:	81 e0       	ldi	r24, 0x01	; 1
     e2e:	0e 94 bb 0d 	call	0x1b76	; 0x1b76 <rotate>
     e32:	ca e6       	ldi	r28, 0x6A	; 106
     e34:	d2 e0       	ldi	r29, 0x02	; 2
     e36:	88 81       	ld	r24, Y
     e38:	8e 7f       	andi	r24, 0xFE	; 254
     e3a:	88 83       	st	Y, r24
     e3c:	60 e0       	ldi	r22, 0x00	; 0
     e3e:	70 e0       	ldi	r23, 0x00	; 0
     e40:	81 e0       	ldi	r24, 0x01	; 1
     e42:	90 e0       	ldi	r25, 0x00	; 0
     e44:	0e 94 ce 11 	call	0x239c	; 0x239c <setStopwatch>
     e48:	88 81       	ld	r24, Y
     e4a:	82 60       	ori	r24, 0x02	; 2
     e4c:	88 83       	st	Y, r24
     e4e:	df 91       	pop	r29
     e50:	cf 91       	pop	r28
     e52:	08 95       	ret

00000e54 <in_state_finish>:
     e54:	0f 93       	push	r16
     e56:	1f 93       	push	r17
     e58:	cf 93       	push	r28
     e5a:	df 93       	push	r29
     e5c:	ec 01       	movw	r28, r24
     e5e:	88 81       	ld	r24, Y
     e60:	80 fd       	sbrc	r24, 0
     e62:	39 c0       	rjmp	.+114    	; 0xed6 <in_state_finish+0x82>
     e64:	8f ee       	ldi	r24, 0xEF	; 239
     e66:	92 e0       	ldi	r25, 0x02	; 2
     e68:	9f 93       	push	r25
     e6a:	8f 93       	push	r24
     e6c:	0e 94 a8 18 	call	0x3150	; 0x3150 <printf_P>
     e70:	02 e2       	ldi	r16, 0x22	; 34
     e72:	12 e0       	ldi	r17, 0x02	; 2
     e74:	1f 93       	push	r17
     e76:	0f 93       	push	r16
     e78:	8e ed       	ldi	r24, 0xDE	; 222
     e7a:	92 e0       	ldi	r25, 0x02	; 2
     e7c:	9f 93       	push	r25
     e7e:	8f 93       	push	r24
     e80:	0e 94 a8 18 	call	0x3150	; 0x3150 <printf_P>
     e84:	c8 01       	movw	r24, r16
     e86:	0e 94 a9 09 	call	0x1352	; 0x1352 <mazeOptimize>
     e8a:	1f 93       	push	r17
     e8c:	0f 93       	push	r16
     e8e:	8a ec       	ldi	r24, 0xCA	; 202
     e90:	92 e0       	ldi	r25, 0x02	; 2
     e92:	9f 93       	push	r25
     e94:	8f 93       	push	r24
     e96:	0e 94 a8 18 	call	0x3150	; 0x3150 <printf_P>
     e9a:	10 92 0f 02 	sts	0x020F, r1	; 0x80020f <pathIndex>
     e9e:	0e 94 ec 0f 	call	0x1fd8	; 0x1fd8 <batt_voltage>
     ea2:	9f 93       	push	r25
     ea4:	8f 93       	push	r24
     ea6:	81 ec       	ldi	r24, 0xC1	; 193
     ea8:	92 e0       	ldi	r25, 0x02	; 2
     eaa:	9f 93       	push	r25
     eac:	8f 93       	push	r24
     eae:	0e 94 a8 18 	call	0x3150	; 0x3150 <printf_P>
     eb2:	87 e9       	ldi	r24, 0x97	; 151
     eb4:	92 e0       	ldi	r25, 0x02	; 2
     eb6:	9f 93       	push	r25
     eb8:	8f 93       	push	r24
     eba:	0e 94 a8 18 	call	0x3150	; 0x3150 <printf_P>
     ebe:	88 81       	ld	r24, Y
     ec0:	81 60       	ori	r24, 0x01	; 1
     ec2:	88 83       	st	Y, r24
     ec4:	8d b7       	in	r24, 0x3d	; 61
     ec6:	9e b7       	in	r25, 0x3e	; 62
     ec8:	40 96       	adiw	r24, 0x10	; 16
     eca:	0f b6       	in	r0, 0x3f	; 63
     ecc:	f8 94       	cli
     ece:	9e bf       	out	0x3e, r25	; 62
     ed0:	0f be       	out	0x3f, r0	; 63
     ed2:	8d bf       	out	0x3d, r24	; 61
     ed4:	20 c0       	rjmp	.+64     	; 0xf16 <in_state_finish+0xc2>
     ed6:	83 e6       	ldi	r24, 0x63	; 99
     ed8:	92 e0       	ldi	r25, 0x02	; 2
     eda:	9f 93       	push	r25
     edc:	8f 93       	push	r24
     ede:	0e 94 a8 18 	call	0x3150	; 0x3150 <printf_P>
     ee2:	0e 94 ec 0f 	call	0x1fd8	; 0x1fd8 <batt_voltage>
     ee6:	9f 93       	push	r25
     ee8:	8f 93       	push	r24
     eea:	8a e5       	ldi	r24, 0x5A	; 90
     eec:	92 e0       	ldi	r25, 0x02	; 2
     eee:	9f 93       	push	r25
     ef0:	8f 93       	push	r24
     ef2:	0e 94 a8 18 	call	0x3150	; 0x3150 <printf_P>
     ef6:	89 e2       	ldi	r24, 0x29	; 41
     ef8:	92 e0       	ldi	r25, 0x02	; 2
     efa:	9f 93       	push	r25
     efc:	8f 93       	push	r24
     efe:	0e 94 a8 18 	call	0x3150	; 0x3150 <printf_P>
     f02:	10 92 0f 02 	sts	0x020F, r1	; 0x80020f <pathIndex>
     f06:	8d b7       	in	r24, 0x3d	; 61
     f08:	9e b7       	in	r25, 0x3e	; 62
     f0a:	08 96       	adiw	r24, 0x08	; 8
     f0c:	0f b6       	in	r0, 0x3f	; 63
     f0e:	f8 94       	cli
     f10:	9e bf       	out	0x3e, r25	; 62
     f12:	0f be       	out	0x3f, r0	; 63
     f14:	8d bf       	out	0x3d, r24	; 61
     f16:	46 9a       	sbi	0x08, 6	; 8
     f18:	80 e0       	ldi	r24, 0x00	; 0
     f1a:	0e 94 07 10 	call	0x200e	; 0x200e <setStatusLED>
     f1e:	60 e0       	ldi	r22, 0x00	; 0
     f20:	70 e0       	ldi	r23, 0x00	; 0
     f22:	81 e0       	ldi	r24, 0x01	; 1
     f24:	90 e0       	ldi	r25, 0x00	; 0
     f26:	0e 94 ce 11 	call	0x239c	; 0x239c <setStopwatch>
     f2a:	ca e6       	ldi	r28, 0x6A	; 106
     f2c:	d2 e0       	ldi	r29, 0x02	; 2
     f2e:	88 81       	ld	r24, Y
     f30:	8e 7f       	andi	r24, 0xFE	; 254
     f32:	88 83       	st	Y, r24
     f34:	60 e0       	ldi	r22, 0x00	; 0
     f36:	70 e0       	ldi	r23, 0x00	; 0
     f38:	82 e0       	ldi	r24, 0x02	; 2
     f3a:	90 e0       	ldi	r25, 0x00	; 0
     f3c:	0e 94 ce 11 	call	0x239c	; 0x239c <setStopwatch>
     f40:	88 81       	ld	r24, Y
     f42:	82 60       	ori	r24, 0x02	; 2
     f44:	88 83       	st	Y, r24
     f46:	df 91       	pop	r29
     f48:	cf 91       	pop	r28
     f4a:	1f 91       	pop	r17
     f4c:	0f 91       	pop	r16
     f4e:	08 95       	ret

00000f50 <in_state_error>:
     f50:	cf 93       	push	r28
     f52:	df 93       	push	r29
     f54:	ec 01       	movw	r28, r24
     f56:	46 98       	cbi	0x08, 6	; 8
     f58:	8d 81       	ldd	r24, Y+5	; 0x05
     f5a:	1f 92       	push	r1
     f5c:	8f 93       	push	r24
     f5e:	89 e1       	ldi	r24, 0x19	; 25
     f60:	92 e0       	ldi	r25, 0x02	; 2
     f62:	9f 93       	push	r25
     f64:	8f 93       	push	r24
     f66:	0e 94 21 0d 	call	0x1a42	; 0x1a42 <_log_Error>
     f6a:	0f 90       	pop	r0
     f6c:	0f 90       	pop	r0
     f6e:	0f 90       	pop	r0
     f70:	0f 90       	pop	r0
     f72:	8d 81       	ldd	r24, Y+5	; 0x05
     f74:	81 30       	cpi	r24, 0x01	; 1
     f76:	69 f0       	breq	.+26     	; 0xf92 <in_state_error+0x42>
     f78:	18 f0       	brcs	.+6      	; 0xf80 <in_state_error+0x30>
     f7a:	82 30       	cpi	r24, 0x02	; 2
     f7c:	99 f0       	breq	.+38     	; 0xfa4 <in_state_error+0x54>
     f7e:	1b c0       	rjmp	.+54     	; 0xfb6 <in_state_error+0x66>
     f80:	8f ed       	ldi	r24, 0xDF	; 223
     f82:	91 e0       	ldi	r25, 0x01	; 1
     f84:	9f 93       	push	r25
     f86:	8f 93       	push	r24
     f88:	0e 94 21 0d 	call	0x1a42	; 0x1a42 <_log_Error>
     f8c:	0f 90       	pop	r0
     f8e:	0f 90       	pop	r0
     f90:	1a c0       	rjmp	.+52     	; 0xfc6 <in_state_error+0x76>
     f92:	86 ec       	ldi	r24, 0xC6	; 198
     f94:	91 e0       	ldi	r25, 0x01	; 1
     f96:	9f 93       	push	r25
     f98:	8f 93       	push	r24
     f9a:	0e 94 21 0d 	call	0x1a42	; 0x1a42 <_log_Error>
     f9e:	0f 90       	pop	r0
     fa0:	0f 90       	pop	r0
     fa2:	11 c0       	rjmp	.+34     	; 0xfc6 <in_state_error+0x76>
     fa4:	84 eb       	ldi	r24, 0xB4	; 180
     fa6:	91 e0       	ldi	r25, 0x01	; 1
     fa8:	9f 93       	push	r25
     faa:	8f 93       	push	r24
     fac:	0e 94 21 0d 	call	0x1a42	; 0x1a42 <_log_Error>
     fb0:	0f 90       	pop	r0
     fb2:	0f 90       	pop	r0
     fb4:	08 c0       	rjmp	.+16     	; 0xfc6 <in_state_error+0x76>
     fb6:	86 ea       	ldi	r24, 0xA6	; 166
     fb8:	91 e0       	ldi	r25, 0x01	; 1
     fba:	9f 93       	push	r25
     fbc:	8f 93       	push	r24
     fbe:	0e 94 21 0d 	call	0x1a42	; 0x1a42 <_log_Error>
     fc2:	0f 90       	pop	r0
     fc4:	0f 90       	pop	r0
     fc6:	0e 94 ec 0f 	call	0x1fd8	; 0x1fd8 <batt_voltage>
     fca:	9f 93       	push	r25
     fcc:	8f 93       	push	r24
     fce:	8e e9       	ldi	r24, 0x9E	; 158
     fd0:	91 e0       	ldi	r25, 0x01	; 1
     fd2:	9f 93       	push	r25
     fd4:	8f 93       	push	r24
     fd6:	0e 94 fc 0c 	call	0x19f8	; 0x19f8 <_log_Info>
     fda:	ea e6       	ldi	r30, 0x6A	; 106
     fdc:	f2 e0       	ldi	r31, 0x02	; 2
     fde:	80 81       	ld	r24, Z
     fe0:	81 60       	ori	r24, 0x01	; 1
     fe2:	80 83       	st	Z, r24
     fe4:	60 e0       	ldi	r22, 0x00	; 0
     fe6:	70 e0       	ldi	r23, 0x00	; 0
     fe8:	81 e0       	ldi	r24, 0x01	; 1
     fea:	90 e0       	ldi	r25, 0x00	; 0
     fec:	0e 94 ce 11 	call	0x239c	; 0x239c <setStopwatch>
     ff0:	0f 90       	pop	r0
     ff2:	0f 90       	pop	r0
     ff4:	0f 90       	pop	r0
     ff6:	0f 90       	pop	r0
     ff8:	df 91       	pop	r29
     ffa:	cf 91       	pop	r28
     ffc:	08 95       	ret

00000ffe <run_state>:
     ffe:	ef 92       	push	r14
    1000:	ff 92       	push	r15
    1002:	0f 93       	push	r16
    1004:	1f 93       	push	r17
    1006:	cf 93       	push	r28
    1008:	df 93       	push	r29
    100a:	e8 2e       	mov	r14, r24
    100c:	8b 01       	movw	r16, r22
    100e:	c8 2f       	mov	r28, r24
    1010:	d0 e0       	ldi	r29, 0x00	; 0
    1012:	fe 01       	movw	r30, r28
    1014:	ee 0f       	add	r30, r30
    1016:	ff 1f       	adc	r31, r31
    1018:	e8 5c       	subi	r30, 0xC8	; 200
    101a:	fe 4f       	sbci	r31, 0xFE	; 254
    101c:	01 90       	ld	r0, Z+
    101e:	f0 81       	ld	r31, Z
    1020:	e0 2d       	mov	r30, r0
    1022:	cb 01       	movw	r24, r22
    1024:	09 95       	icall
    1026:	f8 2e       	mov	r15, r24
    1028:	e8 16       	cp	r14, r24
    102a:	d9 f0       	breq	.+54     	; 0x1062 <run_state+0x64>
    102c:	cc 0f       	add	r28, r28
    102e:	dd 1f       	adc	r29, r29
    1030:	cc 0f       	add	r28, r28
    1032:	dd 1f       	adc	r29, r29
    1034:	cc 5e       	subi	r28, 0xEC	; 236
    1036:	de 4f       	sbci	r29, 0xFE	; 254
    1038:	ea 81       	ldd	r30, Y+2	; 0x02
    103a:	fb 81       	ldd	r31, Y+3	; 0x03
    103c:	30 97       	sbiw	r30, 0x00	; 0
    103e:	11 f0       	breq	.+4      	; 0x1044 <run_state+0x46>
    1040:	c8 01       	movw	r24, r16
    1042:	09 95       	icall
    1044:	ef 2d       	mov	r30, r15
    1046:	f0 e0       	ldi	r31, 0x00	; 0
    1048:	ee 0f       	add	r30, r30
    104a:	ff 1f       	adc	r31, r31
    104c:	ee 0f       	add	r30, r30
    104e:	ff 1f       	adc	r31, r31
    1050:	ec 5e       	subi	r30, 0xEC	; 236
    1052:	fe 4f       	sbci	r31, 0xFE	; 254
    1054:	01 90       	ld	r0, Z+
    1056:	f0 81       	ld	r31, Z
    1058:	e0 2d       	mov	r30, r0
    105a:	30 97       	sbiw	r30, 0x00	; 0
    105c:	11 f0       	breq	.+4      	; 0x1062 <run_state+0x64>
    105e:	c8 01       	movw	r24, r16
    1060:	09 95       	icall
    1062:	8f 2d       	mov	r24, r15
    1064:	df 91       	pop	r29
    1066:	cf 91       	pop	r28
    1068:	1f 91       	pop	r17
    106a:	0f 91       	pop	r16
    106c:	ff 90       	pop	r15
    106e:	ef 90       	pop	r14
    1070:	08 95       	ret

00001072 <fsm_task>:

	
	static state_t steuerungsState = STATE_RESET;

	// Aufrufen des aktuellen States
	steuerungsState = run_state(steuerungsState, &steuerungsDaten);		//Statemachine ausfhren
    1072:	6a e4       	ldi	r22, 0x4A	; 74
    1074:	71 e0       	ldi	r23, 0x01	; 1
    1076:	80 91 50 01 	lds	r24, 0x0150	; 0x800150 <steuerungsState.2584>
    107a:	0e 94 ff 07 	call	0xffe	; 0xffe <run_state>
    107e:	80 93 50 01 	sts	0x0150, r24	; 0x800150 <steuerungsState.2584>
    1082:	08 95       	ret

00001084 <main>:
	
uint8_t taskID[TASK_NUMBER];

int main(void)
{
	systemInit();
    1084:	0e 94 ec 10 	call	0x21d8	; 0x21d8 <systemInit>
	taskID[TASK_STATE_MACHINE] = schedulerAddTask(fsm_task, 10, 10);
    1088:	4a e0       	ldi	r20, 0x0A	; 10
    108a:	50 e0       	ldi	r21, 0x00	; 0
    108c:	6a e0       	ldi	r22, 0x0A	; 10
    108e:	70 e0       	ldi	r23, 0x00	; 0
    1090:	89 e3       	ldi	r24, 0x39	; 57
    1092:	98 e0       	ldi	r25, 0x08	; 8
    1094:	0e 94 2a 0f 	call	0x1e54	; 0x1e54 <schedulerAddTask>
    1098:	cd e0       	ldi	r28, 0x0D	; 13
    109a:	d2 e0       	ldi	r29, 0x02	; 2
    109c:	88 83       	st	Y, r24
	taskID[TASK_SYSTEM] = schedulerAddTask(taskSystem, 0, 5); 
    109e:	45 e0       	ldi	r20, 0x05	; 5
    10a0:	50 e0       	ldi	r21, 0x00	; 0
    10a2:	60 e0       	ldi	r22, 0x00	; 0
    10a4:	70 e0       	ldi	r23, 0x00	; 0
    10a6:	85 ee       	ldi	r24, 0xE5	; 229
    10a8:	90 e1       	ldi	r25, 0x10	; 16
    10aa:	0e 94 2a 0f 	call	0x1e54	; 0x1e54 <schedulerAddTask>
    10ae:	89 83       	std	Y+1, r24	; 0x01
	
	while (1)
	{
		schedulerDispatchTasks();
    10b0:	0e 94 98 0f 	call	0x1f30	; 0x1f30 <schedulerDispatchTasks>
    10b4:	fd cf       	rjmp	.-6      	; 0x10b0 <main+0x2c>

000010b6 <dezToBin>:

uint16_t dezToBin(uint16_t dezimal)
{
	uint16_t rest, binaer=0, faktor=1;

	while (dezimal)
    10b6:	00 97       	sbiw	r24, 0x00	; 0
    10b8:	01 f1       	breq	.+64     	; 0x10fa <dezToBin+0x44>
    10ba:	21 e0       	ldi	r18, 0x01	; 1
    10bc:	30 e0       	ldi	r19, 0x00	; 0
    10be:	40 e0       	ldi	r20, 0x00	; 0
    10c0:	50 e0       	ldi	r21, 0x00	; 0
	{
		rest = dezimal % 2;
    10c2:	fc 01       	movw	r30, r24
    10c4:	e1 70       	andi	r30, 0x01	; 1
    10c6:	ff 27       	eor	r31, r31
		dezimal = dezimal / 2;
    10c8:	96 95       	lsr	r25
    10ca:	87 95       	ror	r24
		
		binaer = binaer + rest * faktor;
    10cc:	e2 9f       	mul	r30, r18
    10ce:	b0 01       	movw	r22, r0
    10d0:	e3 9f       	mul	r30, r19
    10d2:	70 0d       	add	r23, r0
    10d4:	f2 9f       	mul	r31, r18
    10d6:	70 0d       	add	r23, r0
    10d8:	11 24       	eor	r1, r1
    10da:	46 0f       	add	r20, r22
    10dc:	57 1f       	adc	r21, r23
		faktor *= 10;
    10de:	b9 01       	movw	r22, r18
    10e0:	66 0f       	add	r22, r22
    10e2:	77 1f       	adc	r23, r23
    10e4:	22 0f       	add	r18, r18
    10e6:	33 1f       	adc	r19, r19
    10e8:	22 0f       	add	r18, r18
    10ea:	33 1f       	adc	r19, r19
    10ec:	22 0f       	add	r18, r18
    10ee:	33 1f       	adc	r19, r19
    10f0:	26 0f       	add	r18, r22
    10f2:	37 1f       	adc	r19, r23

uint16_t dezToBin(uint16_t dezimal)
{
	uint16_t rest, binaer=0, faktor=1;

	while (dezimal)
    10f4:	00 97       	sbiw	r24, 0x00	; 0
    10f6:	29 f7       	brne	.-54     	; 0x10c2 <dezToBin+0xc>
    10f8:	02 c0       	rjmp	.+4      	; 0x10fe <dezToBin+0x48>

//uint8_t LinePattern = 00010101;

uint16_t dezToBin(uint16_t dezimal)
{
	uint16_t rest, binaer=0, faktor=1;
    10fa:	40 e0       	ldi	r20, 0x00	; 0
    10fc:	50 e0       	ldi	r21, 0x00	; 0
		binaer = binaer + rest * faktor;
		faktor *= 10;
	}

	return binaer;
}
    10fe:	ca 01       	movw	r24, r20
    1100:	08 95       	ret

00001102 <patternRead>:

uint8_t patternRead(void)
{
    1102:	e8 e0       	ldi	r30, 0x08	; 8
    1104:	f2 e0       	ldi	r31, 0x02	; 2
    1106:	20 e0       	ldi	r18, 0x00	; 0
    1108:	30 e0       	ldi	r19, 0x00	; 0
	uint8_t pattern = 0;
    110a:	80 e0       	ldi	r24, 0x00	; 0
	for (uint8_t i=0; i<5; i++)
	{
		if (lineSensors.digitalData[i])
			pattern |= (1<<i);
    110c:	61 e0       	ldi	r22, 0x01	; 1
    110e:	70 e0       	ldi	r23, 0x00	; 0
uint8_t patternRead(void)
{
	uint8_t pattern = 0;
	for (uint8_t i=0; i<5; i++)
	{
		if (lineSensors.digitalData[i])
    1110:	91 91       	ld	r25, Z+
    1112:	99 23       	and	r25, r25
    1114:	41 f0       	breq	.+16     	; 0x1126 <patternRead+0x24>
			pattern |= (1<<i);
    1116:	ab 01       	movw	r20, r22
    1118:	02 2e       	mov	r0, r18
    111a:	02 c0       	rjmp	.+4      	; 0x1120 <patternRead+0x1e>
    111c:	44 0f       	add	r20, r20
    111e:	55 1f       	adc	r21, r21
    1120:	0a 94       	dec	r0
    1122:	e2 f7       	brpl	.-8      	; 0x111c <patternRead+0x1a>
    1124:	84 2b       	or	r24, r20
    1126:	2f 5f       	subi	r18, 0xFF	; 255
    1128:	3f 4f       	sbci	r19, 0xFF	; 255
}

uint8_t patternRead(void)
{
	uint8_t pattern = 0;
	for (uint8_t i=0; i<5; i++)
    112a:	25 30       	cpi	r18, 0x05	; 5
    112c:	31 05       	cpc	r19, r1
    112e:	81 f7       	brne	.-32     	; 0x1110 <patternRead+0xe>
		if (lineSensors.digitalData[i])
			pattern |= (1<<i);
	}
	
	return pattern;
}
    1130:	08 95       	ret

00001132 <validateIntersection>:

intersection_t validateIntersection(uint8_t initial, uint8_t second)
{
    1132:	28 2f       	mov	r18, r24
    1134:	21 70       	andi	r18, 0x01	; 1
	intersection_t actualIntersection;
	
	// Auswertung Initial-Scan
	// Prfen auf seitliche Wege
	if ( (initial &  P_LEFT) && (initial & P_RIGHT) )
    1136:	98 2f       	mov	r25, r24
    1138:	91 71       	andi	r25, 0x11	; 17
    113a:	91 31       	cpi	r25, 0x11	; 17
    113c:	89 f0       	breq	.+34     	; 0x1160 <validateIntersection+0x2e>
		actualIntersection = I_T_CROSS;
	else if ( initial & P_LEFT)
    113e:	21 11       	cpse	r18, r1
    1140:	14 c0       	rjmp	.+40     	; 0x116a <validateIntersection+0x38>
		actualIntersection = I_LEFT;
	else if ( initial & P_RIGHT)
    1142:	84 fd       	sbrc	r24, 4
    1144:	17 c0       	rjmp	.+46     	; 0x1174 <validateIntersection+0x42>
		actualIntersection = I_RIGHT;
	else 
		actualIntersection = I_DEAD_END;
    1146:	90 e0       	ldi	r25, 0x00	; 0
    1148:	05 c0       	rjmp	.+10     	; 0x1154 <validateIntersection+0x22>
	
	// Auswertung sekundrer Scan
	// Prfung auf Weg in Fahrtrichtung
	if (actualIntersection==I_T_CROSS && (second & P_FRONT))
		actualIntersection = I_FOUR_WAY;
    114a:	94 e0       	ldi	r25, 0x04	; 4
    114c:	03 c0       	rjmp	.+6      	; 0x1154 <validateIntersection+0x22>
	else if (actualIntersection==I_LEFT && (second & P_FRONT))
		actualIntersection = I_STRAIGHT_LEFT;
    114e:	95 e0       	ldi	r25, 0x05	; 5
    1150:	01 c0       	rjmp	.+2      	; 0x1154 <validateIntersection+0x22>
    1152:	92 e0       	ldi	r25, 0x02	; 2
	else if (actualIntersection==I_RIGHT && (second & P_FRONT))
		actualIntersection = I_STRAIGHT_RIGHT;
	
	if ( (initial == P_END) && (second == P_END) )
    1154:	8f 31       	cpi	r24, 0x1F	; 31
    1156:	99 f4       	brne	.+38     	; 0x117e <validateIntersection+0x4c>
    1158:	6f 31       	cpi	r22, 0x1F	; 31
    115a:	89 f4       	brne	.+34     	; 0x117e <validateIntersection+0x4c>
		actualIntersection = I_END;
    115c:	97 e0       	ldi	r25, 0x07	; 7

	return actualIntersection;
    115e:	0f c0       	rjmp	.+30     	; 0x117e <validateIntersection+0x4c>
	else 
		actualIntersection = I_DEAD_END;
	
	// Auswertung sekundrer Scan
	// Prfung auf Weg in Fahrtrichtung
	if (actualIntersection==I_T_CROSS && (second & P_FRONT))
    1160:	96 2f       	mov	r25, r22
    1162:	9e 70       	andi	r25, 0x0E	; 14
    1164:	91 f7       	brne	.-28     	; 0x114a <validateIntersection+0x18>
	intersection_t actualIntersection;
	
	// Auswertung Initial-Scan
	// Prfen auf seitliche Wege
	if ( (initial &  P_LEFT) && (initial & P_RIGHT) )
		actualIntersection = I_T_CROSS;
    1166:	93 e0       	ldi	r25, 0x03	; 3
    1168:	f5 cf       	rjmp	.-22     	; 0x1154 <validateIntersection+0x22>
	
	// Auswertung sekundrer Scan
	// Prfung auf Weg in Fahrtrichtung
	if (actualIntersection==I_T_CROSS && (second & P_FRONT))
		actualIntersection = I_FOUR_WAY;
	else if (actualIntersection==I_LEFT && (second & P_FRONT))
    116a:	96 2f       	mov	r25, r22
    116c:	9e 70       	andi	r25, 0x0E	; 14
    116e:	79 f7       	brne	.-34     	; 0x114e <validateIntersection+0x1c>
	// Auswertung Initial-Scan
	// Prfen auf seitliche Wege
	if ( (initial &  P_LEFT) && (initial & P_RIGHT) )
		actualIntersection = I_T_CROSS;
	else if ( initial & P_LEFT)
		actualIntersection = I_LEFT;
    1170:	91 e0       	ldi	r25, 0x01	; 1
    1172:	f0 cf       	rjmp	.-32     	; 0x1154 <validateIntersection+0x22>
	// Prfung auf Weg in Fahrtrichtung
	if (actualIntersection==I_T_CROSS && (second & P_FRONT))
		actualIntersection = I_FOUR_WAY;
	else if (actualIntersection==I_LEFT && (second & P_FRONT))
		actualIntersection = I_STRAIGHT_LEFT;
	else if (actualIntersection==I_RIGHT && (second & P_FRONT))
    1174:	96 2f       	mov	r25, r22
    1176:	9e 70       	andi	r25, 0x0E	; 14
    1178:	61 f3       	breq	.-40     	; 0x1152 <validateIntersection+0x20>
		actualIntersection = I_STRAIGHT_RIGHT;
    117a:	96 e0       	ldi	r25, 0x06	; 6
    117c:	eb cf       	rjmp	.-42     	; 0x1154 <validateIntersection+0x22>
	
	if ( (initial == P_END) && (second == P_END) )
		actualIntersection = I_END;

	return actualIntersection;
}
    117e:	89 2f       	mov	r24, r25
    1180:	08 95       	ret

00001182 <printIntersection>:


char *printIntersection(char *interType, intersection_t intersection)
{
    1182:	cf 93       	push	r28
    1184:	df 93       	push	r29
    1186:	d8 2f       	mov	r29, r24
    1188:	c9 2f       	mov	r28, r25
	switch (intersection)
    118a:	86 2f       	mov	r24, r22
    118c:	90 e0       	ldi	r25, 0x00	; 0
    118e:	88 30       	cpi	r24, 0x08	; 8
    1190:	91 05       	cpc	r25, r1
    1192:	08 f0       	brcs	.+2      	; 0x1196 <printIntersection+0x14>
    1194:	6d c0       	rjmp	.+218    	; 0x1270 <printIntersection+0xee>
    1196:	fc 01       	movw	r30, r24
    1198:	e2 5c       	subi	r30, 0xC2	; 194
    119a:	ff 4f       	sbci	r31, 0xFF	; 255
    119c:	0c 94 d6 16 	jmp	0x2dac	; 0x2dac <__tablejump2__>
	{
		case I_DEAD_END:
		sprintf_P(interType, PSTR("Dead End"));
    11a0:	89 e9       	ldi	r24, 0x99	; 153
    11a2:	94 e0       	ldi	r25, 0x04	; 4
    11a4:	9f 93       	push	r25
    11a6:	8f 93       	push	r24
    11a8:	cf 93       	push	r28
    11aa:	df 93       	push	r29
    11ac:	0e 94 ce 18 	call	0x319c	; 0x319c <sprintf_P>
		break;
    11b0:	0f 90       	pop	r0
    11b2:	0f 90       	pop	r0
    11b4:	0f 90       	pop	r0
    11b6:	0f 90       	pop	r0
    11b8:	67 c0       	rjmp	.+206    	; 0x1288 <printIntersection+0x106>
		
		case I_END:
		sprintf_P(interType, PSTR("Finish"));
    11ba:	82 e9       	ldi	r24, 0x92	; 146
    11bc:	94 e0       	ldi	r25, 0x04	; 4
    11be:	9f 93       	push	r25
    11c0:	8f 93       	push	r24
    11c2:	cf 93       	push	r28
    11c4:	df 93       	push	r29
    11c6:	0e 94 ce 18 	call	0x319c	; 0x319c <sprintf_P>
		break;
    11ca:	0f 90       	pop	r0
    11cc:	0f 90       	pop	r0
    11ce:	0f 90       	pop	r0
    11d0:	0f 90       	pop	r0
    11d2:	5a c0       	rjmp	.+180    	; 0x1288 <printIntersection+0x106>
		
		case I_FOUR_WAY:
		sprintf_P(interType, PSTR("Four Way"));
    11d4:	89 e8       	ldi	r24, 0x89	; 137
    11d6:	94 e0       	ldi	r25, 0x04	; 4
    11d8:	9f 93       	push	r25
    11da:	8f 93       	push	r24
    11dc:	cf 93       	push	r28
    11de:	df 93       	push	r29
    11e0:	0e 94 ce 18 	call	0x319c	; 0x319c <sprintf_P>
		break;
    11e4:	0f 90       	pop	r0
    11e6:	0f 90       	pop	r0
    11e8:	0f 90       	pop	r0
    11ea:	0f 90       	pop	r0
    11ec:	4d c0       	rjmp	.+154    	; 0x1288 <printIntersection+0x106>
		
		case I_LEFT:
		sprintf_P(interType, PSTR("Left"));
    11ee:	84 e8       	ldi	r24, 0x84	; 132
    11f0:	94 e0       	ldi	r25, 0x04	; 4
    11f2:	9f 93       	push	r25
    11f4:	8f 93       	push	r24
    11f6:	cf 93       	push	r28
    11f8:	df 93       	push	r29
    11fa:	0e 94 ce 18 	call	0x319c	; 0x319c <sprintf_P>
		break;
    11fe:	0f 90       	pop	r0
    1200:	0f 90       	pop	r0
    1202:	0f 90       	pop	r0
    1204:	0f 90       	pop	r0
    1206:	40 c0       	rjmp	.+128    	; 0x1288 <printIntersection+0x106>
		
		case I_RIGHT:
		sprintf_P(interType, PSTR("Right"));
    1208:	8e e7       	ldi	r24, 0x7E	; 126
    120a:	94 e0       	ldi	r25, 0x04	; 4
    120c:	9f 93       	push	r25
    120e:	8f 93       	push	r24
    1210:	cf 93       	push	r28
    1212:	df 93       	push	r29
    1214:	0e 94 ce 18 	call	0x319c	; 0x319c <sprintf_P>
		break;
    1218:	0f 90       	pop	r0
    121a:	0f 90       	pop	r0
    121c:	0f 90       	pop	r0
    121e:	0f 90       	pop	r0
    1220:	33 c0       	rjmp	.+102    	; 0x1288 <printIntersection+0x106>
		
		case I_T_CROSS:
		sprintf_P(interType, PSTR("T-Way"));
    1222:	88 e7       	ldi	r24, 0x78	; 120
    1224:	94 e0       	ldi	r25, 0x04	; 4
    1226:	9f 93       	push	r25
    1228:	8f 93       	push	r24
    122a:	cf 93       	push	r28
    122c:	df 93       	push	r29
    122e:	0e 94 ce 18 	call	0x319c	; 0x319c <sprintf_P>
		break;
    1232:	0f 90       	pop	r0
    1234:	0f 90       	pop	r0
    1236:	0f 90       	pop	r0
    1238:	0f 90       	pop	r0
    123a:	26 c0       	rjmp	.+76     	; 0x1288 <printIntersection+0x106>
		
		case I_STRAIGHT_LEFT:
		sprintf_P(interType, PSTR("Straight Left"));
    123c:	8a e6       	ldi	r24, 0x6A	; 106
    123e:	94 e0       	ldi	r25, 0x04	; 4
    1240:	9f 93       	push	r25
    1242:	8f 93       	push	r24
    1244:	cf 93       	push	r28
    1246:	df 93       	push	r29
    1248:	0e 94 ce 18 	call	0x319c	; 0x319c <sprintf_P>
		break;
    124c:	0f 90       	pop	r0
    124e:	0f 90       	pop	r0
    1250:	0f 90       	pop	r0
    1252:	0f 90       	pop	r0
    1254:	19 c0       	rjmp	.+50     	; 0x1288 <printIntersection+0x106>
		
		case I_STRAIGHT_RIGHT:
		sprintf_P(interType, PSTR("Straight Right"));
    1256:	8b e5       	ldi	r24, 0x5B	; 91
    1258:	94 e0       	ldi	r25, 0x04	; 4
    125a:	9f 93       	push	r25
    125c:	8f 93       	push	r24
    125e:	cf 93       	push	r28
    1260:	df 93       	push	r29
    1262:	0e 94 ce 18 	call	0x319c	; 0x319c <sprintf_P>
		break;
    1266:	0f 90       	pop	r0
    1268:	0f 90       	pop	r0
    126a:	0f 90       	pop	r0
    126c:	0f 90       	pop	r0
    126e:	0c c0       	rjmp	.+24     	; 0x1288 <printIntersection+0x106>
		
		default:
		sprintf_P(interType, PSTR("Unknown"));
    1270:	83 e5       	ldi	r24, 0x53	; 83
    1272:	94 e0       	ldi	r25, 0x04	; 4
    1274:	9f 93       	push	r25
    1276:	8f 93       	push	r24
    1278:	cf 93       	push	r28
    127a:	df 93       	push	r29
    127c:	0e 94 ce 18 	call	0x319c	; 0x319c <sprintf_P>
		break;
    1280:	0f 90       	pop	r0
    1282:	0f 90       	pop	r0
    1284:	0f 90       	pop	r0
    1286:	0f 90       	pop	r0
	}
	
	return interType;
}
    1288:	8d 2f       	mov	r24, r29
    128a:	9c 2f       	mov	r25, r28
    128c:	df 91       	pop	r29
    128e:	cf 91       	pop	r28
    1290:	08 95       	ret

00001292 <mazeSearch>:

char mazeSearch(intersection_t intersection)
{
	char actualPath;
	
	switch(intersection)
    1292:	90 e0       	ldi	r25, 0x00	; 0
    1294:	88 30       	cpi	r24, 0x08	; 8
    1296:	91 05       	cpc	r25, r1
    1298:	98 f4       	brcc	.+38     	; 0x12c0 <mazeSearch+0x2e>
    129a:	fc 01       	movw	r30, r24
    129c:	ea 5b       	subi	r30, 0xBA	; 186
    129e:	ff 4f       	sbci	r31, 0xFF	; 255
    12a0:	0c 94 d6 16 	jmp	0x2dac	; 0x2dac <__tablejump2__>
		case I_DEAD_END:
		actualPath = U_TURN;
		break;
		
		case I_END:
		actualPath = FINISH;
    12a4:	80 e0       	ldi	r24, 0x00	; 0
    12a6:	08 95       	ret
		break;
		
		case  I_STRAIGHT_LEFT:
		actualPath = LEFT_TURN;
    12a8:	8c e4       	ldi	r24, 0x4C	; 76
		break;
    12aa:	08 95       	ret
		
		case I_STRAIGHT_RIGHT:
		actualPath = STRAIGHT;
    12ac:	83 e5       	ldi	r24, 0x53	; 83
		break;
    12ae:	08 95       	ret
		
		case  I_T_CROSS:
		actualPath = LEFT_TURN;
    12b0:	8c e4       	ldi	r24, 0x4C	; 76
		break;
    12b2:	08 95       	ret
		
		case I_FOUR_WAY:
		actualPath = LEFT_TURN;
    12b4:	8c e4       	ldi	r24, 0x4C	; 76
		break;
    12b6:	08 95       	ret
		
		case  I_LEFT:
		actualPath = LEFT_TURN;
    12b8:	8c e4       	ldi	r24, 0x4C	; 76
		break;
    12ba:	08 95       	ret
		
		case I_RIGHT:
		actualPath = RIGHT_TURN;
    12bc:	82 e5       	ldi	r24, 0x52	; 82
		break;
    12be:	08 95       	ret
		
		default:
		actualPath = LINE_LOST;
    12c0:	88 e5       	ldi	r24, 0x58	; 88
		break;
    12c2:	08 95       	ret
	char actualPath;
	
	switch(intersection)
	{
		case I_DEAD_END:
		actualPath = U_TURN;
    12c4:	85 e5       	ldi	r24, 0x55	; 85
		break;
	}
	
	
	return actualPath;
}
    12c6:	08 95       	ret

000012c8 <replaceString>:

bool replaceString(char *source, char *search, char replace, int lenght)
{
    12c8:	9f 92       	push	r9
    12ca:	af 92       	push	r10
    12cc:	bf 92       	push	r11
    12ce:	cf 92       	push	r12
    12d0:	df 92       	push	r13
    12d2:	ef 92       	push	r14
    12d4:	ff 92       	push	r15
    12d6:	0f 93       	push	r16
    12d8:	1f 93       	push	r17
    12da:	cf 93       	push	r28
    12dc:	df 93       	push	r29
    12de:	cd b7       	in	r28, 0x3d	; 61
    12e0:	de b7       	in	r29, 0x3e	; 62
    12e2:	7c 01       	movw	r14, r24
    12e4:	94 2e       	mov	r9, r20
	strcpy(tempString, ptr+3);
	*ptr = replace;
	*(++ptr) = '\0';
	strcat(source, tempString);
	return true;
}
    12e6:	ad b6       	in	r10, 0x3d	; 61
    12e8:	be b6       	in	r11, 0x3e	; 62
	return actualPath;
}

bool replaceString(char *source, char *search, char replace, int lenght)
{
	char tempString[lenght];
    12ea:	8d b7       	in	r24, 0x3d	; 61
    12ec:	9e b7       	in	r25, 0x3e	; 62
    12ee:	82 1b       	sub	r24, r18
    12f0:	93 0b       	sbc	r25, r19
    12f2:	0f b6       	in	r0, 0x3f	; 63
    12f4:	f8 94       	cli
    12f6:	9e bf       	out	0x3e, r25	; 62
    12f8:	0f be       	out	0x3f, r0	; 63
    12fa:	8d bf       	out	0x3d, r24	; 61
    12fc:	ed b7       	in	r30, 0x3d	; 61
    12fe:	fe b7       	in	r31, 0x3e	; 62
    1300:	31 96       	adiw	r30, 0x01	; 1
    1302:	6f 01       	movw	r12, r30
	char *ptr;
	
	ptr = strstr(source, search);
    1304:	c7 01       	movw	r24, r14
    1306:	0e 94 52 18 	call	0x30a4	; 0x30a4 <strstr>
    130a:	8c 01       	movw	r16, r24
	if (ptr == NULL)
    130c:	00 97       	sbiw	r24, 0x00	; 0
    130e:	79 f0       	breq	.+30     	; 0x132e <replaceString+0x66>
	return false;
	strcpy(tempString, ptr+3);
    1310:	bc 01       	movw	r22, r24
    1312:	6d 5f       	subi	r22, 0xFD	; 253
    1314:	7f 4f       	sbci	r23, 0xFF	; 255
    1316:	c6 01       	movw	r24, r12
    1318:	0e 94 40 18 	call	0x3080	; 0x3080 <strcpy>
	*ptr = replace;
    131c:	f8 01       	movw	r30, r16
    131e:	90 82       	st	Z, r9
	*(++ptr) = '\0';
    1320:	11 82       	std	Z+1, r1	; 0x01
	strcat(source, tempString);
    1322:	b6 01       	movw	r22, r12
    1324:	c7 01       	movw	r24, r14
    1326:	0e 94 35 18 	call	0x306a	; 0x306a <strcat>
	return true;
    132a:	81 e0       	ldi	r24, 0x01	; 1
    132c:	01 c0       	rjmp	.+2      	; 0x1330 <replaceString+0x68>
	char tempString[lenght];
	char *ptr;
	
	ptr = strstr(source, search);
	if (ptr == NULL)
	return false;
    132e:	80 e0       	ldi	r24, 0x00	; 0
	strcpy(tempString, ptr+3);
	*ptr = replace;
	*(++ptr) = '\0';
	strcat(source, tempString);
	return true;
}
    1330:	0f b6       	in	r0, 0x3f	; 63
    1332:	f8 94       	cli
    1334:	be be       	out	0x3e, r11	; 62
    1336:	0f be       	out	0x3f, r0	; 63
    1338:	ad be       	out	0x3d, r10	; 61
    133a:	df 91       	pop	r29
    133c:	cf 91       	pop	r28
    133e:	1f 91       	pop	r17
    1340:	0f 91       	pop	r16
    1342:	ff 90       	pop	r15
    1344:	ef 90       	pop	r14
    1346:	df 90       	pop	r13
    1348:	cf 90       	pop	r12
    134a:	bf 90       	pop	r11
    134c:	af 90       	pop	r10
    134e:	9f 90       	pop	r9
    1350:	08 95       	ret

00001352 <mazeOptimize>:

void mazeOptimize(char *path)
{
    1352:	cf 92       	push	r12
    1354:	df 92       	push	r13
    1356:	ef 92       	push	r14
    1358:	ff 92       	push	r15
    135a:	1f 93       	push	r17
    135c:	cf 93       	push	r28
    135e:	df 93       	push	r29
    1360:	00 d0       	rcall	.+0      	; 0x1362 <mazeOptimize+0x10>
    1362:	00 d0       	rcall	.+0      	; 0x1364 <mazeOptimize+0x12>
    1364:	1f 92       	push	r1
    1366:	cd b7       	in	r28, 0x3d	; 61
    1368:	de b7       	in	r29, 0x3e	; 62
    136a:	6c 01       	movw	r12, r24
	char strBuffer[5];
	int length;
	length = strlen(path);
    136c:	fc 01       	movw	r30, r24
    136e:	01 90       	ld	r0, Z+
    1370:	00 20       	and	r0, r0
    1372:	e9 f7       	brne	.-6      	; 0x136e <mazeOptimize+0x1c>
    1374:	31 97       	sbiw	r30, 0x01	; 1
    1376:	7f 01       	movw	r14, r30
    1378:	e8 1a       	sub	r14, r24
    137a:	f9 0a       	sbc	r15, r25
	bool finish = true;
	
	while(finish)
	{
		finish = false;
		finish |= replaceString(path, memcpy_P(strBuffer, optimize1, 4), 'S', length);
    137c:	44 e0       	ldi	r20, 0x04	; 4
    137e:	50 e0       	ldi	r21, 0x00	; 0
    1380:	6e eb       	ldi	r22, 0xBE	; 190
    1382:	74 e0       	ldi	r23, 0x04	; 4
    1384:	ce 01       	movw	r24, r28
    1386:	01 96       	adiw	r24, 0x01	; 1
    1388:	0e 94 21 18 	call	0x3042	; 0x3042 <memcpy_P>
    138c:	97 01       	movw	r18, r14
    138e:	43 e5       	ldi	r20, 0x53	; 83
    1390:	bc 01       	movw	r22, r24
    1392:	c6 01       	movw	r24, r12
    1394:	0e 94 64 09 	call	0x12c8	; 0x12c8 <replaceString>
    1398:	18 2f       	mov	r17, r24
		finish |= replaceString(path, memcpy_P(strBuffer, optimize2, 4), 'R', length);
    139a:	44 e0       	ldi	r20, 0x04	; 4
    139c:	50 e0       	ldi	r21, 0x00	; 0
    139e:	6a eb       	ldi	r22, 0xBA	; 186
    13a0:	74 e0       	ldi	r23, 0x04	; 4
    13a2:	ce 01       	movw	r24, r28
    13a4:	01 96       	adiw	r24, 0x01	; 1
    13a6:	0e 94 21 18 	call	0x3042	; 0x3042 <memcpy_P>
    13aa:	97 01       	movw	r18, r14
    13ac:	42 e5       	ldi	r20, 0x52	; 82
    13ae:	bc 01       	movw	r22, r24
    13b0:	c6 01       	movw	r24, r12
    13b2:	0e 94 64 09 	call	0x12c8	; 0x12c8 <replaceString>
    13b6:	18 2b       	or	r17, r24
		finish |= replaceString(path, memcpy_P(strBuffer, optimize3, 4), 'U', length);
    13b8:	44 e0       	ldi	r20, 0x04	; 4
    13ba:	50 e0       	ldi	r21, 0x00	; 0
    13bc:	66 eb       	ldi	r22, 0xB6	; 182
    13be:	74 e0       	ldi	r23, 0x04	; 4
    13c0:	ce 01       	movw	r24, r28
    13c2:	01 96       	adiw	r24, 0x01	; 1
    13c4:	0e 94 21 18 	call	0x3042	; 0x3042 <memcpy_P>
    13c8:	97 01       	movw	r18, r14
    13ca:	45 e5       	ldi	r20, 0x55	; 85
    13cc:	bc 01       	movw	r22, r24
    13ce:	c6 01       	movw	r24, r12
    13d0:	0e 94 64 09 	call	0x12c8	; 0x12c8 <replaceString>
    13d4:	18 2b       	or	r17, r24
		finish |= replaceString(path, memcpy_P(strBuffer, optimize4, 4), 'U', length);
    13d6:	44 e0       	ldi	r20, 0x04	; 4
    13d8:	50 e0       	ldi	r21, 0x00	; 0
    13da:	62 eb       	ldi	r22, 0xB2	; 178
    13dc:	74 e0       	ldi	r23, 0x04	; 4
    13de:	ce 01       	movw	r24, r28
    13e0:	01 96       	adiw	r24, 0x01	; 1
    13e2:	0e 94 21 18 	call	0x3042	; 0x3042 <memcpy_P>
    13e6:	97 01       	movw	r18, r14
    13e8:	45 e5       	ldi	r20, 0x55	; 85
    13ea:	bc 01       	movw	r22, r24
    13ec:	c6 01       	movw	r24, r12
    13ee:	0e 94 64 09 	call	0x12c8	; 0x12c8 <replaceString>
    13f2:	18 2b       	or	r17, r24
		finish |= replaceString(path, memcpy_P(strBuffer, optimize5, 4), 'R', length);
    13f4:	44 e0       	ldi	r20, 0x04	; 4
    13f6:	50 e0       	ldi	r21, 0x00	; 0
    13f8:	6e ea       	ldi	r22, 0xAE	; 174
    13fa:	74 e0       	ldi	r23, 0x04	; 4
    13fc:	ce 01       	movw	r24, r28
    13fe:	01 96       	adiw	r24, 0x01	; 1
    1400:	0e 94 21 18 	call	0x3042	; 0x3042 <memcpy_P>
    1404:	97 01       	movw	r18, r14
    1406:	42 e5       	ldi	r20, 0x52	; 82
    1408:	bc 01       	movw	r22, r24
    140a:	c6 01       	movw	r24, r12
    140c:	0e 94 64 09 	call	0x12c8	; 0x12c8 <replaceString>
    1410:	18 2b       	or	r17, r24
		finish |= replaceString(path, memcpy_P(strBuffer, optimize6, 4), 'U', length);
    1412:	44 e0       	ldi	r20, 0x04	; 4
    1414:	50 e0       	ldi	r21, 0x00	; 0
    1416:	6a ea       	ldi	r22, 0xAA	; 170
    1418:	74 e0       	ldi	r23, 0x04	; 4
    141a:	ce 01       	movw	r24, r28
    141c:	01 96       	adiw	r24, 0x01	; 1
    141e:	0e 94 21 18 	call	0x3042	; 0x3042 <memcpy_P>
    1422:	97 01       	movw	r18, r14
    1424:	45 e5       	ldi	r20, 0x55	; 85
    1426:	bc 01       	movw	r22, r24
    1428:	c6 01       	movw	r24, r12
    142a:	0e 94 64 09 	call	0x12c8	; 0x12c8 <replaceString>
    142e:	18 2b       	or	r17, r24
		finish |= replaceString(path, memcpy_P(strBuffer, optimize7, 4), 'L', length);
    1430:	44 e0       	ldi	r20, 0x04	; 4
    1432:	50 e0       	ldi	r21, 0x00	; 0
    1434:	66 ea       	ldi	r22, 0xA6	; 166
    1436:	74 e0       	ldi	r23, 0x04	; 4
    1438:	ce 01       	movw	r24, r28
    143a:	01 96       	adiw	r24, 0x01	; 1
    143c:	0e 94 21 18 	call	0x3042	; 0x3042 <memcpy_P>
    1440:	97 01       	movw	r18, r14
    1442:	4c e4       	ldi	r20, 0x4C	; 76
    1444:	bc 01       	movw	r22, r24
    1446:	c6 01       	movw	r24, r12
    1448:	0e 94 64 09 	call	0x12c8	; 0x12c8 <replaceString>
    144c:	18 2b       	or	r17, r24
		finish |= replaceString(path, memcpy_P(strBuffer, optimize8, 4), 'S', length);
    144e:	44 e0       	ldi	r20, 0x04	; 4
    1450:	50 e0       	ldi	r21, 0x00	; 0
    1452:	62 ea       	ldi	r22, 0xA2	; 162
    1454:	74 e0       	ldi	r23, 0x04	; 4
    1456:	ce 01       	movw	r24, r28
    1458:	01 96       	adiw	r24, 0x01	; 1
    145a:	0e 94 21 18 	call	0x3042	; 0x3042 <memcpy_P>
    145e:	97 01       	movw	r18, r14
    1460:	43 e5       	ldi	r20, 0x53	; 83
    1462:	bc 01       	movw	r22, r24
    1464:	c6 01       	movw	r24, r12
    1466:	0e 94 64 09 	call	0x12c8	; 0x12c8 <replaceString>
	char strBuffer[5];
	int length;
	length = strlen(path);
	bool finish = true;
	
	while(finish)
    146a:	11 11       	cpse	r17, r1
    146c:	87 cf       	rjmp	.-242    	; 0x137c <mazeOptimize+0x2a>
    146e:	81 11       	cpse	r24, r1
    1470:	85 cf       	rjmp	.-246    	; 0x137c <mazeOptimize+0x2a>
		finish |= replaceString(path, memcpy_P(strBuffer, optimize5, 4), 'R', length);
		finish |= replaceString(path, memcpy_P(strBuffer, optimize6, 4), 'U', length);
		finish |= replaceString(path, memcpy_P(strBuffer, optimize7, 4), 'L', length);
		finish |= replaceString(path, memcpy_P(strBuffer, optimize8, 4), 'S', length);
	}
}
    1472:	0f 90       	pop	r0
    1474:	0f 90       	pop	r0
    1476:	0f 90       	pop	r0
    1478:	0f 90       	pop	r0
    147a:	0f 90       	pop	r0
    147c:	df 91       	pop	r29
    147e:	cf 91       	pop	r28
    1480:	1f 91       	pop	r17
    1482:	ff 90       	pop	r15
    1484:	ef 90       	pop	r14
    1486:	df 90       	pop	r13
    1488:	cf 90       	pop	r12
    148a:	08 95       	ret

0000148c <pathCompare>:

bool pathCompare(char storedPath, intersection_t actualIntersection)
{	
	switch(storedPath)
    148c:	82 35       	cpi	r24, 0x52	; 82
    148e:	91 f0       	breq	.+36     	; 0x14b4 <pathCompare+0x28>
    1490:	18 f4       	brcc	.+6      	; 0x1498 <pathCompare+0xc>
    1492:	8c 34       	cpi	r24, 0x4C	; 76
    1494:	39 f0       	breq	.+14     	; 0x14a4 <pathCompare+0x18>
    1496:	04 c0       	rjmp	.+8      	; 0x14a0 <pathCompare+0x14>
    1498:	83 35       	cpi	r24, 0x53	; 83
    149a:	a9 f0       	breq	.+42     	; 0x14c6 <pathCompare+0x3a>
    149c:	85 35       	cpi	r24, 0x55	; 85
    149e:	c9 f0       	breq	.+50     	; 0x14d2 <pathCompare+0x46>
		case U_TURN:
			return true;
		break;
		
		default:
			return false;
    14a0:	80 e0       	ldi	r24, 0x00	; 0
    14a2:	08 95       	ret
bool pathCompare(char storedPath, intersection_t actualIntersection)
{	
	switch(storedPath)
	{
		case LEFT_TURN:
		if (	(actualIntersection == I_LEFT)		||
    14a4:	61 30       	cpi	r22, 0x01	; 1
    14a6:	b9 f0       	breq	.+46     	; 0x14d6 <pathCompare+0x4a>
				(actualIntersection == I_FOUR_WAY)	|| 
    14a8:	63 50       	subi	r22, 0x03	; 3
    14aa:	81 e0       	ldi	r24, 0x01	; 1
    14ac:	63 30       	cpi	r22, 0x03	; 3
    14ae:	b0 f0       	brcs	.+44     	; 0x14dc <pathCompare+0x50>
    14b0:	80 e0       	ldi	r24, 0x00	; 0
    14b2:	08 95       	ret
				(actualIntersection == I_STRAIGHT_LEFT) )
			return true;
		break;
		
		case RIGHT_TURN:
		if (	(actualIntersection == I_RIGHT)		||
    14b4:	8e ef       	ldi	r24, 0xFE	; 254
    14b6:	86 0f       	add	r24, r22
    14b8:	83 30       	cpi	r24, 0x03	; 3
    14ba:	78 f0       	brcs	.+30     	; 0x14da <pathCompare+0x4e>
				(actualIntersection == I_FOUR_WAY)	||
				(actualIntersection == I_T_CROSS)	||
    14bc:	81 e0       	ldi	r24, 0x01	; 1
    14be:	66 30       	cpi	r22, 0x06	; 6
    14c0:	69 f0       	breq	.+26     	; 0x14dc <pathCompare+0x50>
    14c2:	80 e0       	ldi	r24, 0x00	; 0
    14c4:	08 95       	ret
				(actualIntersection == I_STRAIGHT_RIGHT) )
			return true;
		break;
		
		case STRAIGHT:
		if (	(actualIntersection == I_FOUR_WAY) ||
    14c6:	64 50       	subi	r22, 0x04	; 4
    14c8:	81 e0       	ldi	r24, 0x01	; 1
    14ca:	63 30       	cpi	r22, 0x03	; 3
    14cc:	38 f0       	brcs	.+14     	; 0x14dc <pathCompare+0x50>
    14ce:	80 e0       	ldi	r24, 0x00	; 0
    14d0:	08 95       	ret
				(actualIntersection == I_STRAIGHT_LEFT) )
			return true;
		break;
		
		case U_TURN:
			return true;
    14d2:	81 e0       	ldi	r24, 0x01	; 1
    14d4:	08 95       	ret
		case LEFT_TURN:
		if (	(actualIntersection == I_LEFT)		||
				(actualIntersection == I_FOUR_WAY)	|| 
				(actualIntersection == I_T_CROSS)	|| 
				(actualIntersection == I_STRAIGHT_LEFT) )
			return true;
    14d6:	81 e0       	ldi	r24, 0x01	; 1
    14d8:	08 95       	ret
		case RIGHT_TURN:
		if (	(actualIntersection == I_RIGHT)		||
				(actualIntersection == I_FOUR_WAY)	||
				(actualIntersection == I_T_CROSS)	||
				(actualIntersection == I_STRAIGHT_RIGHT) )
			return true;
    14da:	81 e0       	ldi	r24, 0x01	; 1
			return false;
		break;
	}
	
	return false;
    14dc:	08 95       	ret

000014de <encoderInit>:
/*	Initialisiert die Radencoder                                        */
/************************************************************************/
void encoderInit(void)
{
	// Konfiguiere Externe Interrupts INT0 & INT1, Triggerung auf beide Flanken
	EICRA |= (1<<ISC10) | (1<<ISC00);
    14de:	e9 e6       	ldi	r30, 0x69	; 105
    14e0:	f0 e0       	ldi	r31, 0x00	; 0
    14e2:	80 81       	ld	r24, Z
    14e4:	85 60       	ori	r24, 0x05	; 5
    14e6:	80 83       	st	Z, r24
	
	// Interrupts aktivieren
	EIMSK |= (1<<INT1) | (1<<INT0);
    14e8:	8d b3       	in	r24, 0x1d	; 29
    14ea:	83 60       	ori	r24, 0x03	; 3
    14ec:	8d bb       	out	0x1d, r24	; 29
    14ee:	08 95       	ret

000014f0 <encoderReset>:
    return 1;
}

static __inline__ uint8_t __iCliRetVal(void)
{
    cli();
    14f0:	f8 94       	cli
/************************************************************************/
void encoderReset(void)
{
	ATOMIC_BLOCK(ATOMIC_FORCEON)
	{
		motorStatus.encoder[LEFT] = 0;
    14f2:	eb ed       	ldi	r30, 0xDB	; 219
    14f4:	f1 e0       	ldi	r31, 0x01	; 1
    14f6:	17 82       	std	Z+7, r1	; 0x07
    14f8:	16 82       	std	Z+6, r1	; 0x06
		motorStatus.encoder[RIGHT] = 0;
    14fa:	11 86       	std	Z+9, r1	; 0x09
    14fc:	10 86       	std	Z+8, r1	; 0x08
    return 1;
}

static __inline__ void __iSeiParam(const uint8_t *__s)
{
    sei();
    14fe:	78 94       	sei
    __asm__ volatile ("" ::: "memory");
    1500:	08 95       	ret

00001502 <__vector_1>:
/* Interrupt Service Routinen                                           */
/************************************************************************/

// Linker Motor
ISR(INT0_vect)
{
    1502:	1f 92       	push	r1
    1504:	0f 92       	push	r0
    1506:	0f b6       	in	r0, 0x3f	; 63
    1508:	0f 92       	push	r0
    150a:	11 24       	eor	r1, r1
    150c:	8f 93       	push	r24
    150e:	9f 93       	push	r25
    1510:	ef 93       	push	r30
    1512:	ff 93       	push	r31
	if (systemStatus.encoders == true)
    1514:	80 91 ec 01 	lds	r24, 0x01EC	; 0x8001ec <systemStatus>
    1518:	84 ff       	sbrs	r24, 4
    151a:	16 c0       	rjmp	.+44     	; 0x1548 <__vector_1+0x46>
	{
		if (motorStatus.leftDir == MOT_FWD)
    151c:	80 91 db 01 	lds	r24, 0x01DB	; 0x8001db <motorStatus>
    1520:	83 70       	andi	r24, 0x03	; 3
    1522:	81 30       	cpi	r24, 0x01	; 1
    1524:	41 f4       	brne	.+16     	; 0x1536 <__vector_1+0x34>
			motorStatus.encoder[LEFT]++;
    1526:	eb ed       	ldi	r30, 0xDB	; 219
    1528:	f1 e0       	ldi	r31, 0x01	; 1
    152a:	86 81       	ldd	r24, Z+6	; 0x06
    152c:	97 81       	ldd	r25, Z+7	; 0x07
    152e:	01 96       	adiw	r24, 0x01	; 1
    1530:	97 83       	std	Z+7, r25	; 0x07
    1532:	86 83       	std	Z+6, r24	; 0x06
    1534:	09 c0       	rjmp	.+18     	; 0x1548 <__vector_1+0x46>
		else if (motorStatus.leftDir == MOT_REV)
    1536:	82 30       	cpi	r24, 0x02	; 2
    1538:	39 f4       	brne	.+14     	; 0x1548 <__vector_1+0x46>
			motorStatus.encoder[LEFT]--;
    153a:	eb ed       	ldi	r30, 0xDB	; 219
    153c:	f1 e0       	ldi	r31, 0x01	; 1
    153e:	86 81       	ldd	r24, Z+6	; 0x06
    1540:	97 81       	ldd	r25, Z+7	; 0x07
    1542:	01 97       	sbiw	r24, 0x01	; 1
    1544:	97 83       	std	Z+7, r25	; 0x07
    1546:	86 83       	std	Z+6, r24	; 0x06
	}
}
    1548:	ff 91       	pop	r31
    154a:	ef 91       	pop	r30
    154c:	9f 91       	pop	r25
    154e:	8f 91       	pop	r24
    1550:	0f 90       	pop	r0
    1552:	0f be       	out	0x3f, r0	; 63
    1554:	0f 90       	pop	r0
    1556:	1f 90       	pop	r1
    1558:	18 95       	reti

0000155a <__vector_2>:

// Rechter Motor
ISR(INT1_vect)
{
    155a:	1f 92       	push	r1
    155c:	0f 92       	push	r0
    155e:	0f b6       	in	r0, 0x3f	; 63
    1560:	0f 92       	push	r0
    1562:	11 24       	eor	r1, r1
    1564:	8f 93       	push	r24
    1566:	9f 93       	push	r25
    1568:	ef 93       	push	r30
    156a:	ff 93       	push	r31
	if (systemStatus.encoders == true)
    156c:	80 91 ec 01 	lds	r24, 0x01EC	; 0x8001ec <systemStatus>
    1570:	84 ff       	sbrs	r24, 4
    1572:	16 c0       	rjmp	.+44     	; 0x15a0 <__vector_2+0x46>
	{
		if (motorStatus.rightDir == MOT_FWD)
    1574:	80 91 db 01 	lds	r24, 0x01DB	; 0x8001db <motorStatus>
    1578:	8c 70       	andi	r24, 0x0C	; 12
    157a:	84 30       	cpi	r24, 0x04	; 4
    157c:	41 f4       	brne	.+16     	; 0x158e <__vector_2+0x34>
		motorStatus.encoder[RIGHT]++;
    157e:	eb ed       	ldi	r30, 0xDB	; 219
    1580:	f1 e0       	ldi	r31, 0x01	; 1
    1582:	80 85       	ldd	r24, Z+8	; 0x08
    1584:	91 85       	ldd	r25, Z+9	; 0x09
    1586:	01 96       	adiw	r24, 0x01	; 1
    1588:	91 87       	std	Z+9, r25	; 0x09
    158a:	80 87       	std	Z+8, r24	; 0x08
    158c:	09 c0       	rjmp	.+18     	; 0x15a0 <__vector_2+0x46>
		else if (motorStatus.rightDir == MOT_REV)
    158e:	88 30       	cpi	r24, 0x08	; 8
    1590:	39 f4       	brne	.+14     	; 0x15a0 <__vector_2+0x46>
		motorStatus.encoder[RIGHT]--;
    1592:	eb ed       	ldi	r30, 0xDB	; 219
    1594:	f1 e0       	ldi	r31, 0x01	; 1
    1596:	80 85       	ldd	r24, Z+8	; 0x08
    1598:	91 85       	ldd	r25, Z+9	; 0x09
    159a:	01 97       	sbiw	r24, 0x01	; 1
    159c:	91 87       	std	Z+9, r25	; 0x09
    159e:	80 87       	std	Z+8, r24	; 0x08
	}
    15a0:	ff 91       	pop	r31
    15a2:	ef 91       	pop	r30
    15a4:	9f 91       	pop	r25
    15a6:	8f 91       	pop	r24
    15a8:	0f 90       	pop	r0
    15aa:	0f be       	out	0x3f, r0	; 63
    15ac:	0f 90       	pop	r0
    15ae:	1f 90       	pop	r1
    15b0:	18 95       	reti

000015b2 <lineRead>:
	}
}


void lineRead(void)
{
    15b2:	ef 92       	push	r14
    15b4:	ff 92       	push	r15
    15b6:	0f 93       	push	r16
    15b8:	1f 93       	push	r17
    15ba:	cf 93       	push	r28

static void line_pwr(uint8_t pwr)
{
	if (pwr == ON)
	{
		PORTC |= (1<<PINC7);
    15bc:	47 9a       	sbi	0x08, 7	; 8
	#else
		//round up by default
		__ticks_dc = (uint32_t)(ceil(fabs(__tmp)));
	#endif

	__builtin_avr_delay_cycles(__ticks_dc);
    15be:	8f e7       	ldi	r24, 0x7F	; 127
    15c0:	9c e0       	ldi	r25, 0x0C	; 12
    15c2:	01 97       	sbiw	r24, 0x01	; 1
    15c4:	f1 f7       	brne	.-4      	; 0x15c2 <lineRead+0x10>
    15c6:	00 c0       	rjmp	.+0      	; 0x15c8 <lineRead+0x16>
    15c8:	00 00       	nop
    15ca:	04 ef       	ldi	r16, 0xF4	; 244
    15cc:	11 e0       	ldi	r17, 0x01	; 1
    15ce:	78 01       	movw	r14, r16
    15d0:	c3 e0       	ldi	r28, 0x03	; 3
	uint16_t temp;
	
	line_pwr(ON);
	for (uint8_t i = 0; i < 5; i++)
	{
		lineSensors.analogData[i] = adc_Read(i+ADC3D);
    15d2:	8c 2f       	mov	r24, r28
    15d4:	0e 94 d8 0f 	call	0x1fb0	; 0x1fb0 <adc_Read>
    15d8:	d7 01       	movw	r26, r14
    15da:	8d 93       	st	X+, r24
    15dc:	9d 93       	st	X+, r25
    15de:	7d 01       	movw	r14, r26
    15e0:	cf 5f       	subi	r28, 0xFF	; 255
void lineRead(void)
{
	uint16_t temp;
	
	line_pwr(ON);
	for (uint8_t i = 0; i < 5; i++)
    15e2:	c8 30       	cpi	r28, 0x08	; 8
    15e4:	b1 f7       	brne	.-20     	; 0x15d2 <lineRead+0x20>
		PORTC |= (1<<PINC7);
		_delay_us(LINE_SENSOR_DELAY);
	}
	else
	{
		PORTC &= ~(1<<PINC7);
    15e6:	47 98       	cbi	0x08, 7	; 8
	{
		lineSensors.analogData[i] = adc_Read(i+ADC3D);
	}
	line_pwr(OFF);
	
	temp = lineSensors.analogData[LINE_RIGHT];
    15e8:	e3 ef       	ldi	r30, 0xF3	; 243
    15ea:	f1 e0       	ldi	r31, 0x01	; 1
    15ec:	81 85       	ldd	r24, Z+9	; 0x09
    15ee:	92 85       	ldd	r25, Z+10	; 0x0a
	lineSensors.analogData[LINE_RIGHT] = lineSensors.analogData[LINE_CRIGHT];
    15f0:	27 81       	ldd	r18, Z+7	; 0x07
    15f2:	30 85       	ldd	r19, Z+8	; 0x08
    15f4:	32 87       	std	Z+10, r19	; 0x0a
    15f6:	21 87       	std	Z+9, r18	; 0x09
	lineSensors.analogData[LINE_CRIGHT] = temp;
    15f8:	90 87       	std	Z+8, r25	; 0x08
    15fa:	87 83       	std	Z+7, r24	; 0x07
	
	if (lineSensors.calibrated)
    15fc:	80 81       	ld	r24, Z
    15fe:	80 ff       	sbrs	r24, 0
    1600:	17 c0       	rjmp	.+46     	; 0x1630 <lineRead+0x7e>
    1602:	4e ef       	ldi	r20, 0xFE	; 254
    1604:	51 e0       	ldi	r21, 0x01	; 1
	{
		for(uint8_t i=0; i<5; i++)
		{
			if ( (lineSensors.analogData[i] + LINE_TRESHOLD) > lineSensors.calibData[i] )	lineSensors.digitalData[i] = true;
    1606:	61 e0       	ldi	r22, 0x01	; 1
    1608:	d8 01       	movw	r26, r16
    160a:	8d 91       	ld	r24, X+
    160c:	9d 91       	ld	r25, X+
    160e:	8d 01       	movw	r16, r26
    1610:	88 53       	subi	r24, 0x38	; 56
    1612:	9f 4f       	sbci	r25, 0xFF	; 255
    1614:	18 96       	adiw	r26, 0x08	; 8
    1616:	2d 91       	ld	r18, X+
    1618:	3c 91       	ld	r19, X
    161a:	19 97       	sbiw	r26, 0x09	; 9
    161c:	28 17       	cp	r18, r24
    161e:	39 07       	cpc	r19, r25
    1620:	14 f4       	brge	.+4      	; 0x1626 <lineRead+0x74>
    1622:	65 8b       	std	Z+21, r22	; 0x15
    1624:	01 c0       	rjmp	.+2      	; 0x1628 <lineRead+0x76>
			else	lineSensors.digitalData[i] = false;
    1626:	15 8a       	std	Z+21, r1	; 0x15
    1628:	31 96       	adiw	r30, 0x01	; 1
	lineSensors.analogData[LINE_RIGHT] = lineSensors.analogData[LINE_CRIGHT];
	lineSensors.analogData[LINE_CRIGHT] = temp;
	
	if (lineSensors.calibrated)
	{
		for(uint8_t i=0; i<5; i++)
    162a:	04 17       	cp	r16, r20
    162c:	15 07       	cpc	r17, r21
    162e:	61 f7       	brne	.-40     	; 0x1608 <lineRead+0x56>
		{
			if ( (lineSensors.analogData[i] + LINE_TRESHOLD) > lineSensors.calibData[i] )	lineSensors.digitalData[i] = true;
			else	lineSensors.digitalData[i] = false;
		}
	}
}
    1630:	cf 91       	pop	r28
    1632:	1f 91       	pop	r17
    1634:	0f 91       	pop	r16
    1636:	ff 90       	pop	r15
    1638:	ef 90       	pop	r14
    163a:	08 95       	ret

0000163c <followTrack>:

int16_t followTrack()
{
	int16_t center;
	
	center = lineSensors.analogData[LINE_CLEFT] - lineSensors.analogData[LINE_CRIGHT];
    163c:	e3 ef       	ldi	r30, 0xF3	; 243
    163e:	f1 e0       	ldi	r31, 0x01	; 1
    1640:	83 81       	ldd	r24, Z+3	; 0x03
    1642:	94 81       	ldd	r25, Z+4	; 0x04
    1644:	27 81       	ldd	r18, Z+7	; 0x07
    1646:	30 85       	ldd	r19, Z+8	; 0x08
    1648:	82 1b       	sub	r24, r18
    164a:	93 0b       	sbc	r25, r19
	//center = 1*lineSensors.analogData[LINE_LEFT] + 2*lineSensors.analogData[LINE_CLEFT] + 3*lineSensors.analogData[LINE_CENTER] + 4*lineSensors.analogData[LINE_CRIGHT] + 5*lineSensors.analogData[LINE_RIGHT];
	center = center >> 2;
	
	return center;
}
    164c:	95 95       	asr	r25
    164e:	87 95       	ror	r24
    1650:	95 95       	asr	r25
    1652:	87 95       	ror	r24
    1654:	08 95       	ret

00001656 <lineInit>:

void lineInit(void)
{
    1656:	cf 93       	push	r28
    1658:	df 93       	push	r29
	lineSensors.byte = 0;
    165a:	c3 ef       	ldi	r28, 0xF3	; 243
    165c:	d1 e0       	ldi	r29, 0x01	; 1
    165e:	18 82       	st	Y, r1
	
	eeprom_read_block(lineSensors.calibData, lineCalib_ee, sizeof(lineSensors.calibData));
    1660:	4a e0       	ldi	r20, 0x0A	; 10
    1662:	50 e0       	ldi	r21, 0x00	; 0
    1664:	60 e0       	ldi	r22, 0x00	; 0
    1666:	70 e0       	ldi	r23, 0x00	; 0
    1668:	8e ef       	ldi	r24, 0xFE	; 254
    166a:	91 e0       	ldi	r25, 0x01	; 1
    166c:	0e 94 5d 19 	call	0x32ba	; 0x32ba <eeprom_read_block>
	
	lineSensors.calibrated = true;
    1670:	88 81       	ld	r24, Y
    1672:	81 60       	ori	r24, 0x01	; 1
    1674:	88 83       	st	Y, r24
}
    1676:	df 91       	pop	r29
    1678:	cf 91       	pop	r28
    167a:	08 95       	ret

0000167c <calib_rotate>:

void calib_rotate(uint8_t direction, uint16_t angle)
{
    167c:	0f 93       	push	r16
    167e:	1f 93       	push	r17
    1680:	cf 93       	push	r28
    1682:	df 93       	push	r29
    1684:	c8 2f       	mov	r28, r24
    1686:	8b 01       	movw	r16, r22
	
	motor_speed(TURN_SPEED_CALIBRATE, TURN_SPEED_CALIBRATE);
    1688:	62 e3       	ldi	r22, 0x32	; 50
    168a:	70 e0       	ldi	r23, 0x00	; 0
    168c:	82 e3       	ldi	r24, 0x32	; 50
    168e:	90 e0       	ldi	r25, 0x00	; 0
    1690:	0e 94 82 0d 	call	0x1b04	; 0x1b04 <motor_speed>
	

	if (direction == LEFT)	motorDirection(MOT_REV, MOT_FWD);
    1694:	c1 11       	cpse	r28, r1
    1696:	05 c0       	rjmp	.+10     	; 0x16a2 <calib_rotate+0x26>
    1698:	61 e0       	ldi	r22, 0x01	; 1
    169a:	82 e0       	ldi	r24, 0x02	; 2
    169c:	0e 94 46 0d 	call	0x1a8c	; 0x1a8c <motorDirection>
    16a0:	06 c0       	rjmp	.+12     	; 0x16ae <calib_rotate+0x32>
	else if (direction == RIGHT) motorDirection(MOT_FWD, MOT_REV);
    16a2:	c1 30       	cpi	r28, 0x01	; 1
    16a4:	21 f4       	brne	.+8      	; 0x16ae <calib_rotate+0x32>
    16a6:	62 e0       	ldi	r22, 0x02	; 2
    16a8:	81 e0       	ldi	r24, 0x01	; 1
    16aa:	0e 94 46 0d 	call	0x1a8c	; 0x1a8c <motorDirection>
		
	motorStatus.autoDrive= true;
    16ae:	cb ed       	ldi	r28, 0xDB	; 219
    16b0:	d1 e0       	ldi	r29, 0x01	; 1
    16b2:	88 81       	ld	r24, Y
    16b4:	80 61       	ori	r24, 0x10	; 16
    16b6:	88 83       	st	Y, r24
	setStopwatch(STOPWATCH8,0);
    16b8:	60 e0       	ldi	r22, 0x00	; 0
    16ba:	70 e0       	ldi	r23, 0x00	; 0
    16bc:	80 e8       	ldi	r24, 0x80	; 128
    16be:	90 e0       	ldi	r25, 0x00	; 0
    16c0:	0e 94 ce 11 	call	0x239c	; 0x239c <setStopwatch>
	startStopwatch8();
    16c4:	ea e6       	ldi	r30, 0x6A	; 106
    16c6:	f2 e0       	ldi	r31, 0x02	; 2
    16c8:	80 81       	ld	r24, Z
    16ca:	80 68       	ori	r24, 0x80	; 128
    16cc:	80 83       	st	Z, r24
	motorStatus.timer = angle;
    16ce:	1b 87       	std	Y+11, r17	; 0x0b
    16d0:	0a 87       	std	Y+10, r16	; 0x0a
	
}
    16d2:	df 91       	pop	r29
    16d4:	cf 91       	pop	r28
    16d6:	1f 91       	pop	r17
    16d8:	0f 91       	pop	r16
    16da:	08 95       	ret

000016dc <calibrateSensors>:

void calibrateSensors(void)
{
    16dc:	4f 92       	push	r4
    16de:	5f 92       	push	r5
    16e0:	6f 92       	push	r6
    16e2:	7f 92       	push	r7
    16e4:	8f 92       	push	r8
    16e6:	9f 92       	push	r9
    16e8:	af 92       	push	r10
    16ea:	bf 92       	push	r11
    16ec:	cf 92       	push	r12
    16ee:	df 92       	push	r13
    16f0:	ef 92       	push	r14
    16f2:	ff 92       	push	r15
    16f4:	0f 93       	push	r16
    16f6:	1f 93       	push	r17
    16f8:	cf 93       	push	r28
    16fa:	df 93       	push	r29
    16fc:	cd b7       	in	r28, 0x3d	; 61
    16fe:	de b7       	in	r29, 0x3e	; 62
    1700:	64 97       	sbiw	r28, 0x14	; 20
    1702:	0f b6       	in	r0, 0x3f	; 63
    1704:	f8 94       	cli
    1706:	de bf       	out	0x3e, r29	; 62
    1708:	0f be       	out	0x3f, r0	; 63
    170a:	cd bf       	out	0x3d, r28	; 61
	uint16_t lineMax[5], lineMin[5];
	lineSensors.calibrated = false;
    170c:	e3 ef       	ldi	r30, 0xF3	; 243
    170e:	f1 e0       	ldi	r31, 0x01	; 1
    1710:	80 81       	ld	r24, Z
    1712:	8e 7f       	andi	r24, 0xFE	; 254
    1714:	80 83       	st	Z, r24
	
	setStatusLED(RED);
    1716:	81 e0       	ldi	r24, 0x01	; 1
    1718:	0e 94 07 10 	call	0x200e	; 0x200e <setStatusLED>
	
	lineRead();
    171c:	0e 94 d9 0a 	call	0x15b2	; 0x15b2 <lineRead>
    1720:	0f 2e       	mov	r0, r31
    1722:	f4 ef       	ldi	r31, 0xF4	; 244
    1724:	8f 2e       	mov	r8, r31
    1726:	f1 e0       	ldi	r31, 0x01	; 1
    1728:	9f 2e       	mov	r9, r31
    172a:	f0 2d       	mov	r31, r0
    172c:	8e 01       	movw	r16, r28
    172e:	05 5f       	subi	r16, 0xF5	; 245
    1730:	1f 4f       	sbci	r17, 0xFF	; 255
    1732:	ce 01       	movw	r24, r28
    1734:	01 96       	adiw	r24, 0x01	; 1
    1736:	7c 01       	movw	r14, r24
    1738:	0f 2e       	mov	r0, r31
    173a:	fe ef       	ldi	r31, 0xFE	; 254
    173c:	af 2e       	mov	r10, r31
    173e:	f1 e0       	ldi	r31, 0x01	; 1
    1740:	bf 2e       	mov	r11, r31
    1742:	f0 2d       	mov	r31, r0
    1744:	9c 01       	movw	r18, r24
    1746:	a8 01       	movw	r20, r16
    1748:	f4 01       	movw	r30, r8
	
	for (uint8_t i=0; i<5; i++)
	{
		lineMin[i] = lineSensors.analogData[i];
    174a:	81 91       	ld	r24, Z+
    174c:	91 91       	ld	r25, Z+
    174e:	da 01       	movw	r26, r20
    1750:	8d 93       	st	X+, r24
    1752:	9d 93       	st	X+, r25
    1754:	ad 01       	movw	r20, r26
		lineMax[i] = lineSensors.analogData[i];
    1756:	d9 01       	movw	r26, r18
    1758:	8d 93       	st	X+, r24
    175a:	9d 93       	st	X+, r25
    175c:	9d 01       	movw	r18, r26
	
	setStatusLED(RED);
	
	lineRead();
	
	for (uint8_t i=0; i<5; i++)
    175e:	ea 15       	cp	r30, r10
    1760:	fb 05       	cpc	r31, r11
    1762:	99 f7       	brne	.-26     	; 0x174a <calibrateSensors+0x6e>
	{
		lineMin[i] = lineSensors.analogData[i];
		lineMax[i] = lineSensors.analogData[i];
	}
	
	calib_rotate(LEFT, CALIB_ROTATE_90);
    1764:	60 e2       	ldi	r22, 0x20	; 32
    1766:	73 e0       	ldi	r23, 0x03	; 3
    1768:	80 e0       	ldi	r24, 0x00	; 0
    176a:	0e 94 3e 0b 	call	0x167c	; 0x167c <calib_rotate>
	
	while(motorStatus.autoDrive)
    176e:	80 91 db 01 	lds	r24, 0x01DB	; 0x8001db <motorStatus>
    1772:	84 ff       	sbrs	r24, 4
    1774:	31 c0       	rjmp	.+98     	; 0x17d8 <calibrateSensors+0xfc>
    1776:	6e 01       	movw	r12, r28
    1778:	b5 e1       	ldi	r27, 0x15	; 21
    177a:	cb 0e       	add	r12, r27
    177c:	d1 1c       	adc	r13, r1
    177e:	0f 2e       	mov	r0, r31
    1780:	fb ed       	ldi	r31, 0xDB	; 219
    1782:	6f 2e       	mov	r6, r31
    1784:	f1 e0       	ldi	r31, 0x01	; 1
    1786:	7f 2e       	mov	r7, r31
    1788:	f0 2d       	mov	r31, r0
	{
		lineRead();
    178a:	0e 94 d9 0a 	call	0x15b2	; 0x15b2 <lineRead>
    178e:	27 01       	movw	r4, r14
    1790:	a4 01       	movw	r20, r8
    1792:	f8 01       	movw	r30, r16
		
		for (uint8_t i=0; i<5; i++)
		{
			if (lineMin[i] > lineSensors.analogData[i])	lineMin[i] = lineSensors.analogData[i];
    1794:	da 01       	movw	r26, r20
    1796:	2d 91       	ld	r18, X+
    1798:	3d 91       	ld	r19, X+
    179a:	ad 01       	movw	r20, r26
    179c:	c9 01       	movw	r24, r18
    179e:	60 81       	ld	r22, Z
    17a0:	71 81       	ldd	r23, Z+1	; 0x01
    17a2:	26 17       	cp	r18, r22
    17a4:	37 07       	cpc	r19, r23
    17a6:	10 f4       	brcc	.+4      	; 0x17ac <calibrateSensors+0xd0>
    17a8:	31 83       	std	Z+1, r19	; 0x01
    17aa:	20 83       	st	Z, r18
			if (lineMax[i] < lineSensors.analogData[i])	lineMax[i] = lineSensors.analogData[i];
    17ac:	d2 01       	movw	r26, r4
    17ae:	6d 91       	ld	r22, X+
    17b0:	7c 91       	ld	r23, X
    17b2:	11 97       	sbiw	r26, 0x01	; 1
    17b4:	68 17       	cp	r22, r24
    17b6:	79 07       	cpc	r23, r25
    17b8:	10 f4       	brcc	.+4      	; 0x17be <calibrateSensors+0xe2>
    17ba:	2d 93       	st	X+, r18
    17bc:	3c 93       	st	X, r19
    17be:	32 96       	adiw	r30, 0x02	; 2
    17c0:	b2 e0       	ldi	r27, 0x02	; 2
    17c2:	4b 0e       	add	r4, r27
    17c4:	51 1c       	adc	r5, r1
	
	while(motorStatus.autoDrive)
	{
		lineRead();
		
		for (uint8_t i=0; i<5; i++)
    17c6:	ec 15       	cp	r30, r12
    17c8:	fd 05       	cpc	r31, r13
    17ca:	21 f7       	brne	.-56     	; 0x1794 <calibrateSensors+0xb8>
		{
			if (lineMin[i] > lineSensors.analogData[i])	lineMin[i] = lineSensors.analogData[i];
			if (lineMax[i] < lineSensors.analogData[i])	lineMax[i] = lineSensors.analogData[i];
		}
		
		taskSystem();
    17cc:	0e 94 e5 10 	call	0x21ca	; 0x21ca <taskSystem>
		lineMax[i] = lineSensors.analogData[i];
	}
	
	calib_rotate(LEFT, CALIB_ROTATE_90);
	
	while(motorStatus.autoDrive)
    17d0:	f3 01       	movw	r30, r6
    17d2:	80 81       	ld	r24, Z
    17d4:	84 fd       	sbrc	r24, 4
    17d6:	d9 cf       	rjmp	.-78     	; 0x178a <calibrateSensors+0xae>
	#else
		//round up by default
		__ticks_dc = (uint32_t)(ceil(fabs(__tmp)));
	#endif

	__builtin_avr_delay_cycles(__ticks_dc);
    17d8:	ff ef       	ldi	r31, 0xFF	; 255
    17da:	23 ec       	ldi	r18, 0xC3	; 195
    17dc:	89 e0       	ldi	r24, 0x09	; 9
    17de:	f1 50       	subi	r31, 0x01	; 1
    17e0:	20 40       	sbci	r18, 0x00	; 0
    17e2:	80 40       	sbci	r24, 0x00	; 0
    17e4:	e1 f7       	brne	.-8      	; 0x17de <calibrateSensors+0x102>
    17e6:	00 c0       	rjmp	.+0      	; 0x17e8 <calibrateSensors+0x10c>
    17e8:	00 00       	nop
		taskSystem();
	}
	
	_delay_ms(200);
	
	calib_rotate(RIGHT, CALIB_ROTATE_180);
    17ea:	60 e4       	ldi	r22, 0x40	; 64
    17ec:	76 e0       	ldi	r23, 0x06	; 6
    17ee:	81 e0       	ldi	r24, 0x01	; 1
    17f0:	0e 94 3e 0b 	call	0x167c	; 0x167c <calib_rotate>
	
	while(motorStatus.autoDrive)
    17f4:	80 91 db 01 	lds	r24, 0x01DB	; 0x8001db <motorStatus>
    17f8:	84 ff       	sbrs	r24, 4
    17fa:	31 c0       	rjmp	.+98     	; 0x185e <calibrateSensors+0x182>
    17fc:	6e 01       	movw	r12, r28
    17fe:	95 e1       	ldi	r25, 0x15	; 21
    1800:	c9 0e       	add	r12, r25
    1802:	d1 1c       	adc	r13, r1
    1804:	0f 2e       	mov	r0, r31
    1806:	fb ed       	ldi	r31, 0xDB	; 219
    1808:	6f 2e       	mov	r6, r31
    180a:	f1 e0       	ldi	r31, 0x01	; 1
    180c:	7f 2e       	mov	r7, r31
    180e:	f0 2d       	mov	r31, r0
	{
		lineRead();
    1810:	0e 94 d9 0a 	call	0x15b2	; 0x15b2 <lineRead>
    1814:	27 01       	movw	r4, r14
    1816:	a4 01       	movw	r20, r8
    1818:	f8 01       	movw	r30, r16
		for (uint8_t i=0; i<5; i++)
		{
			if (lineMin[i] > lineSensors.analogData[i])	lineMin[i] = lineSensors.analogData[i];
    181a:	da 01       	movw	r26, r20
    181c:	2d 91       	ld	r18, X+
    181e:	3d 91       	ld	r19, X+
    1820:	ad 01       	movw	r20, r26
    1822:	c9 01       	movw	r24, r18
    1824:	60 81       	ld	r22, Z
    1826:	71 81       	ldd	r23, Z+1	; 0x01
    1828:	26 17       	cp	r18, r22
    182a:	37 07       	cpc	r19, r23
    182c:	10 f4       	brcc	.+4      	; 0x1832 <calibrateSensors+0x156>
    182e:	31 83       	std	Z+1, r19	; 0x01
    1830:	20 83       	st	Z, r18
			if (lineMax[i] < lineSensors.analogData[i])	lineMax[i] = lineSensors.analogData[i];
    1832:	d2 01       	movw	r26, r4
    1834:	6d 91       	ld	r22, X+
    1836:	7c 91       	ld	r23, X
    1838:	11 97       	sbiw	r26, 0x01	; 1
    183a:	68 17       	cp	r22, r24
    183c:	79 07       	cpc	r23, r25
    183e:	10 f4       	brcc	.+4      	; 0x1844 <calibrateSensors+0x168>
    1840:	2d 93       	st	X+, r18
    1842:	3c 93       	st	X, r19
    1844:	32 96       	adiw	r30, 0x02	; 2
    1846:	b2 e0       	ldi	r27, 0x02	; 2
    1848:	4b 0e       	add	r4, r27
    184a:	51 1c       	adc	r5, r1
	calib_rotate(RIGHT, CALIB_ROTATE_180);
	
	while(motorStatus.autoDrive)
	{
		lineRead();
		for (uint8_t i=0; i<5; i++)
    184c:	ec 15       	cp	r30, r12
    184e:	fd 05       	cpc	r31, r13
    1850:	21 f7       	brne	.-56     	; 0x181a <calibrateSensors+0x13e>
		{
			if (lineMin[i] > lineSensors.analogData[i])	lineMin[i] = lineSensors.analogData[i];
			if (lineMax[i] < lineSensors.analogData[i])	lineMax[i] = lineSensors.analogData[i];
		}
		taskSystem();
    1852:	0e 94 e5 10 	call	0x21ca	; 0x21ca <taskSystem>
	
	_delay_ms(200);
	
	calib_rotate(RIGHT, CALIB_ROTATE_180);
	
	while(motorStatus.autoDrive)
    1856:	f3 01       	movw	r30, r6
    1858:	80 81       	ld	r24, Z
    185a:	84 fd       	sbrc	r24, 4
    185c:	d9 cf       	rjmp	.-78     	; 0x1810 <calibrateSensors+0x134>
    185e:	ff ef       	ldi	r31, 0xFF	; 255
    1860:	23 ec       	ldi	r18, 0xC3	; 195
    1862:	89 e0       	ldi	r24, 0x09	; 9
    1864:	f1 50       	subi	r31, 0x01	; 1
    1866:	20 40       	sbci	r18, 0x00	; 0
    1868:	80 40       	sbci	r24, 0x00	; 0
    186a:	e1 f7       	brne	.-8      	; 0x1864 <calibrateSensors+0x188>
    186c:	00 c0       	rjmp	.+0      	; 0x186e <calibrateSensors+0x192>
    186e:	00 00       	nop
		taskSystem();
	}
	
	_delay_ms(200);
	
	calib_rotate(LEFT, CALIB_ROTATE_90);
    1870:	60 e2       	ldi	r22, 0x20	; 32
    1872:	73 e0       	ldi	r23, 0x03	; 3
    1874:	80 e0       	ldi	r24, 0x00	; 0
    1876:	0e 94 3e 0b 	call	0x167c	; 0x167c <calib_rotate>
	
	while(motorStatus.autoDrive)
    187a:	80 91 db 01 	lds	r24, 0x01DB	; 0x8001db <motorStatus>
    187e:	84 ff       	sbrs	r24, 4
    1880:	31 c0       	rjmp	.+98     	; 0x18e4 <calibrateSensors+0x208>
    1882:	6e 01       	movw	r12, r28
    1884:	95 e1       	ldi	r25, 0x15	; 21
    1886:	c9 0e       	add	r12, r25
    1888:	d1 1c       	adc	r13, r1
    188a:	0f 2e       	mov	r0, r31
    188c:	fb ed       	ldi	r31, 0xDB	; 219
    188e:	6f 2e       	mov	r6, r31
    1890:	f1 e0       	ldi	r31, 0x01	; 1
    1892:	7f 2e       	mov	r7, r31
    1894:	f0 2d       	mov	r31, r0
	{
		lineRead();
    1896:	0e 94 d9 0a 	call	0x15b2	; 0x15b2 <lineRead>
    189a:	27 01       	movw	r4, r14
    189c:	a4 01       	movw	r20, r8
    189e:	f8 01       	movw	r30, r16
		for (uint8_t i=0; i<5; i++)
		{
			if (lineMin[i] > lineSensors.analogData[i])	lineMin[i] = lineSensors.analogData[i];
    18a0:	da 01       	movw	r26, r20
    18a2:	2d 91       	ld	r18, X+
    18a4:	3d 91       	ld	r19, X+
    18a6:	ad 01       	movw	r20, r26
    18a8:	c9 01       	movw	r24, r18
    18aa:	60 81       	ld	r22, Z
    18ac:	71 81       	ldd	r23, Z+1	; 0x01
    18ae:	26 17       	cp	r18, r22
    18b0:	37 07       	cpc	r19, r23
    18b2:	10 f4       	brcc	.+4      	; 0x18b8 <calibrateSensors+0x1dc>
    18b4:	31 83       	std	Z+1, r19	; 0x01
    18b6:	20 83       	st	Z, r18
			if (lineMax[i] < lineSensors.analogData[i])	lineMax[i] = lineSensors.analogData[i];
    18b8:	d2 01       	movw	r26, r4
    18ba:	6d 91       	ld	r22, X+
    18bc:	7c 91       	ld	r23, X
    18be:	11 97       	sbiw	r26, 0x01	; 1
    18c0:	68 17       	cp	r22, r24
    18c2:	79 07       	cpc	r23, r25
    18c4:	10 f4       	brcc	.+4      	; 0x18ca <calibrateSensors+0x1ee>
    18c6:	2d 93       	st	X+, r18
    18c8:	3c 93       	st	X, r19
    18ca:	32 96       	adiw	r30, 0x02	; 2
    18cc:	b2 e0       	ldi	r27, 0x02	; 2
    18ce:	4b 0e       	add	r4, r27
    18d0:	51 1c       	adc	r5, r1
	calib_rotate(LEFT, CALIB_ROTATE_90);
	
	while(motorStatus.autoDrive)
	{
		lineRead();
		for (uint8_t i=0; i<5; i++)
    18d2:	ec 15       	cp	r30, r12
    18d4:	fd 05       	cpc	r31, r13
    18d6:	21 f7       	brne	.-56     	; 0x18a0 <calibrateSensors+0x1c4>
		{
			if (lineMin[i] > lineSensors.analogData[i])	lineMin[i] = lineSensors.analogData[i];
			if (lineMax[i] < lineSensors.analogData[i])	lineMax[i] = lineSensors.analogData[i];
		}
		taskSystem();
    18d8:	0e 94 e5 10 	call	0x21ca	; 0x21ca <taskSystem>
	
	_delay_ms(200);
	
	calib_rotate(LEFT, CALIB_ROTATE_90);
	
	while(motorStatus.autoDrive)
    18dc:	f3 01       	movw	r30, r6
    18de:	80 81       	ld	r24, Z
    18e0:	84 fd       	sbrc	r24, 4
    18e2:	d9 cf       	rjmp	.-78     	; 0x1896 <calibrateSensors+0x1ba>
		}
		taskSystem();
	}
	
	
	setStatusLED(OFF);
    18e4:	8a e0       	ldi	r24, 0x0A	; 10
    18e6:	0e 94 07 10 	call	0x200e	; 0x200e <setStatusLED>
	
	LOG_INFO("Kalibration Data\n");
    18ea:	89 ec       	ldi	r24, 0xC9	; 201
    18ec:	94 e0       	ldi	r25, 0x04	; 4
    18ee:	9f 93       	push	r25
    18f0:	8f 93       	push	r24
    18f2:	0e 94 fc 0c 	call	0x19f8	; 0x19f8 <_log_Info>
    18f6:	0f 90       	pop	r0
    18f8:	0f 90       	pop	r0
    18fa:	c1 2c       	mov	r12, r1
    18fc:	d1 2c       	mov	r13, r1
	for (uint8_t i=0; i<5; i++)
	{
		lineSensors.calibData[i] = (lineMax[i] + lineMin[i]) / 2;
		LOG_INFO("%i: %i", i, lineSensors.calibData[i]);
    18fe:	0f 2e       	mov	r0, r31
    1900:	f2 ec       	ldi	r31, 0xC2	; 194
    1902:	8f 2e       	mov	r8, r31
    1904:	f4 e0       	ldi	r31, 0x04	; 4
    1906:	9f 2e       	mov	r9, r31
    1908:	f0 2d       	mov	r31, r0
	setStatusLED(OFF);
	
	LOG_INFO("Kalibration Data\n");
	for (uint8_t i=0; i<5; i++)
	{
		lineSensors.calibData[i] = (lineMax[i] + lineMin[i]) / 2;
    190a:	d7 01       	movw	r26, r14
    190c:	2d 91       	ld	r18, X+
    190e:	3d 91       	ld	r19, X+
    1910:	7d 01       	movw	r14, r26
    1912:	f8 01       	movw	r30, r16
    1914:	81 91       	ld	r24, Z+
    1916:	91 91       	ld	r25, Z+
    1918:	8f 01       	movw	r16, r30
    191a:	82 0f       	add	r24, r18
    191c:	93 1f       	adc	r25, r19
    191e:	96 95       	lsr	r25
    1920:	87 95       	ror	r24
    1922:	d5 01       	movw	r26, r10
    1924:	8d 93       	st	X+, r24
    1926:	9d 93       	st	X+, r25
    1928:	5d 01       	movw	r10, r26
		LOG_INFO("%i: %i", i, lineSensors.calibData[i]);
    192a:	9f 93       	push	r25
    192c:	8f 93       	push	r24
    192e:	df 92       	push	r13
    1930:	cf 92       	push	r12
    1932:	9f 92       	push	r9
    1934:	8f 92       	push	r8
    1936:	0e 94 fc 0c 	call	0x19f8	; 0x19f8 <_log_Info>
    193a:	bf ef       	ldi	r27, 0xFF	; 255
    193c:	cb 1a       	sub	r12, r27
    193e:	db 0a       	sbc	r13, r27
	
	
	setStatusLED(OFF);
	
	LOG_INFO("Kalibration Data\n");
	for (uint8_t i=0; i<5; i++)
    1940:	0f 90       	pop	r0
    1942:	0f 90       	pop	r0
    1944:	0f 90       	pop	r0
    1946:	0f 90       	pop	r0
    1948:	0f 90       	pop	r0
    194a:	0f 90       	pop	r0
    194c:	e5 e0       	ldi	r30, 0x05	; 5
    194e:	ce 16       	cp	r12, r30
    1950:	d1 04       	cpc	r13, r1
    1952:	d9 f6       	brne	.-74     	; 0x190a <calibrateSensors+0x22e>
    1954:	ff ef       	ldi	r31, 0xFF	; 255
    1956:	23 ed       	ldi	r18, 0xD3	; 211
    1958:	80 e3       	ldi	r24, 0x30	; 48
    195a:	f1 50       	subi	r31, 0x01	; 1
    195c:	20 40       	sbci	r18, 0x00	; 0
    195e:	80 40       	sbci	r24, 0x00	; 0
    1960:	e1 f7       	brne	.-8      	; 0x195a <calibrateSensors+0x27e>
    1962:	00 c0       	rjmp	.+0      	; 0x1964 <calibrateSensors+0x288>
    1964:	00 00       	nop
		LOG_INFO("%i: %i", i, lineSensors.calibData[i]);
	}
	
	_delay_ms(1000);
	
	eeprom_write_block(lineSensors.calibData, lineCalib_ee, sizeof(lineCalib_ee));
    1966:	4a e0       	ldi	r20, 0x0A	; 10
    1968:	50 e0       	ldi	r21, 0x00	; 0
    196a:	60 e0       	ldi	r22, 0x00	; 0
    196c:	70 e0       	ldi	r23, 0x00	; 0
    196e:	8e ef       	ldi	r24, 0xFE	; 254
    1970:	91 e0       	ldi	r25, 0x01	; 1
    1972:	0e 94 6d 19 	call	0x32da	; 0x32da <eeprom_write_block>
	
	
	lineSensors.calibrated = true;
    1976:	e3 ef       	ldi	r30, 0xF3	; 243
    1978:	f1 e0       	ldi	r31, 0x01	; 1
    197a:	80 81       	ld	r24, Z
    197c:	81 60       	ori	r24, 0x01	; 1
    197e:	80 83       	st	Z, r24
}
    1980:	64 96       	adiw	r28, 0x14	; 20
    1982:	0f b6       	in	r0, 0x3f	; 63
    1984:	f8 94       	cli
    1986:	de bf       	out	0x3e, r29	; 62
    1988:	0f be       	out	0x3f, r0	; 63
    198a:	cd bf       	out	0x3d, r28	; 61
    198c:	df 91       	pop	r29
    198e:	cf 91       	pop	r28
    1990:	1f 91       	pop	r17
    1992:	0f 91       	pop	r16
    1994:	ff 90       	pop	r15
    1996:	ef 90       	pop	r14
    1998:	df 90       	pop	r13
    199a:	cf 90       	pop	r12
    199c:	bf 90       	pop	r11
    199e:	af 90       	pop	r10
    19a0:	9f 90       	pop	r9
    19a2:	8f 90       	pop	r8
    19a4:	7f 90       	pop	r7
    19a6:	6f 90       	pop	r6
    19a8:	5f 90       	pop	r5
    19aa:	4f 90       	pop	r4
    19ac:	08 95       	ret

000019ae <_log_Debug>:
	va_end(argPtr);
	
	uart_putc(LOG_TERMINIG);
	#endif
	
}
    19ae:	ef 92       	push	r14
    19b0:	ff 92       	push	r15
    19b2:	0f 93       	push	r16
    19b4:	1f 93       	push	r17
    19b6:	cf 93       	push	r28
    19b8:	df 93       	push	r29
    19ba:	cd b7       	in	r28, 0x3d	; 61
    19bc:	de b7       	in	r29, 0x3e	; 62
    19be:	8e 01       	movw	r16, r28
    19c0:	07 5f       	subi	r16, 0xF7	; 247
    19c2:	1f 4f       	sbci	r17, 0xFF	; 255
    19c4:	f8 01       	movw	r30, r16
    19c6:	e1 90       	ld	r14, Z+
    19c8:	f1 90       	ld	r15, Z+
    19ca:	8f 01       	movw	r16, r30
    19cc:	8c ee       	ldi	r24, 0xEC	; 236
    19ce:	94 e0       	ldi	r25, 0x04	; 4
    19d0:	0e 94 db 12 	call	0x25b6	; 0x25b6 <uart_puts_p>
    19d4:	a8 01       	movw	r20, r16
    19d6:	b7 01       	movw	r22, r14
    19d8:	80 91 7d 02 	lds	r24, 0x027D	; 0x80027d <__iob+0x2>
    19dc:	90 91 7e 02 	lds	r25, 0x027E	; 0x80027e <__iob+0x3>
    19e0:	0e 94 f0 18 	call	0x31e0	; 0x31e0 <vfprintf_P>
    19e4:	8a e0       	ldi	r24, 0x0A	; 10
    19e6:	0e 94 c6 12 	call	0x258c	; 0x258c <uart_putc>
    19ea:	df 91       	pop	r29
    19ec:	cf 91       	pop	r28
    19ee:	1f 91       	pop	r17
    19f0:	0f 91       	pop	r16
    19f2:	ff 90       	pop	r15
    19f4:	ef 90       	pop	r14
    19f6:	08 95       	ret

000019f8 <_log_Info>:
    19f8:	ef 92       	push	r14
    19fa:	ff 92       	push	r15
    19fc:	0f 93       	push	r16
    19fe:	1f 93       	push	r17
    1a00:	cf 93       	push	r28
    1a02:	df 93       	push	r29
    1a04:	cd b7       	in	r28, 0x3d	; 61
    1a06:	de b7       	in	r29, 0x3e	; 62
    1a08:	8e 01       	movw	r16, r28
    1a0a:	07 5f       	subi	r16, 0xF7	; 247
    1a0c:	1f 4f       	sbci	r17, 0xFF	; 255
    1a0e:	f8 01       	movw	r30, r16
    1a10:	e1 90       	ld	r14, Z+
    1a12:	f1 90       	ld	r15, Z+
    1a14:	8f 01       	movw	r16, r30
    1a16:	84 ee       	ldi	r24, 0xE4	; 228
    1a18:	94 e0       	ldi	r25, 0x04	; 4
    1a1a:	0e 94 db 12 	call	0x25b6	; 0x25b6 <uart_puts_p>
    1a1e:	a8 01       	movw	r20, r16
    1a20:	b7 01       	movw	r22, r14
    1a22:	80 91 7d 02 	lds	r24, 0x027D	; 0x80027d <__iob+0x2>
    1a26:	90 91 7e 02 	lds	r25, 0x027E	; 0x80027e <__iob+0x3>
    1a2a:	0e 94 f0 18 	call	0x31e0	; 0x31e0 <vfprintf_P>
    1a2e:	8a e0       	ldi	r24, 0x0A	; 10
    1a30:	0e 94 c6 12 	call	0x258c	; 0x258c <uart_putc>
    1a34:	df 91       	pop	r29
    1a36:	cf 91       	pop	r28
    1a38:	1f 91       	pop	r17
    1a3a:	0f 91       	pop	r16
    1a3c:	ff 90       	pop	r15
    1a3e:	ef 90       	pop	r14
    1a40:	08 95       	ret

00001a42 <_log_Error>:

void _log_Error(const char *format, ...)
{
    1a42:	ef 92       	push	r14
    1a44:	ff 92       	push	r15
    1a46:	0f 93       	push	r16
    1a48:	1f 93       	push	r17
    1a4a:	cf 93       	push	r28
    1a4c:	df 93       	push	r29
    1a4e:	cd b7       	in	r28, 0x3d	; 61
    1a50:	de b7       	in	r29, 0x3e	; 62
    1a52:	8e 01       	movw	r16, r28
    1a54:	07 5f       	subi	r16, 0xF7	; 247
    1a56:	1f 4f       	sbci	r17, 0xFF	; 255
    1a58:	f8 01       	movw	r30, r16
    1a5a:	e1 90       	ld	r14, Z+
    1a5c:	f1 90       	ld	r15, Z+
    1a5e:	8f 01       	movw	r16, r30
	#ifdef EN_LOGGING
	uart_puts_p(error_str);
    1a60:	8b ed       	ldi	r24, 0xDB	; 219
    1a62:	94 e0       	ldi	r25, 0x04	; 4
    1a64:	0e 94 db 12 	call	0x25b6	; 0x25b6 <uart_puts_p>
	
	va_list argPtr;
	va_start(argPtr, format);
	vfprintf_P(stdout, format, argPtr);
    1a68:	a8 01       	movw	r20, r16
    1a6a:	b7 01       	movw	r22, r14
    1a6c:	80 91 7d 02 	lds	r24, 0x027D	; 0x80027d <__iob+0x2>
    1a70:	90 91 7e 02 	lds	r25, 0x027E	; 0x80027e <__iob+0x3>
    1a74:	0e 94 f0 18 	call	0x31e0	; 0x31e0 <vfprintf_P>
	va_end(argPtr);
	
	uart_putc(LOG_TERMINIG);
    1a78:	8a e0       	ldi	r24, 0x0A	; 10
    1a7a:	0e 94 c6 12 	call	0x258c	; 0x258c <uart_putc>
	#endif
	
}
    1a7e:	df 91       	pop	r29
    1a80:	cf 91       	pop	r28
    1a82:	1f 91       	pop	r17
    1a84:	0f 91       	pop	r16
    1a86:	ff 90       	pop	r15
    1a88:	ef 90       	pop	r14
    1a8a:	08 95       	ret

00001a8c <motorDirection>:
void motorDirection(uint8_t directionL, uint8_t directionR)
{
	/************************************************************************/
	/* Linker Motor                                                         */
	/************************************************************************/
	if (directionL == MOT_FWD)
    1a8c:	81 30       	cpi	r24, 0x01	; 1
    1a8e:	49 f4       	brne	.+18     	; 0x1aa2 <motorDirection+0x16>
	{
		PORTC |= (1<<MOTOR_DIR_LA);
    1a90:	43 9a       	sbi	0x08, 3	; 8
		PORTC &= ~(1<<MOTOR_DIR_LB);
    1a92:	44 98       	cbi	0x08, 4	; 8
		motorStatus.leftDir = MOT_FWD;
    1a94:	eb ed       	ldi	r30, 0xDB	; 219
    1a96:	f1 e0       	ldi	r31, 0x01	; 1
    1a98:	80 81       	ld	r24, Z
    1a9a:	8c 7f       	andi	r24, 0xFC	; 252
    1a9c:	81 60       	ori	r24, 0x01	; 1
    1a9e:	80 83       	st	Z, r24
    1aa0:	13 c0       	rjmp	.+38     	; 0x1ac8 <motorDirection+0x3c>
	}
	else if (directionL == MOT_REV)
    1aa2:	82 30       	cpi	r24, 0x02	; 2
    1aa4:	49 f4       	brne	.+18     	; 0x1ab8 <motorDirection+0x2c>
	{
		PORTC |= (1<<MOTOR_DIR_LB);
    1aa6:	44 9a       	sbi	0x08, 4	; 8
		PORTC &= ~(1<<MOTOR_DIR_LA);
    1aa8:	43 98       	cbi	0x08, 3	; 8
		motorStatus.leftDir = MOT_REV;
    1aaa:	eb ed       	ldi	r30, 0xDB	; 219
    1aac:	f1 e0       	ldi	r31, 0x01	; 1
    1aae:	80 81       	ld	r24, Z
    1ab0:	8c 7f       	andi	r24, 0xFC	; 252
    1ab2:	82 60       	ori	r24, 0x02	; 2
    1ab4:	80 83       	st	Z, r24
    1ab6:	08 c0       	rjmp	.+16     	; 0x1ac8 <motorDirection+0x3c>
	}
	else
	{
		PORTC &= ~( (1<<MOTOR_DIR_LA) | (1<<MOTOR_DIR_LB) );
    1ab8:	88 b1       	in	r24, 0x08	; 8
    1aba:	87 7e       	andi	r24, 0xE7	; 231
    1abc:	88 b9       	out	0x08, r24	; 8
		motorStatus.leftDir = MOT_BREAK;
    1abe:	eb ed       	ldi	r30, 0xDB	; 219
    1ac0:	f1 e0       	ldi	r31, 0x01	; 1
    1ac2:	80 81       	ld	r24, Z
    1ac4:	8c 7f       	andi	r24, 0xFC	; 252
    1ac6:	80 83       	st	Z, r24
	}
	
	/************************************************************************/
	/* Rechter Motor                                                        */
	/************************************************************************/
	if (directionR == MOT_FWD)
    1ac8:	61 30       	cpi	r22, 0x01	; 1
    1aca:	49 f4       	brne	.+18     	; 0x1ade <motorDirection+0x52>
	{
		PORTC &= ~(1<<MOTOR_DIR_RB);
    1acc:	42 98       	cbi	0x08, 2	; 8
		PORTD |= (1<<MOTOR_DIR_RA);
    1ace:	5c 9a       	sbi	0x0b, 4	; 11
		motorStatus.rightDir = MOT_FWD;
    1ad0:	eb ed       	ldi	r30, 0xDB	; 219
    1ad2:	f1 e0       	ldi	r31, 0x01	; 1
    1ad4:	80 81       	ld	r24, Z
    1ad6:	83 7f       	andi	r24, 0xF3	; 243
    1ad8:	84 60       	ori	r24, 0x04	; 4
    1ada:	80 83       	st	Z, r24
    1adc:	08 95       	ret
	}
	else if (directionR == MOT_REV)
    1ade:	62 30       	cpi	r22, 0x02	; 2
    1ae0:	49 f4       	brne	.+18     	; 0x1af4 <motorDirection+0x68>
	{
		PORTC |= (1<<MOTOR_DIR_RB);
    1ae2:	42 9a       	sbi	0x08, 2	; 8
		PORTD &= ~(1<<MOTOR_DIR_RA);
    1ae4:	5c 98       	cbi	0x0b, 4	; 11
		motorStatus.rightDir = MOT_REV;
    1ae6:	eb ed       	ldi	r30, 0xDB	; 219
    1ae8:	f1 e0       	ldi	r31, 0x01	; 1
    1aea:	80 81       	ld	r24, Z
    1aec:	83 7f       	andi	r24, 0xF3	; 243
    1aee:	88 60       	ori	r24, 0x08	; 8
    1af0:	80 83       	st	Z, r24
    1af2:	08 95       	ret
	}
	else
	{
		PORTC &= ~(1<<MOTOR_DIR_RB);
    1af4:	42 98       	cbi	0x08, 2	; 8
		PORTD &= ~(1<<MOTOR_DIR_RA);
    1af6:	5c 98       	cbi	0x0b, 4	; 11
		motorStatus.rightDir = MOT_BREAK;
    1af8:	eb ed       	ldi	r30, 0xDB	; 219
    1afa:	f1 e0       	ldi	r31, 0x01	; 1
    1afc:	80 81       	ld	r24, Z
    1afe:	83 7f       	andi	r24, 0xF3	; 243
    1b00:	80 83       	st	Z, r24
    1b02:	08 95       	ret

00001b04 <motor_speed>:
	
}

void motor_speed(int16_t left, int16_t right)
{
	motorStatus.speedRight = right;
    1b04:	eb ed       	ldi	r30, 0xDB	; 219
    1b06:	f1 e0       	ldi	r31, 0x01	; 1
    1b08:	74 83       	std	Z+4, r23	; 0x04
    1b0a:	63 83       	std	Z+3, r22	; 0x03
	motorStatus.speedLeft = left + motorStatus.deltaLeft;
    1b0c:	25 81       	ldd	r18, Z+5	; 0x05
    1b0e:	82 0f       	add	r24, r18
    1b10:	91 1d       	adc	r25, r1
    1b12:	27 fd       	sbrc	r18, 7
    1b14:	9a 95       	dec	r25
	
	if (motorStatus.speedLeft  > UINT8_MAX)
    1b16:	8f 3f       	cpi	r24, 0xFF	; 255
    1b18:	91 05       	cpc	r25, r1
    1b1a:	41 f0       	breq	.+16     	; 0x1b2c <motor_speed+0x28>
    1b1c:	3c f0       	brlt	.+14     	; 0x1b2c <motor_speed+0x28>
	{
		motorStatus.speedLeft  = UINT8_MAX;
    1b1e:	8f ef       	ldi	r24, 0xFF	; 255
    1b20:	90 e0       	ldi	r25, 0x00	; 0
    1b22:	90 93 dd 01 	sts	0x01DD, r25	; 0x8001dd <motorStatus+0x2>
    1b26:	80 93 dc 01 	sts	0x01DC, r24	; 0x8001dc <motorStatus+0x1>
    1b2a:	0b c0       	rjmp	.+22     	; 0x1b42 <motor_speed+0x3e>
	}
	else if (motorStatus.speedLeft  < 0)
    1b2c:	99 23       	and	r25, r25
    1b2e:	2c f0       	brlt	.+10     	; 0x1b3a <motor_speed+0x36>
}

void motor_speed(int16_t left, int16_t right)
{
	motorStatus.speedRight = right;
	motorStatus.speedLeft = left + motorStatus.deltaLeft;
    1b30:	90 93 dd 01 	sts	0x01DD, r25	; 0x8001dd <motorStatus+0x2>
    1b34:	80 93 dc 01 	sts	0x01DC, r24	; 0x8001dc <motorStatus+0x1>
    1b38:	04 c0       	rjmp	.+8      	; 0x1b42 <motor_speed+0x3e>
	{
		motorStatus.speedLeft  = UINT8_MAX;
	}
	else if (motorStatus.speedLeft  < 0)
	{
		motorStatus.speedLeft  = 0;
    1b3a:	10 92 dd 01 	sts	0x01DD, r1	; 0x8001dd <motorStatus+0x2>
    1b3e:	10 92 dc 01 	sts	0x01DC, r1	; 0x8001dc <motorStatus+0x1>
	}
	
	if (motorStatus.speedRight > UINT8_MAX)
    1b42:	6f 3f       	cpi	r22, 0xFF	; 255
    1b44:	71 05       	cpc	r23, r1
    1b46:	41 f0       	breq	.+16     	; 0x1b58 <motor_speed+0x54>
    1b48:	3c f0       	brlt	.+14     	; 0x1b58 <motor_speed+0x54>
	{
		motorStatus.speedRight = UINT8_MAX;
    1b4a:	8f ef       	ldi	r24, 0xFF	; 255
    1b4c:	90 e0       	ldi	r25, 0x00	; 0
    1b4e:	90 93 df 01 	sts	0x01DF, r25	; 0x8001df <motorStatus+0x4>
    1b52:	80 93 de 01 	sts	0x01DE, r24	; 0x8001de <motorStatus+0x3>
    1b56:	06 c0       	rjmp	.+12     	; 0x1b64 <motor_speed+0x60>
	}
	else if (motorStatus.speedRight < 0)
    1b58:	77 23       	and	r23, r23
    1b5a:	24 f4       	brge	.+8      	; 0x1b64 <motor_speed+0x60>
	{
		motorStatus.speedRight = 0;
    1b5c:	10 92 df 01 	sts	0x01DF, r1	; 0x8001df <motorStatus+0x4>
    1b60:	10 92 de 01 	sts	0x01DE, r1	; 0x8001de <motorStatus+0x3>
	}
	
	// Set Left Motor Speed
	OCR2A = (uint8_t)motorStatus.speedLeft;
    1b64:	eb ed       	ldi	r30, 0xDB	; 219
    1b66:	f1 e0       	ldi	r31, 0x01	; 1
    1b68:	81 81       	ldd	r24, Z+1	; 0x01
    1b6a:	80 93 b3 00 	sts	0x00B3, r24	; 0x8000b3 <__TEXT_REGION_LENGTH__+0x7e00b3>
	OCR2B = (uint8_t)motorStatus.speedRight;
    1b6e:	83 81       	ldd	r24, Z+3	; 0x03
    1b70:	80 93 b4 00 	sts	0x00B4, r24	; 0x8000b4 <__TEXT_REGION_LENGTH__+0x7e00b4>
    1b74:	08 95       	ret

00001b76 <rotate>:
}

void rotate(uint8_t direction, uint16_t angle, uint8_t blocking)
{
    1b76:	0f 93       	push	r16
    1b78:	1f 93       	push	r17
    1b7a:	cf 93       	push	r28
    1b7c:	df 93       	push	r29
    1b7e:	08 2f       	mov	r16, r24
    1b80:	eb 01       	movw	r28, r22
    1b82:	14 2f       	mov	r17, r20
	
	uint16_t timer;
	motor_speed(TURN_SPEED, TURN_SPEED);
    1b84:	64 e6       	ldi	r22, 0x64	; 100
    1b86:	70 e0       	ldi	r23, 0x00	; 0
    1b88:	84 e6       	ldi	r24, 0x64	; 100
    1b8a:	90 e0       	ldi	r25, 0x00	; 0
    1b8c:	0e 94 82 0d 	call	0x1b04	; 0x1b04 <motor_speed>
		
	if (blocking == BLOCKING)
    1b90:	11 11       	cpse	r17, r1
    1b92:	43 c0       	rjmp	.+134    	; 0x1c1a <rotate+0xa4>
	{
		if (direction == LEFT)
    1b94:	01 11       	cpse	r16, r1
    1b96:	1f c0       	rjmp	.+62     	; 0x1bd6 <rotate+0x60>
		{
			motorDirection(MOT_REV, MOT_FWD);
    1b98:	61 e0       	ldi	r22, 0x01	; 1
    1b9a:	82 e0       	ldi	r24, 0x02	; 2
    1b9c:	0e 94 46 0d 	call	0x1a8c	; 0x1a8c <motorDirection>
			setStopwatch(STOPWATCH8,0);
    1ba0:	60 e0       	ldi	r22, 0x00	; 0
    1ba2:	70 e0       	ldi	r23, 0x00	; 0
    1ba4:	80 e8       	ldi	r24, 0x80	; 128
    1ba6:	90 e0       	ldi	r25, 0x00	; 0
    1ba8:	0e 94 ce 11 	call	0x239c	; 0x239c <setStopwatch>
			startStopwatch8();
    1bac:	ea e6       	ldi	r30, 0x6A	; 106
    1bae:	f2 e0       	ldi	r31, 0x02	; 2
    1bb0:	80 81       	ld	r24, Z
    1bb2:	80 68       	ori	r24, 0x80	; 128
    1bb4:	80 83       	st	Z, r24
			do
			{
				timer = getStopwatch(STOPWATCH8);
    1bb6:	80 e8       	ldi	r24, 0x80	; 128
    1bb8:	0e 94 13 12 	call	0x2426	; 0x2426 <getStopwatch>
			}while(timer < angle);
    1bbc:	8c 17       	cp	r24, r28
    1bbe:	9d 07       	cpc	r25, r29
    1bc0:	d0 f3       	brcs	.-12     	; 0x1bb6 <rotate+0x40>
				
			motorDirection(MOT_BREAK, MOT_BREAK);
    1bc2:	60 e0       	ldi	r22, 0x00	; 0
    1bc4:	80 e0       	ldi	r24, 0x00	; 0
    1bc6:	0e 94 46 0d 	call	0x1a8c	; 0x1a8c <motorDirection>
			stopStopwatch8();
    1bca:	ea e6       	ldi	r30, 0x6A	; 106
    1bcc:	f2 e0       	ldi	r31, 0x02	; 2
    1bce:	80 81       	ld	r24, Z
    1bd0:	8f 77       	andi	r24, 0x7F	; 127
    1bd2:	80 83       	st	Z, r24
    1bd4:	45 c0       	rjmp	.+138    	; 0x1c60 <rotate+0xea>
		}
		else if (direction == RIGHT)
    1bd6:	01 30       	cpi	r16, 0x01	; 1
    1bd8:	09 f0       	breq	.+2      	; 0x1bdc <rotate+0x66>
    1bda:	42 c0       	rjmp	.+132    	; 0x1c60 <rotate+0xea>
		{
			motorDirection(MOT_FWD, MOT_REV);
    1bdc:	62 e0       	ldi	r22, 0x02	; 2
    1bde:	81 e0       	ldi	r24, 0x01	; 1
    1be0:	0e 94 46 0d 	call	0x1a8c	; 0x1a8c <motorDirection>
			setStopwatch(STOPWATCH8,0);
    1be4:	60 e0       	ldi	r22, 0x00	; 0
    1be6:	70 e0       	ldi	r23, 0x00	; 0
    1be8:	80 e8       	ldi	r24, 0x80	; 128
    1bea:	90 e0       	ldi	r25, 0x00	; 0
    1bec:	0e 94 ce 11 	call	0x239c	; 0x239c <setStopwatch>
			startStopwatch8();
    1bf0:	ea e6       	ldi	r30, 0x6A	; 106
    1bf2:	f2 e0       	ldi	r31, 0x02	; 2
    1bf4:	80 81       	ld	r24, Z
    1bf6:	80 68       	ori	r24, 0x80	; 128
    1bf8:	80 83       	st	Z, r24
			do
			{	
				timer = getStopwatch(STOPWATCH8);
    1bfa:	80 e8       	ldi	r24, 0x80	; 128
    1bfc:	0e 94 13 12 	call	0x2426	; 0x2426 <getStopwatch>
			}while(timer < angle);
    1c00:	8c 17       	cp	r24, r28
    1c02:	9d 07       	cpc	r25, r29
    1c04:	d0 f3       	brcs	.-12     	; 0x1bfa <rotate+0x84>
				
			motorDirection(MOT_BREAK, MOT_BREAK);
    1c06:	60 e0       	ldi	r22, 0x00	; 0
    1c08:	80 e0       	ldi	r24, 0x00	; 0
    1c0a:	0e 94 46 0d 	call	0x1a8c	; 0x1a8c <motorDirection>
			stopStopwatch8();
    1c0e:	ea e6       	ldi	r30, 0x6A	; 106
    1c10:	f2 e0       	ldi	r31, 0x02	; 2
    1c12:	80 81       	ld	r24, Z
    1c14:	8f 77       	andi	r24, 0x7F	; 127
    1c16:	80 83       	st	Z, r24
    1c18:	23 c0       	rjmp	.+70     	; 0x1c60 <rotate+0xea>
		}
	}
	else if (blocking == NO_BLOCKING)
    1c1a:	11 30       	cpi	r17, 0x01	; 1
    1c1c:	09 f5       	brne	.+66     	; 0x1c60 <rotate+0xea>
	{
			
		if (direction == LEFT)	motorDirection(MOT_REV, MOT_FWD);
    1c1e:	01 11       	cpse	r16, r1
    1c20:	05 c0       	rjmp	.+10     	; 0x1c2c <rotate+0xb6>
    1c22:	61 e0       	ldi	r22, 0x01	; 1
    1c24:	82 e0       	ldi	r24, 0x02	; 2
    1c26:	0e 94 46 0d 	call	0x1a8c	; 0x1a8c <motorDirection>
    1c2a:	06 c0       	rjmp	.+12     	; 0x1c38 <rotate+0xc2>
		else if (direction == RIGHT) motorDirection(MOT_FWD, MOT_REV);
    1c2c:	01 30       	cpi	r16, 0x01	; 1
    1c2e:	21 f4       	brne	.+8      	; 0x1c38 <rotate+0xc2>
    1c30:	62 e0       	ldi	r22, 0x02	; 2
    1c32:	81 e0       	ldi	r24, 0x01	; 1
    1c34:	0e 94 46 0d 	call	0x1a8c	; 0x1a8c <motorDirection>
			
		motorStatus.autoDrive= true;
    1c38:	0b ed       	ldi	r16, 0xDB	; 219
    1c3a:	11 e0       	ldi	r17, 0x01	; 1
    1c3c:	f8 01       	movw	r30, r16
    1c3e:	80 81       	ld	r24, Z
    1c40:	80 61       	ori	r24, 0x10	; 16
    1c42:	80 83       	st	Z, r24
		setStopwatch(STOPWATCH8,0);
    1c44:	60 e0       	ldi	r22, 0x00	; 0
    1c46:	70 e0       	ldi	r23, 0x00	; 0
    1c48:	80 e8       	ldi	r24, 0x80	; 128
    1c4a:	90 e0       	ldi	r25, 0x00	; 0
    1c4c:	0e 94 ce 11 	call	0x239c	; 0x239c <setStopwatch>
		startStopwatch8();
    1c50:	ea e6       	ldi	r30, 0x6A	; 106
    1c52:	f2 e0       	ldi	r31, 0x02	; 2
    1c54:	80 81       	ld	r24, Z
    1c56:	80 68       	ori	r24, 0x80	; 128
    1c58:	80 83       	st	Z, r24
		motorStatus.timer = angle;
    1c5a:	f8 01       	movw	r30, r16
    1c5c:	d3 87       	std	Z+11, r29	; 0x0b
    1c5e:	c2 87       	std	Z+10, r28	; 0x0a
	}
	
}
    1c60:	df 91       	pop	r29
    1c62:	cf 91       	pop	r28
    1c64:	1f 91       	pop	r17
    1c66:	0f 91       	pop	r16
    1c68:	08 95       	ret

00001c6a <motorInit>:


void motorInit(void)
{
	motorDirection(MOT_BREAK, MOT_BREAK);
    1c6a:	60 e0       	ldi	r22, 0x00	; 0
    1c6c:	80 e0       	ldi	r24, 0x00	; 0
    1c6e:	0e 94 46 0d 	call	0x1a8c	; 0x1a8c <motorDirection>
	
	// Motor PWM Treiber Timer2
	// Mode 3 Fast-PWM, Prescaler 8 f_pwm = 7812 HZ
	TCCR2A |= (1<<COM2A1) | (1<<COM0B1) | (1<<WGM21) | (1<<WGM20);
    1c72:	e0 eb       	ldi	r30, 0xB0	; 176
    1c74:	f0 e0       	ldi	r31, 0x00	; 0
    1c76:	80 81       	ld	r24, Z
    1c78:	83 6a       	ori	r24, 0xA3	; 163
    1c7a:	80 83       	st	Z, r24
	TCCR2B |= (1<<CS22) | (1<<CS21) | (1<<CS20);
    1c7c:	e1 eb       	ldi	r30, 0xB1	; 177
    1c7e:	f0 e0       	ldi	r31, 0x00	; 0
    1c80:	80 81       	ld	r24, Z
    1c82:	87 60       	ori	r24, 0x07	; 7
    1c84:	80 83       	st	Z, r24
	//TIMSK2 |= (1<<TOIE2);
	OCR2A = 0x00;
    1c86:	10 92 b3 00 	sts	0x00B3, r1	; 0x8000b3 <__TEXT_REGION_LENGTH__+0x7e00b3>
	OCR2B = 0x00;
    1c8a:	10 92 b4 00 	sts	0x00B4, r1	; 0x8000b4 <__TEXT_REGION_LENGTH__+0x7e00b4>
	
	motorStatus.deltaLeft = MOTOR_DIFF_L;
    1c8e:	83 ef       	ldi	r24, 0xF3	; 243
    1c90:	80 93 e0 01 	sts	0x01E0, r24	; 0x8001e0 <motorStatus+0x5>
    1c94:	08 95       	ret

00001c96 <pid_Init>:
 *  \param d_factor  Derivate term.
 *  \param pid  Struct with PID status.
 */
void pid_Init(int16_t p_factor, int16_t i_factor, int16_t d_factor, struct PID_DATA *pid)
// Set up PID controller parameters
{
    1c96:	cf 93       	push	r28
    1c98:	df 93       	push	r29
    1c9a:	eb 01       	movw	r28, r22
    1c9c:	f9 01       	movw	r30, r18
  // Start values for PID controller
  pid->sumError = 0;
    1c9e:	12 82       	std	Z+2, r1	; 0x02
    1ca0:	13 82       	std	Z+3, r1	; 0x03
    1ca2:	14 82       	std	Z+4, r1	; 0x04
    1ca4:	15 82       	std	Z+5, r1	; 0x05
  pid->lastProcessValue = 0;
    1ca6:	11 82       	std	Z+1, r1	; 0x01
    1ca8:	10 82       	st	Z, r1
  // Tuning constants for PID loop
  pid->P_Factor = p_factor;
    1caa:	97 83       	std	Z+7, r25	; 0x07
    1cac:	86 83       	std	Z+6, r24	; 0x06
  pid->I_Factor = i_factor;
    1cae:	71 87       	std	Z+9, r23	; 0x09
    1cb0:	60 87       	std	Z+8, r22	; 0x08
  pid->D_Factor = d_factor;
    1cb2:	53 87       	std	Z+11, r21	; 0x0b
    1cb4:	42 87       	std	Z+10, r20	; 0x0a
  // Limits to avoid overflow
  pid->maxError = MAX_INT / (pid->P_Factor + 1);
    1cb6:	bc 01       	movw	r22, r24
    1cb8:	6f 5f       	subi	r22, 0xFF	; 255
    1cba:	7f 4f       	sbci	r23, 0xFF	; 255
    1cbc:	8f ef       	ldi	r24, 0xFF	; 255
    1cbe:	9f e7       	ldi	r25, 0x7F	; 127
    1cc0:	0e 94 c2 16 	call	0x2d84	; 0x2d84 <__divmodhi4>
    1cc4:	75 87       	std	Z+13, r23	; 0x0d
    1cc6:	64 87       	std	Z+12, r22	; 0x0c
  pid->maxSumError = MAX_I_TERM / (pid->I_Factor + 1);
    1cc8:	be 01       	movw	r22, r28
    1cca:	6f 5f       	subi	r22, 0xFF	; 255
    1ccc:	7f 4f       	sbci	r23, 0xFF	; 255
    1cce:	8f ef       	ldi	r24, 0xFF	; 255
    1cd0:	9f e3       	ldi	r25, 0x3F	; 63
    1cd2:	0e 94 c2 16 	call	0x2d84	; 0x2d84 <__divmodhi4>
    1cd6:	cb 01       	movw	r24, r22
    1cd8:	77 0f       	add	r23, r23
    1cda:	aa 0b       	sbc	r26, r26
    1cdc:	bb 0b       	sbc	r27, r27
    1cde:	86 87       	std	Z+14, r24	; 0x0e
    1ce0:	97 87       	std	Z+15, r25	; 0x0f
    1ce2:	a0 8b       	std	Z+16, r26	; 0x10
    1ce4:	b1 8b       	std	Z+17, r27	; 0x11
}
    1ce6:	df 91       	pop	r29
    1ce8:	cf 91       	pop	r28
    1cea:	08 95       	ret

00001cec <pid_Controller>:
 *  \param setPoint  Desired value.
 *  \param processValue  Measured value.
 *  \param pid_st  PID status struct.
 */
int16_t pid_Controller(int16_t setPoint, int16_t processValue, struct PID_DATA *pid_st)
{
    1cec:	ef 92       	push	r14
    1cee:	ff 92       	push	r15
    1cf0:	0f 93       	push	r16
    1cf2:	1f 93       	push	r17
    1cf4:	cf 93       	push	r28
    1cf6:	df 93       	push	r29
    1cf8:	8b 01       	movw	r16, r22
    1cfa:	fa 01       	movw	r30, r20
  int16_t error, p_term, d_term;
  int32_t i_term, ret, temp;

  error = setPoint - processValue;
    1cfc:	86 1b       	sub	r24, r22
    1cfe:	97 0b       	sbc	r25, r23

  // Calculate Pterm and limit error overflow
  if (error > pid_st->maxError){
    1d00:	24 85       	ldd	r18, Z+12	; 0x0c
    1d02:	35 85       	ldd	r19, Z+13	; 0x0d
    1d04:	28 17       	cp	r18, r24
    1d06:	39 07       	cpc	r19, r25
    1d08:	84 f0       	brlt	.+32     	; 0x1d2a <pid_Controller+0x3e>
    p_term = MAX_INT;
  }
  else if (error < -pid_st->maxError){
    1d0a:	31 95       	neg	r19
    1d0c:	21 95       	neg	r18
    1d0e:	31 09       	sbc	r19, r1
    1d10:	82 17       	cp	r24, r18
    1d12:	93 07       	cpc	r25, r19
    1d14:	6c f0       	brlt	.+26     	; 0x1d30 <pid_Controller+0x44>
    p_term = -MAX_INT;
  }
  else{
    p_term = pid_st->P_Factor * error;
    1d16:	26 81       	ldd	r18, Z+6	; 0x06
    1d18:	37 81       	ldd	r19, Z+7	; 0x07
    1d1a:	82 9f       	mul	r24, r18
    1d1c:	e0 01       	movw	r28, r0
    1d1e:	83 9f       	mul	r24, r19
    1d20:	d0 0d       	add	r29, r0
    1d22:	92 9f       	mul	r25, r18
    1d24:	d0 0d       	add	r29, r0
    1d26:	11 24       	eor	r1, r1
    1d28:	05 c0       	rjmp	.+10     	; 0x1d34 <pid_Controller+0x48>

  error = setPoint - processValue;

  // Calculate Pterm and limit error overflow
  if (error > pid_st->maxError){
    p_term = MAX_INT;
    1d2a:	cf ef       	ldi	r28, 0xFF	; 255
    1d2c:	df e7       	ldi	r29, 0x7F	; 127
    1d2e:	02 c0       	rjmp	.+4      	; 0x1d34 <pid_Controller+0x48>
  }
  else if (error < -pid_st->maxError){
    p_term = -MAX_INT;
    1d30:	c1 e0       	ldi	r28, 0x01	; 1
    1d32:	d0 e8       	ldi	r29, 0x80	; 128
  else{
    p_term = pid_st->P_Factor * error;
  }

  // Calculate Iterm and limit integral runaway
  temp = pid_st->sumError + error;
    1d34:	09 2e       	mov	r0, r25
    1d36:	00 0c       	add	r0, r0
    1d38:	aa 0b       	sbc	r26, r26
    1d3a:	bb 0b       	sbc	r27, r27
    1d3c:	42 81       	ldd	r20, Z+2	; 0x02
    1d3e:	53 81       	ldd	r21, Z+3	; 0x03
    1d40:	64 81       	ldd	r22, Z+4	; 0x04
    1d42:	75 81       	ldd	r23, Z+5	; 0x05
    1d44:	9a 01       	movw	r18, r20
    1d46:	ab 01       	movw	r20, r22
    1d48:	28 0f       	add	r18, r24
    1d4a:	39 1f       	adc	r19, r25
    1d4c:	4a 1f       	adc	r20, r26
    1d4e:	5b 1f       	adc	r21, r27
  if(temp > pid_st->maxSumError){
    1d50:	86 85       	ldd	r24, Z+14	; 0x0e
    1d52:	97 85       	ldd	r25, Z+15	; 0x0f
    1d54:	a0 89       	ldd	r26, Z+16	; 0x10
    1d56:	b1 89       	ldd	r27, Z+17	; 0x11
    1d58:	82 17       	cp	r24, r18
    1d5a:	93 07       	cpc	r25, r19
    1d5c:	a4 07       	cpc	r26, r20
    1d5e:	b5 07       	cpc	r27, r21
    1d60:	4c f4       	brge	.+18     	; 0x1d74 <pid_Controller+0x88>
    i_term = MAX_I_TERM;
    pid_st->sumError = pid_st->maxSumError;
    1d62:	82 83       	std	Z+2, r24	; 0x02
    1d64:	93 83       	std	Z+3, r25	; 0x03
    1d66:	a4 83       	std	Z+4, r26	; 0x04
    1d68:	b5 83       	std	Z+5, r27	; 0x05
  }

  // Calculate Iterm and limit integral runaway
  temp = pid_st->sumError + error;
  if(temp > pid_st->maxSumError){
    i_term = MAX_I_TERM;
    1d6a:	6f ef       	ldi	r22, 0xFF	; 255
    1d6c:	7f e3       	ldi	r23, 0x3F	; 63
    1d6e:	80 e0       	ldi	r24, 0x00	; 0
    1d70:	90 e0       	ldi	r25, 0x00	; 0
    1d72:	1d c0       	rjmp	.+58     	; 0x1dae <pid_Controller+0xc2>
    pid_st->sumError = pid_st->maxSumError;
  }
  else if(temp < -pid_st->maxSumError){
    1d74:	b0 95       	com	r27
    1d76:	a0 95       	com	r26
    1d78:	90 95       	com	r25
    1d7a:	81 95       	neg	r24
    1d7c:	9f 4f       	sbci	r25, 0xFF	; 255
    1d7e:	af 4f       	sbci	r26, 0xFF	; 255
    1d80:	bf 4f       	sbci	r27, 0xFF	; 255
    1d82:	28 17       	cp	r18, r24
    1d84:	39 07       	cpc	r19, r25
    1d86:	4a 07       	cpc	r20, r26
    1d88:	5b 07       	cpc	r21, r27
    1d8a:	4c f4       	brge	.+18     	; 0x1d9e <pid_Controller+0xb2>
    i_term = -MAX_I_TERM;
    pid_st->sumError = -pid_st->maxSumError;
    1d8c:	82 83       	std	Z+2, r24	; 0x02
    1d8e:	93 83       	std	Z+3, r25	; 0x03
    1d90:	a4 83       	std	Z+4, r26	; 0x04
    1d92:	b5 83       	std	Z+5, r27	; 0x05
  if(temp > pid_st->maxSumError){
    i_term = MAX_I_TERM;
    pid_st->sumError = pid_st->maxSumError;
  }
  else if(temp < -pid_st->maxSumError){
    i_term = -MAX_I_TERM;
    1d94:	61 e0       	ldi	r22, 0x01	; 1
    1d96:	70 ec       	ldi	r23, 0xC0	; 192
    1d98:	8f ef       	ldi	r24, 0xFF	; 255
    1d9a:	9f ef       	ldi	r25, 0xFF	; 255
    1d9c:	08 c0       	rjmp	.+16     	; 0x1dae <pid_Controller+0xc2>
    pid_st->sumError = -pid_st->maxSumError;
  }
  else{
    pid_st->sumError = temp;
    1d9e:	22 83       	std	Z+2, r18	; 0x02
    1da0:	33 83       	std	Z+3, r19	; 0x03
    1da2:	44 83       	std	Z+4, r20	; 0x04
    1da4:	55 83       	std	Z+5, r21	; 0x05
    i_term = pid_st->I_Factor * pid_st->sumError;
    1da6:	a0 85       	ldd	r26, Z+8	; 0x08
    1da8:	b1 85       	ldd	r27, Z+9	; 0x09
    1daa:	0e 94 f6 16 	call	0x2dec	; 0x2dec <__mulshisi3>
  }

  // Calculate Dterm
  d_term = pid_st->D_Factor * (pid_st->lastProcessValue - processValue);
    1dae:	20 81       	ld	r18, Z
    1db0:	31 81       	ldd	r19, Z+1	; 0x01
    1db2:	20 1b       	sub	r18, r16
    1db4:	31 0b       	sbc	r19, r17
    1db6:	a2 85       	ldd	r26, Z+10	; 0x0a
    1db8:	b3 85       	ldd	r27, Z+11	; 0x0b
    1dba:	2a 9f       	mul	r18, r26
    1dbc:	70 01       	movw	r14, r0
    1dbe:	2b 9f       	mul	r18, r27
    1dc0:	f0 0c       	add	r15, r0
    1dc2:	3a 9f       	mul	r19, r26
    1dc4:	f0 0c       	add	r15, r0
    1dc6:	11 24       	eor	r1, r1

  pid_st->lastProcessValue = processValue;
    1dc8:	11 83       	std	Z+1, r17	; 0x01
    1dca:	00 83       	st	Z, r16

  ret = (p_term + i_term + d_term) / SCALING_FACTOR;
    1dcc:	8e 01       	movw	r16, r28
    1dce:	dd 0f       	add	r29, r29
    1dd0:	22 0b       	sbc	r18, r18
    1dd2:	33 0b       	sbc	r19, r19
    1dd4:	ab 01       	movw	r20, r22
    1dd6:	bc 01       	movw	r22, r24
    1dd8:	40 0f       	add	r20, r16
    1dda:	51 1f       	adc	r21, r17
    1ddc:	62 1f       	adc	r22, r18
    1dde:	73 1f       	adc	r23, r19
    1de0:	c7 01       	movw	r24, r14
    1de2:	ff 0c       	add	r15, r15
    1de4:	aa 0b       	sbc	r26, r26
    1de6:	bb 0b       	sbc	r27, r27
    1de8:	48 0f       	add	r20, r24
    1dea:	59 1f       	adc	r21, r25
    1dec:	6a 1f       	adc	r22, r26
    1dee:	7b 1f       	adc	r23, r27
    1df0:	db 01       	movw	r26, r22
    1df2:	ca 01       	movw	r24, r20
    1df4:	77 23       	and	r23, r23
    1df6:	24 f4       	brge	.+8      	; 0x1e00 <pid_Controller+0x114>
    1df8:	81 58       	subi	r24, 0x81	; 129
    1dfa:	9f 4f       	sbci	r25, 0xFF	; 255
    1dfc:	af 4f       	sbci	r26, 0xFF	; 255
    1dfe:	bf 4f       	sbci	r27, 0xFF	; 255
    1e00:	68 94       	set
    1e02:	16 f8       	bld	r1, 6
    1e04:	b5 95       	asr	r27
    1e06:	a7 95       	ror	r26
    1e08:	97 95       	ror	r25
    1e0a:	87 95       	ror	r24
    1e0c:	16 94       	lsr	r1
    1e0e:	d1 f7       	brne	.-12     	; 0x1e04 <pid_Controller+0x118>
    1e10:	81 30       	cpi	r24, 0x01	; 1
    1e12:	20 e8       	ldi	r18, 0x80	; 128
    1e14:	92 07       	cpc	r25, r18
    1e16:	2f ef       	ldi	r18, 0xFF	; 255
    1e18:	a2 07       	cpc	r26, r18
    1e1a:	b2 07       	cpc	r27, r18
    1e1c:	24 f4       	brge	.+8      	; 0x1e26 <pid_Controller+0x13a>
    1e1e:	81 e0       	ldi	r24, 0x01	; 1
    1e20:	90 e8       	ldi	r25, 0x80	; 128
    1e22:	af ef       	ldi	r26, 0xFF	; 255
    1e24:	bf ef       	ldi	r27, 0xFF	; 255
  }
  else if(ret < -MAX_INT){
    ret = -MAX_INT;
  }

  return((int16_t)ret);
    1e26:	81 15       	cp	r24, r1
    1e28:	20 e8       	ldi	r18, 0x80	; 128
    1e2a:	92 07       	cpc	r25, r18
    1e2c:	a1 05       	cpc	r26, r1
    1e2e:	b1 05       	cpc	r27, r1
    1e30:	24 f0       	brlt	.+8      	; 0x1e3a <pid_Controller+0x14e>
    1e32:	8f ef       	ldi	r24, 0xFF	; 255
    1e34:	9f e7       	ldi	r25, 0x7F	; 127
    1e36:	a0 e0       	ldi	r26, 0x00	; 0
    1e38:	b0 e0       	ldi	r27, 0x00	; 0
}
    1e3a:	df 91       	pop	r29
    1e3c:	cf 91       	pop	r28
    1e3e:	1f 91       	pop	r17
    1e40:	0f 91       	pop	r16
    1e42:	ff 90       	pop	r15
    1e44:	ef 90       	pop	r14
    1e46:	08 95       	ret

00001e48 <pid_Reset_Integrator>:
 *
 *  Calling this function will reset the integrator in the PID regulator.
 */
void pid_Reset_Integrator(pidData_t *pid_st)
{
  pid_st->sumError = 0;
    1e48:	fc 01       	movw	r30, r24
    1e4a:	12 82       	std	Z+2, r1	; 0x02
    1e4c:	13 82       	std	Z+3, r1	; 0x03
    1e4e:	14 82       	std	Z+4, r1	; 0x04
    1e50:	15 82       	std	Z+5, r1	; 0x05
    1e52:	08 95       	ret

00001e54 <schedulerAddTask>:
-*--------------------------------------------------------*/
uint8_t schedulerAddTask(void (*pFunction)(), const uint16_t DELAY, const uint16_t PERIOD)
{
	uint8_t Index = 0;
	/* First find a gap in the array (if there is one) */
	while ((schTasks_G[Index].pTask != 0) && (Index < SCH_MAX_TASKS))
    1e54:	20 91 55 02 	lds	r18, 0x0255	; 0x800255 <schTasks_G>
    1e58:	30 91 56 02 	lds	r19, 0x0256	; 0x800256 <schTasks_G+0x1>
    1e5c:	23 2b       	or	r18, r19
    1e5e:	81 f0       	breq	.+32     	; 0x1e80 <schedulerAddTask+0x2c>
    1e60:	20 91 5c 02 	lds	r18, 0x025C	; 0x80025c <schTasks_G+0x7>
    1e64:	30 91 5d 02 	lds	r19, 0x025D	; 0x80025d <schTasks_G+0x8>
    1e68:	23 2b       	or	r18, r19
    1e6a:	71 f0       	breq	.+28     	; 0x1e88 <schedulerAddTask+0x34>
    1e6c:	20 91 63 02 	lds	r18, 0x0263	; 0x800263 <schTasks_G+0xe>
    1e70:	30 91 64 02 	lds	r19, 0x0264	; 0x800264 <schTasks_G+0xf>
    1e74:	23 2b       	or	r18, r19
    1e76:	61 f0       	breq	.+24     	; 0x1e90 <schedulerAddTask+0x3c>
    1e78:	22 e0       	ldi	r18, 0x02	; 2
    1e7a:	30 e0       	ldi	r19, 0x00	; 0
	{
		Index++;
    1e7c:	a2 e0       	ldi	r26, 0x02	; 2
    1e7e:	0b c0       	rjmp	.+22     	; 0x1e96 <schedulerAddTask+0x42>
-*--------------------------------------------------------*/
uint8_t schedulerAddTask(void (*pFunction)(), const uint16_t DELAY, const uint16_t PERIOD)
{
	uint8_t Index = 0;
	/* First find a gap in the array (if there is one) */
	while ((schTasks_G[Index].pTask != 0) && (Index < SCH_MAX_TASKS))
    1e80:	20 e0       	ldi	r18, 0x00	; 0
    1e82:	30 e0       	ldi	r19, 0x00	; 0
Causes a task (function) to be executed at regular
intervals, or after a user-defined delay.
-*--------------------------------------------------------*/
uint8_t schedulerAddTask(void (*pFunction)(), const uint16_t DELAY, const uint16_t PERIOD)
{
	uint8_t Index = 0;
    1e84:	a0 e0       	ldi	r26, 0x00	; 0
    1e86:	07 c0       	rjmp	.+14     	; 0x1e96 <schedulerAddTask+0x42>
	/* First find a gap in the array (if there is one) */
	while ((schTasks_G[Index].pTask != 0) && (Index < SCH_MAX_TASKS))
	{
		Index++;
    1e88:	a1 e0       	ldi	r26, 0x01	; 1
-*--------------------------------------------------------*/
uint8_t schedulerAddTask(void (*pFunction)(), const uint16_t DELAY, const uint16_t PERIOD)
{
	uint8_t Index = 0;
	/* First find a gap in the array (if there is one) */
	while ((schTasks_G[Index].pTask != 0) && (Index < SCH_MAX_TASKS))
    1e8a:	21 e0       	ldi	r18, 0x01	; 1
    1e8c:	30 e0       	ldi	r19, 0x00	; 0
    1e8e:	03 c0       	rjmp	.+6      	; 0x1e96 <schedulerAddTask+0x42>
	{
		Index++;
    1e90:	a2 e0       	ldi	r26, 0x02	; 2
-*--------------------------------------------------------*/
uint8_t schedulerAddTask(void (*pFunction)(), const uint16_t DELAY, const uint16_t PERIOD)
{
	uint8_t Index = 0;
	/* First find a gap in the array (if there is one) */
	while ((schTasks_G[Index].pTask != 0) && (Index < SCH_MAX_TASKS))
    1e92:	22 e0       	ldi	r18, 0x02	; 2
    1e94:	30 e0       	ldi	r19, 0x00	; 0
		/* Also return an error code */
		return SCH_MAX_TASKS;
	}
	
	/* If we're here, there is a space in the task array */
	schTasks_G[Index].pTask = pFunction;
    1e96:	f9 01       	movw	r30, r18
    1e98:	ee 0f       	add	r30, r30
    1e9a:	ff 1f       	adc	r31, r31
    1e9c:	ee 0f       	add	r30, r30
    1e9e:	ff 1f       	adc	r31, r31
    1ea0:	ee 0f       	add	r30, r30
    1ea2:	ff 1f       	adc	r31, r31
    1ea4:	e2 1b       	sub	r30, r18
    1ea6:	f3 0b       	sbc	r31, r19
    1ea8:	eb 5a       	subi	r30, 0xAB	; 171
    1eaa:	fd 4f       	sbci	r31, 0xFD	; 253
    1eac:	91 83       	std	Z+1, r25	; 0x01
    1eae:	80 83       	st	Z, r24
	
	schTasks_G[Index].Delay = DELAY + 1;
    1eb0:	6f 5f       	subi	r22, 0xFF	; 255
    1eb2:	7f 4f       	sbci	r23, 0xFF	; 255
    1eb4:	73 83       	std	Z+3, r23	; 0x03
    1eb6:	62 83       	std	Z+2, r22	; 0x02
	schTasks_G[Index].Period = PERIOD;
    1eb8:	55 83       	std	Z+5, r21	; 0x05
    1eba:	44 83       	std	Z+4, r20	; 0x04
	
	schTasks_G[Index].RunMe = 0;
    1ebc:	16 82       	std	Z+6, r1	; 0x06
	
	return Index; /* return pos. of task (to allow deletion) */
}
    1ebe:	8a 2f       	mov	r24, r26
    1ec0:	08 95       	ret

00001ec2 <schedulerDeleteTask>:

uint8_t schedulerDeleteTask(const uint8_t taskIndex)
{
	uint8_t Return_code;
	
	if(taskIndex > SCH_MAX_TASKS-1)
    1ec2:	83 30       	cpi	r24, 0x03	; 3
    1ec4:	20 f0       	brcs	.+8      	; 0x1ece <schedulerDeleteTask+0xc>
	{
		Error_code_G = ERROR_SCH_TOO_MANY_TASKS;
    1ec6:	81 e0       	ldi	r24, 0x01	; 1
    1ec8:	80 93 54 02 	sts	0x0254, r24	; 0x800254 <Error_code_G>
		return 1;
    1ecc:	08 95       	ret
	}
	
	if (schTasks_G[taskIndex].pTask == 0)
    1ece:	28 2f       	mov	r18, r24
    1ed0:	30 e0       	ldi	r19, 0x00	; 0
    1ed2:	97 e0       	ldi	r25, 0x07	; 7
    1ed4:	89 9f       	mul	r24, r25
    1ed6:	f0 01       	movw	r30, r0
    1ed8:	11 24       	eor	r1, r1
    1eda:	eb 5a       	subi	r30, 0xAB	; 171
    1edc:	fd 4f       	sbci	r31, 0xFD	; 253
    1ede:	80 81       	ld	r24, Z
    1ee0:	91 81       	ldd	r25, Z+1	; 0x01
    1ee2:	89 2b       	or	r24, r25
    1ee4:	29 f4       	brne	.+10     	; 0x1ef0 <schedulerDeleteTask+0x2e>
	{
		/* No task at this location...
		-> set the global error variable */
		Error_code_G = ERROR_SCH_CANNOT_DELETE_TASK;
    1ee6:	82 e0       	ldi	r24, 0x02	; 2
    1ee8:	80 93 54 02 	sts	0x0254, r24	; 0x800254 <Error_code_G>
		/* ...also return an error code */
		Return_code = 1;
    1eec:	81 e0       	ldi	r24, 0x01	; 1
    1eee:	01 c0       	rjmp	.+2      	; 0x1ef2 <schedulerDeleteTask+0x30>
	}
	else
	{
		Return_code = 0;
    1ef0:	80 e0       	ldi	r24, 0x00	; 0
	}
	
	schTasks_G[taskIndex].pTask = 0x0000;
    1ef2:	f9 01       	movw	r30, r18
    1ef4:	ee 0f       	add	r30, r30
    1ef6:	ff 1f       	adc	r31, r31
    1ef8:	ee 0f       	add	r30, r30
    1efa:	ff 1f       	adc	r31, r31
    1efc:	ee 0f       	add	r30, r30
    1efe:	ff 1f       	adc	r31, r31
    1f00:	e2 1b       	sub	r30, r18
    1f02:	f3 0b       	sbc	r31, r19
    1f04:	eb 5a       	subi	r30, 0xAB	; 171
    1f06:	fd 4f       	sbci	r31, 0xFD	; 253
    1f08:	11 82       	std	Z+1, r1	; 0x01
    1f0a:	10 82       	st	Z, r1
	schTasks_G[taskIndex].Delay = 0;
    1f0c:	13 82       	std	Z+3, r1	; 0x03
    1f0e:	12 82       	std	Z+2, r1	; 0x02
	schTasks_G[taskIndex].Period = 0;
    1f10:	15 82       	std	Z+5, r1	; 0x05
    1f12:	14 82       	std	Z+4, r1	; 0x04
	
	schTasks_G[taskIndex].RunMe = 0;
    1f14:	16 82       	std	Z+6, r1	; 0x06
	
	return Return_code; /* return status */
}
    1f16:	08 95       	ret

00001f18 <scheduler_Init>:

void scheduler_Init(void)
{
	for (uint8_t i=0; i<SCH_MAX_TASKS; i++)
	{
		schedulerDeleteTask(i);
    1f18:	80 e0       	ldi	r24, 0x00	; 0
    1f1a:	0e 94 61 0f 	call	0x1ec2	; 0x1ec2 <schedulerDeleteTask>
    1f1e:	81 e0       	ldi	r24, 0x01	; 1
    1f20:	0e 94 61 0f 	call	0x1ec2	; 0x1ec2 <schedulerDeleteTask>
    1f24:	82 e0       	ldi	r24, 0x02	; 2
    1f26:	0e 94 61 0f 	call	0x1ec2	; 0x1ec2 <schedulerDeleteTask>
	}
	
	/* schedulerDeleteTask() will generate an error code,
	because the task array is empty.
	-> reset the global error variable. */
	Error_code_G = 0;
    1f2a:	10 92 54 02 	sts	0x0254, r1	; 0x800254 <Error_code_G>
    1f2e:	08 95       	ret

00001f30 <schedulerDispatchTasks>:
This is the 'dispatcher' function. When a task (function)
is due to run, SCH_Dispatch_Tasks() will run it.
This function must be called (repeatedly) from the main loop.
-*--------------------------------------------------------*/
void schedulerDispatchTasks(void)
{
    1f30:	1f 93       	push	r17
    1f32:	cf 93       	push	r28
    1f34:	df 93       	push	r29
    1f36:	c5 e5       	ldi	r28, 0x55	; 85
    1f38:	d2 e0       	ldi	r29, 0x02	; 2
	uint8_t Index;
	/* Dispatches (runs) the next task (if one is ready) */
	for (Index = 0; Index < SCH_MAX_TASKS; Index++)
    1f3a:	10 e0       	ldi	r17, 0x00	; 0
	{
		if (schTasks_G[Index].RunMe > 0)
    1f3c:	8e 81       	ldd	r24, Y+6	; 0x06
    1f3e:	88 23       	and	r24, r24
    1f40:	69 f0       	breq	.+26     	; 0x1f5c <schedulerDispatchTasks+0x2c>
		{
			(*schTasks_G[Index].pTask)(); /* Run the task */
    1f42:	e8 81       	ld	r30, Y
    1f44:	f9 81       	ldd	r31, Y+1	; 0x01
    1f46:	09 95       	icall
			schTasks_G[Index].RunMe -= 1; /* Reduce RunMe count */
    1f48:	8e 81       	ldd	r24, Y+6	; 0x06
    1f4a:	81 50       	subi	r24, 0x01	; 1
    1f4c:	8e 83       	std	Y+6, r24	; 0x06
			/* Periodic tasks will automatically run again
			- if this is a 'one shot' task, delete it */
			if (schTasks_G[Index].Period == 0)
    1f4e:	8c 81       	ldd	r24, Y+4	; 0x04
    1f50:	9d 81       	ldd	r25, Y+5	; 0x05
    1f52:	89 2b       	or	r24, r25
    1f54:	19 f4       	brne	.+6      	; 0x1f5c <schedulerDispatchTasks+0x2c>
			{
				schedulerDeleteTask(Index);
    1f56:	81 2f       	mov	r24, r17
    1f58:	0e 94 61 0f 	call	0x1ec2	; 0x1ec2 <schedulerDeleteTask>
-*--------------------------------------------------------*/
void schedulerDispatchTasks(void)
{
	uint8_t Index;
	/* Dispatches (runs) the next task (if one is ready) */
	for (Index = 0; Index < SCH_MAX_TASKS; Index++)
    1f5c:	1f 5f       	subi	r17, 0xFF	; 255
    1f5e:	27 96       	adiw	r28, 0x07	; 7
    1f60:	13 30       	cpi	r17, 0x03	; 3
    1f62:	61 f7       	brne	.-40     	; 0x1f3c <schedulerDispatchTasks+0xc>
			{
				schedulerDeleteTask(Index);
			}
		}
	}
}
    1f64:	df 91       	pop	r29
    1f66:	cf 91       	pop	r28
    1f68:	1f 91       	pop	r17
    1f6a:	08 95       	ret

00001f6c <schedulerUpdate>:

/*--------------------------------------------------------*/
void schedulerUpdate(void) 
{
    1f6c:	e5 e5       	ldi	r30, 0x55	; 85
    1f6e:	f2 e0       	ldi	r31, 0x02	; 2
    1f70:	2a e6       	ldi	r18, 0x6A	; 106
    1f72:	32 e0       	ldi	r19, 0x02	; 2
			{
				// Decrement Delay and check if task is ready to execute
				if (--schTasks_G[Index].Delay == 0)
				{
					/* The task is due to run */
					schTasks_G[Index].RunMe += 1; /* Inc. 'RunMe' flag */
    1f74:	41 e0       	ldi	r20, 0x01	; 1
	
	/* NOTE: calculations are in *TICKS* (not milliseconds) */
	for (uint8_t Index = 0; Index < SCH_MAX_TASKS; Index++)
	{
		/* Check if there is a task at this location */
		if (schTasks_G[Index].pTask)
    1f76:	80 81       	ld	r24, Z
    1f78:	91 81       	ldd	r25, Z+1	; 0x01
    1f7a:	89 2b       	or	r24, r25
    1f7c:	89 f0       	breq	.+34     	; 0x1fa0 <schedulerUpdate+0x34>
		{
			// Check if the Task is ready to execute but not executed yet
			if (schTasks_G[Index].RunMe == 0)
    1f7e:	86 81       	ldd	r24, Z+6	; 0x06
    1f80:	81 11       	cpse	r24, r1
    1f82:	0e c0       	rjmp	.+28     	; 0x1fa0 <schedulerUpdate+0x34>
			{
				// Decrement Delay and check if task is ready to execute
				if (--schTasks_G[Index].Delay == 0)
    1f84:	82 81       	ldd	r24, Z+2	; 0x02
    1f86:	93 81       	ldd	r25, Z+3	; 0x03
    1f88:	01 97       	sbiw	r24, 0x01	; 1
    1f8a:	93 83       	std	Z+3, r25	; 0x03
    1f8c:	82 83       	std	Z+2, r24	; 0x02
    1f8e:	89 2b       	or	r24, r25
    1f90:	39 f4       	brne	.+14     	; 0x1fa0 <schedulerUpdate+0x34>
				{
					/* The task is due to run */
					schTasks_G[Index].RunMe += 1; /* Inc. 'RunMe' flag */
    1f92:	46 83       	std	Z+6, r20	; 0x06
					if (schTasks_G[Index].Period)
    1f94:	84 81       	ldd	r24, Z+4	; 0x04
    1f96:	95 81       	ldd	r25, Z+5	; 0x05
    1f98:	00 97       	sbiw	r24, 0x00	; 0
    1f9a:	11 f0       	breq	.+4      	; 0x1fa0 <schedulerUpdate+0x34>
					{
						/* Schedule regular tasks to run again */
						schTasks_G[Index].Delay = schTasks_G[Index].Period;
    1f9c:	93 83       	std	Z+3, r25	; 0x03
    1f9e:	82 83       	std	Z+2, r24	; 0x02
    1fa0:	37 96       	adiw	r30, 0x07	; 7
/*--------------------------------------------------------*/
void schedulerUpdate(void) 
{
	
	/* NOTE: calculations are in *TICKS* (not milliseconds) */
	for (uint8_t Index = 0; Index < SCH_MAX_TASKS; Index++)
    1fa2:	e2 17       	cp	r30, r18
    1fa4:	f3 07       	cpc	r31, r19
    1fa6:	39 f7       	brne	.-50     	; 0x1f76 <schedulerUpdate+0xa>
				}
			}
			
		}
	}
}
    1fa8:	08 95       	ret

00001faa <battery_update_DUMMY>:
 * Use this function to set the drive state change handler. 
 * 
 */
void drive_setStateChangedHandler(void (*driveHandler)(void)) 
{
	drive_stateChangedHandler = driveHandler;
    1faa:	08 95       	ret

00001fac <com_update_DUMMY>:
    1fac:	08 95       	ret

00001fae <drive_update_DUMMY>:
    1fae:	08 95       	ret

00001fb0 <adc_Read>:
    1fb0:	ec e7       	ldi	r30, 0x7C	; 124
    1fb2:	f0 e0       	ldi	r31, 0x00	; 0
    1fb4:	90 81       	ld	r25, Z
    1fb6:	90 7e       	andi	r25, 0xE0	; 224
    1fb8:	8f 71       	andi	r24, 0x1F	; 31
    1fba:	89 2b       	or	r24, r25
    1fbc:	80 83       	st	Z, r24
    1fbe:	ea e7       	ldi	r30, 0x7A	; 122
    1fc0:	f0 e0       	ldi	r31, 0x00	; 0
    1fc2:	80 81       	ld	r24, Z
    1fc4:	80 64       	ori	r24, 0x40	; 64
    1fc6:	80 83       	st	Z, r24
    1fc8:	80 81       	ld	r24, Z
    1fca:	86 fd       	sbrc	r24, 6
    1fcc:	fd cf       	rjmp	.-6      	; 0x1fc8 <adc_Read+0x18>
    1fce:	80 91 78 00 	lds	r24, 0x0078	; 0x800078 <__TEXT_REGION_LENGTH__+0x7e0078>
    1fd2:	90 91 79 00 	lds	r25, 0x0079	; 0x800079 <__TEXT_REGION_LENGTH__+0x7e0079>
    1fd6:	08 95       	ret

00001fd8 <batt_voltage>:
    1fd8:	82 e0       	ldi	r24, 0x02	; 2
    1fda:	0e 94 d8 0f 	call	0x1fb0	; 0x1fb0 <adc_Read>
    1fde:	a0 e0       	ldi	r26, 0x00	; 0
    1fe0:	b0 e0       	ldi	r27, 0x00	; 0
    1fe2:	9c 01       	movw	r18, r24
    1fe4:	ad 01       	movw	r20, r26
    1fe6:	22 0f       	add	r18, r18
    1fe8:	33 1f       	adc	r19, r19
    1fea:	44 1f       	adc	r20, r20
    1fec:	55 1f       	adc	r21, r21
    1fee:	a8 e8       	ldi	r26, 0x88	; 136
    1ff0:	b3 e1       	ldi	r27, 0x13	; 19
    1ff2:	0e 94 eb 16 	call	0x2dd6	; 0x2dd6 <__muluhisi3>
    1ff6:	dc 01       	movw	r26, r24
    1ff8:	cb 01       	movw	r24, r22
    1ffa:	07 2e       	mov	r0, r23
    1ffc:	7a e0       	ldi	r23, 0x0A	; 10
    1ffe:	b6 95       	lsr	r27
    2000:	a7 95       	ror	r26
    2002:	97 95       	ror	r25
    2004:	87 95       	ror	r24
    2006:	7a 95       	dec	r23
    2008:	d1 f7       	brne	.-12     	; 0x1ffe <batt_voltage+0x26>
    200a:	70 2d       	mov	r23, r0
    200c:	08 95       	ret

0000200e <setStatusLED>:
    200e:	95 b1       	in	r25, 0x05	; 5
    2010:	93 60       	ori	r25, 0x03	; 3
    2012:	95 b9       	out	0x05, r25	; 5
    2014:	81 30       	cpi	r24, 0x01	; 1
    2016:	11 f4       	brne	.+4      	; 0x201c <setStatusLED+0xe>
    2018:	29 98       	cbi	0x05, 1	; 5
    201a:	08 95       	ret
    201c:	81 11       	cpse	r24, r1
    201e:	02 c0       	rjmp	.+4      	; 0x2024 <setStatusLED+0x16>
    2020:	28 98       	cbi	0x05, 0	; 5
    2022:	08 95       	ret
    2024:	83 30       	cpi	r24, 0x03	; 3
    2026:	19 f4       	brne	.+6      	; 0x202e <setStatusLED+0x20>
    2028:	85 b1       	in	r24, 0x05	; 5
    202a:	8c 7f       	andi	r24, 0xFC	; 252
    202c:	85 b9       	out	0x05, r24	; 5
    202e:	08 95       	ret

00002030 <enableDevice>:
    2030:	83 30       	cpi	r24, 0x03	; 3
    2032:	71 f0       	breq	.+28     	; 0x2050 <enableDevice+0x20>
    2034:	8f 3f       	cpi	r24, 0xFF	; 255
    2036:	19 f0       	breq	.+6      	; 0x203e <enableDevice+0xe>
    2038:	81 30       	cpi	r24, 0x01	; 1
    203a:	b9 f4       	brne	.+46     	; 0x206a <enableDevice+0x3a>
    203c:	10 c0       	rjmp	.+32     	; 0x205e <enableDevice+0x2e>
    203e:	2a 98       	cbi	0x05, 2	; 5
    2040:	45 98       	cbi	0x08, 5	; 8
    2042:	ec ee       	ldi	r30, 0xEC	; 236
    2044:	f1 e0       	ldi	r31, 0x01	; 1
    2046:	80 81       	ld	r24, Z
    2048:	84 60       	ori	r24, 0x04	; 4
    204a:	80 61       	ori	r24, 0x10	; 16
    204c:	80 83       	st	Z, r24
    204e:	08 95       	ret
    2050:	2a 98       	cbi	0x05, 2	; 5
    2052:	ec ee       	ldi	r30, 0xEC	; 236
    2054:	f1 e0       	ldi	r31, 0x01	; 1
    2056:	80 81       	ld	r24, Z
    2058:	80 61       	ori	r24, 0x10	; 16
    205a:	80 83       	st	Z, r24
    205c:	08 95       	ret
    205e:	45 98       	cbi	0x08, 5	; 8
    2060:	ec ee       	ldi	r30, 0xEC	; 236
    2062:	f1 e0       	ldi	r31, 0x01	; 1
    2064:	80 81       	ld	r24, Z
    2066:	84 60       	ori	r24, 0x04	; 4
    2068:	80 83       	st	Z, r24
    206a:	08 95       	ret

0000206c <disableDevice>:
    206c:	83 30       	cpi	r24, 0x03	; 3
    206e:	71 f0       	breq	.+28     	; 0x208c <disableDevice+0x20>
    2070:	8f 3f       	cpi	r24, 0xFF	; 255
    2072:	19 f0       	breq	.+6      	; 0x207a <disableDevice+0xe>
    2074:	81 30       	cpi	r24, 0x01	; 1
    2076:	b9 f4       	brne	.+46     	; 0x20a6 <disableDevice+0x3a>
    2078:	10 c0       	rjmp	.+32     	; 0x209a <disableDevice+0x2e>
    207a:	2a 9a       	sbi	0x05, 2	; 5
    207c:	45 9a       	sbi	0x08, 5	; 8
    207e:	ec ee       	ldi	r30, 0xEC	; 236
    2080:	f1 e0       	ldi	r31, 0x01	; 1
    2082:	80 81       	ld	r24, Z
    2084:	8b 7f       	andi	r24, 0xFB	; 251
    2086:	8f 7e       	andi	r24, 0xEF	; 239
    2088:	80 83       	st	Z, r24
    208a:	08 95       	ret
    208c:	2a 9a       	sbi	0x05, 2	; 5
    208e:	ec ee       	ldi	r30, 0xEC	; 236
    2090:	f1 e0       	ldi	r31, 0x01	; 1
    2092:	80 81       	ld	r24, Z
    2094:	8f 7e       	andi	r24, 0xEF	; 239
    2096:	80 83       	st	Z, r24
    2098:	08 95       	ret
    209a:	45 9a       	sbi	0x08, 5	; 8
    209c:	ec ee       	ldi	r30, 0xEC	; 236
    209e:	f1 e0       	ldi	r31, 0x01	; 1
    20a0:	80 81       	ld	r24, Z
    20a2:	8b 7f       	andi	r24, 0xFB	; 251
    20a4:	80 83       	st	Z, r24
    20a6:	08 95       	ret

000020a8 <taskBattery>:
    20a8:	cf 93       	push	r28
    20aa:	0e 94 ec 0f 	call	0x1fd8	; 0x1fd8 <batt_voltage>
    20ae:	90 93 ee 01 	sts	0x01EE, r25	; 0x8001ee <systemStatus+0x2>
    20b2:	80 93 ed 01 	sts	0x01ED, r24	; 0x8001ed <systemStatus+0x1>
    20b6:	80 39       	cpi	r24, 0x90	; 144
    20b8:	9a 41       	sbci	r25, 0x1A	; 26
    20ba:	28 f4       	brcc	.+10     	; 0x20c6 <taskBattery+0x1e>
    20bc:	ec ee       	ldi	r30, 0xEC	; 236
    20be:	f1 e0       	ldi	r31, 0x01	; 1
    20c0:	80 81       	ld	r24, Z
    20c2:	88 60       	ori	r24, 0x08	; 8
    20c4:	80 83       	st	Z, r24
    20c6:	80 91 ec 01 	lds	r24, 0x01EC	; 0x8001ec <systemStatus>
    20ca:	83 ff       	sbrs	r24, 3
    20cc:	50 c0       	rjmp	.+160    	; 0x216e <taskBattery+0xc6>
    20ce:	e0 91 12 01 	lds	r30, 0x0112	; 0x800112 <battery_stateChangedHandler>
    20d2:	f0 91 13 01 	lds	r31, 0x0113	; 0x800113 <battery_stateChangedHandler+0x1>
    20d6:	09 95       	icall
    20d8:	60 e0       	ldi	r22, 0x00	; 0
    20da:	80 e0       	ldi	r24, 0x00	; 0
    20dc:	0e 94 46 0d 	call	0x1a8c	; 0x1a8c <motorDirection>
    20e0:	83 e0       	ldi	r24, 0x03	; 3
    20e2:	0e 94 36 10 	call	0x206c	; 0x206c <disableDevice>
    20e6:	46 98       	cbi	0x08, 6	; 8
    20e8:	ec ee       	ldi	r30, 0xEC	; 236
    20ea:	f1 e0       	ldi	r31, 0x01	; 1
    20ec:	80 81       	ld	r24, Z
    20ee:	8e 7f       	andi	r24, 0xFE	; 254
    20f0:	80 83       	st	Z, r24
    20f2:	8a e0       	ldi	r24, 0x0A	; 10
    20f4:	0e 94 07 10 	call	0x200e	; 0x200e <setStatusLED>
    20f8:	0e 94 ec 0f 	call	0x1fd8	; 0x1fd8 <batt_voltage>
    20fc:	9f 93       	push	r25
    20fe:	8f 93       	push	r24
    2100:	85 ef       	ldi	r24, 0xF5	; 245
    2102:	94 e0       	ldi	r25, 0x04	; 4
    2104:	9f 93       	push	r25
    2106:	8f 93       	push	r24
    2108:	0e 94 21 0d 	call	0x1a42	; 0x1a42 <_log_Error>
    210c:	0f 90       	pop	r0
    210e:	0f 90       	pop	r0
    2110:	0f 90       	pop	r0
    2112:	0f 90       	pop	r0
    2114:	c4 e1       	ldi	r28, 0x14	; 20
    2116:	81 e0       	ldi	r24, 0x01	; 1
    2118:	0e 94 07 10 	call	0x200e	; 0x200e <setStatusLED>
    211c:	8f ef       	ldi	r24, 0xFF	; 255
    211e:	93 ec       	ldi	r25, 0xC3	; 195
    2120:	29 e0       	ldi	r18, 0x09	; 9
    2122:	81 50       	subi	r24, 0x01	; 1
    2124:	90 40       	sbci	r25, 0x00	; 0
    2126:	20 40       	sbci	r18, 0x00	; 0
    2128:	e1 f7       	brne	.-8      	; 0x2122 <taskBattery+0x7a>
    212a:	00 c0       	rjmp	.+0      	; 0x212c <taskBattery+0x84>
    212c:	00 00       	nop
    212e:	8a e0       	ldi	r24, 0x0A	; 10
    2130:	0e 94 07 10 	call	0x200e	; 0x200e <setStatusLED>
    2134:	8f ef       	ldi	r24, 0xFF	; 255
    2136:	93 ec       	ldi	r25, 0xC3	; 195
    2138:	29 e0       	ldi	r18, 0x09	; 9
    213a:	81 50       	subi	r24, 0x01	; 1
    213c:	90 40       	sbci	r25, 0x00	; 0
    213e:	20 40       	sbci	r18, 0x00	; 0
    2140:	e1 f7       	brne	.-8      	; 0x213a <taskBattery+0x92>
    2142:	00 c0       	rjmp	.+0      	; 0x2144 <taskBattery+0x9c>
    2144:	00 00       	nop
    2146:	c1 50       	subi	r28, 0x01	; 1
    2148:	31 f7       	brne	.-52     	; 0x2116 <taskBattery+0x6e>
    214a:	8f ef       	ldi	r24, 0xFF	; 255
    214c:	0e 94 36 10 	call	0x206c	; 0x206c <disableDevice>
    2150:	8a e0       	ldi	r24, 0x0A	; 10
    2152:	0e 94 07 10 	call	0x200e	; 0x200e <setStatusLED>
    2156:	83 b7       	in	r24, 0x33	; 51
    2158:	81 7f       	andi	r24, 0xF1	; 241
    215a:	84 60       	ori	r24, 0x04	; 4
    215c:	83 bf       	out	0x33, r24	; 51
    215e:	83 b7       	in	r24, 0x33	; 51
    2160:	81 60       	ori	r24, 0x01	; 1
    2162:	83 bf       	out	0x33, r24	; 51
    2164:	88 95       	sleep
    2166:	83 b7       	in	r24, 0x33	; 51
    2168:	8e 7f       	andi	r24, 0xFE	; 254
    216a:	83 bf       	out	0x33, r24	; 51
    216c:	f8 cf       	rjmp	.-16     	; 0x215e <taskBattery+0xb6>
    216e:	cf 91       	pop	r28
    2170:	08 95       	ret

00002172 <taskComunication>:
    2172:	e0 91 10 01 	lds	r30, 0x0110	; 0x800110 <com_stateChangedHandler>
    2176:	f0 91 11 01 	lds	r31, 0x0111	; 0x800111 <com_stateChangedHandler+0x1>
    217a:	09 95       	icall
    217c:	08 95       	ret

0000217e <taskDrive>:

// Wenn die Motoren im NON_BLOCKING Modus sind wird berprft wann
// die Fahrzeit abgelaufen ist, wenn ja werden die Motoren angehalten
void taskDrive(void)
{
	if ( motorStatus.autoDrive && systemStatus.pwrON)
    217e:	80 91 db 01 	lds	r24, 0x01DB	; 0x8001db <motorStatus>
    2182:	84 ff       	sbrs	r24, 4
    2184:	1c c0       	rjmp	.+56     	; 0x21be <taskDrive+0x40>
    2186:	80 91 ec 01 	lds	r24, 0x01EC	; 0x8001ec <systemStatus>
    218a:	80 ff       	sbrs	r24, 0
    218c:	18 c0       	rjmp	.+48     	; 0x21be <taskDrive+0x40>
	{
		if (getStopwatch(STOPWATCH8) >= motorStatus.timer)
    218e:	80 e8       	ldi	r24, 0x80	; 128
    2190:	0e 94 13 12 	call	0x2426	; 0x2426 <getStopwatch>
    2194:	20 91 e5 01 	lds	r18, 0x01E5	; 0x8001e5 <motorStatus+0xa>
    2198:	30 91 e6 01 	lds	r19, 0x01E6	; 0x8001e6 <motorStatus+0xb>
    219c:	82 17       	cp	r24, r18
    219e:	93 07       	cpc	r25, r19
    21a0:	70 f0       	brcs	.+28     	; 0x21be <taskDrive+0x40>
		{
			motorDirection(MOT_BREAK, MOT_BREAK);
    21a2:	60 e0       	ldi	r22, 0x00	; 0
    21a4:	80 e0       	ldi	r24, 0x00	; 0
    21a6:	0e 94 46 0d 	call	0x1a8c	; 0x1a8c <motorDirection>
			motorStatus.autoDrive = false;
    21aa:	eb ed       	ldi	r30, 0xDB	; 219
    21ac:	f1 e0       	ldi	r31, 0x01	; 1
    21ae:	80 81       	ld	r24, Z
    21b0:	8f 7e       	andi	r24, 0xEF	; 239
    21b2:	80 83       	st	Z, r24
			stopStopwatch8();
    21b4:	ea e6       	ldi	r30, 0x6A	; 106
    21b6:	f2 e0       	ldi	r31, 0x02	; 2
    21b8:	80 81       	ld	r24, Z
    21ba:	8f 77       	andi	r24, 0x7F	; 127
    21bc:	80 83       	st	Z, r24
		}
	}
	drive_stateChangedHandler();
    21be:	e0 91 0e 01 	lds	r30, 0x010E	; 0x80010e <drive_stateChangedHandler>
    21c2:	f0 91 0f 01 	lds	r31, 0x010F	; 0x80010f <drive_stateChangedHandler+0x1>
    21c6:	09 95       	icall
    21c8:	08 95       	ret

000021ca <taskSystem>:


void taskSystem(void)
{
	
	taskBattery();
    21ca:	0e 94 54 10 	call	0x20a8	; 0x20a8 <taskBattery>
	taskComunication();
    21ce:	0e 94 b9 10 	call	0x2172	; 0x2172 <taskComunication>
	taskDrive();
    21d2:	0e 94 bf 10 	call	0x217e	; 0x217e <taskDrive>
    21d6:	08 95       	ret

000021d8 <systemInit>:
	
	Diese Funktion muss als erstes aufgerufen werden.
*/
void systemInit(void)
{
	cli();
    21d8:	f8 94       	cli
	
	// PORTB initialisieren
	DDRB |= (1<<PINB0) | (1<<PINB1) | (1<<PINB2);
    21da:	84 b1       	in	r24, 0x04	; 4
    21dc:	87 60       	ori	r24, 0x07	; 7
    21de:	84 b9       	out	0x04, r24	; 4
	
	// PORTC initialisieren
	DDRC |= (1<<PINC2) | (1<<PINC3) | (1<<PINC4) | (1<<PINC5) | (1<<PINC6) | (1<<PINC7);
    21e0:	87 b1       	in	r24, 0x07	; 7
    21e2:	8c 6f       	ori	r24, 0xFC	; 252
    21e4:	87 b9       	out	0x07, r24	; 7
	
	// PORTD initialisieren
	DDRD |= (1<<PIND4) | (1<<PIND5) | (1<<PIND6) | (1<<PIND7);
    21e6:	8a b1       	in	r24, 0x0a	; 10
    21e8:	80 6f       	ori	r24, 0xF0	; 240
    21ea:	8a b9       	out	0x0a, r24	; 10
	
	// Interne PullUps der Schalter aktivieren
	PORTB |= (1<<PINB4) | (1<<PINB3);
    21ec:	85 b1       	in	r24, 0x05	; 5
    21ee:	88 61       	ori	r24, 0x18	; 24
    21f0:	85 b9       	out	0x05, r24	; 5
	
	enableDevice(EN_BLUETOOTH);
    21f2:	81 e0       	ldi	r24, 0x01	; 1
    21f4:	0e 94 18 10 	call	0x2030	; 0x2030 <enableDevice>
	disableDevice(EN_ENCODERS);
    21f8:	83 e0       	ldi	r24, 0x03	; 3
    21fa:	0e 94 36 10 	call	0x206c	; 0x206c <disableDevice>

	// Benutze AVCC als Referenz
	// ADC Prescaler @ 128
	// ADC-Clock @ 125kHz / 13 = 9,62kHz sampling rate, 104s Sampling time
	ADMUX |= (1<< REFS0);
    21fe:	ec e7       	ldi	r30, 0x7C	; 124
    2200:	f0 e0       	ldi	r31, 0x00	; 0
    2202:	80 81       	ld	r24, Z
    2204:	80 64       	ori	r24, 0x40	; 64
    2206:	80 83       	st	Z, r24
	ADCSRA |= ( (1<<ADEN) | (1<<ADPS2) | (1<<ADPS1) | (1<<ADPS0) );
    2208:	ea e7       	ldi	r30, 0x7A	; 122
    220a:	f0 e0       	ldi	r31, 0x00	; 0
    220c:	80 81       	ld	r24, Z
    220e:	87 68       	ori	r24, 0x87	; 135
    2210:	80 83       	st	Z, r24
	ADCSRA |= (1<<ADSC);                  // eine ADC-Wandlung 
    2212:	80 81       	ld	r24, Z
    2214:	80 64       	ori	r24, 0x40	; 64
    2216:	80 83       	st	Z, r24
	while (ADCSRA & (1<<ADSC) ) {         // auf Abschluss der Konvertierung warten
    2218:	80 81       	ld	r24, Z
    221a:	86 fd       	sbrc	r24, 6
    221c:	fd cf       	rjmp	.-6      	; 0x2218 <systemInit+0x40>
	}
	/*	ADCW muss einmal gelesen werden, sonst wird Ergebnis der nchsten
		Wandlung nicht bernommen. */
	(void) ADCW;
    221e:	80 91 78 00 	lds	r24, 0x0078	; 0x800078 <__TEXT_REGION_LENGTH__+0x7e0078>
    2222:	90 91 79 00 	lds	r25, 0x0079	; 0x800079 <__TEXT_REGION_LENGTH__+0x7e0079>
	//// ADC Offsetabgleich mit Hilfe der internen 1,1V Bandgap Referenz
	//systemStatus.adc_kalibration = adc_Read_Avg(0x0E, 16) - BANDGAP_REF;
	
	// Timer0 wird als Systemtimer mit einer Auflsung von 1ms verwendet
	// Timer 0 im CTC Mode2, Prescaler 64, Timer0A1 Interupt alle 1ms 
	TCCR0A |= (1<<WGM01);
    2226:	84 b5       	in	r24, 0x24	; 36
    2228:	82 60       	ori	r24, 0x02	; 2
    222a:	84 bd       	out	0x24, r24	; 36
	TCCR0B |= (1<<CS01) | (1<<CS00);
    222c:	85 b5       	in	r24, 0x25	; 37
    222e:	83 60       	ori	r24, 0x03	; 3
    2230:	85 bd       	out	0x25, r24	; 37
	TIMSK0 |= (1<<OCIE0A);
    2232:	ee e6       	ldi	r30, 0x6E	; 110
    2234:	f0 e0       	ldi	r31, 0x00	; 0
    2236:	80 81       	ld	r24, Z
    2238:	82 60       	ori	r24, 0x02	; 2
    223a:	80 83       	st	Z, r24
	OCR0A = 0xF9;
    223c:	89 ef       	ldi	r24, 0xF9	; 249
    223e:	87 bd       	out	0x27, r24	; 39
	
	systemStatus.battery = batt_voltage();
    2240:	0e 94 ec 0f 	call	0x1fd8	; 0x1fd8 <batt_voltage>
    2244:	ec ee       	ldi	r30, 0xEC	; 236
    2246:	f1 e0       	ldi	r31, 0x01	; 1
    2248:	92 83       	std	Z+2, r25	; 0x02
    224a:	81 83       	std	Z+1, r24	; 0x01
	systemStatus.time = 0;
    224c:	13 82       	std	Z+3, r1	; 0x03
    224e:	14 82       	std	Z+4, r1	; 0x04
    2250:	15 82       	std	Z+5, r1	; 0x05
    2252:	16 82       	std	Z+6, r1	; 0x06
	systemStatus.byte = 0;
    2254:	10 82       	st	Z, r1
	lineSensors.byte = 0;
    2256:	10 92 f3 01 	sts	0x01F3, r1	; 0x8001f3 <lineSensors>
	
	lineInit();
    225a:	0e 94 2b 0b 	call	0x1656	; 0x1656 <lineInit>
	clearLEDBlue();
    225e:	46 98       	cbi	0x08, 6	; 8
	setStatusLED(OFF);
    2260:	8a e0       	ldi	r24, 0x0A	; 10
    2262:	0e 94 07 10 	call	0x200e	; 0x200e <setStatusLED>
	motorInit();
    2266:	0e 94 35 0e 	call	0x1c6a	; 0x1c6a <motorInit>
	encoderInit();
    226a:	0e 94 6f 0a 	call	0x14de	; 0x14de <encoderInit>
	uart_init(UART_BAUD_SELECT(UART_BAUD_RATE, F_CPU));
    226e:	80 e1       	ldi	r24, 0x10	; 16
    2270:	90 e0       	ldi	r25, 0x00	; 0
    2272:	0e 94 ad 12 	call	0x255a	; 0x255a <uart_init>
	
	static FILE mystdout = FDEV_SETUP_STREAM(uart_putc, NULL, _FDEV_SETUP_WRITE);
	stdout = &mystdout;
    2276:	80 e0       	ldi	r24, 0x00	; 0
    2278:	91 e0       	ldi	r25, 0x01	; 1
    227a:	90 93 7e 02 	sts	0x027E, r25	; 0x80027e <__iob+0x3>
    227e:	80 93 7d 02 	sts	0x027D, r24	; 0x80027d <__iob+0x2>
	
	scheduler_Init();
    2282:	0e 94 8c 0f 	call	0x1f18	; 0x1f18 <scheduler_Init>
	
	sei();
    2286:	78 94       	sei
    2288:	08 95       	ret

0000228a <__vector_16>:
}

ISR(TIMER0_COMPA_vect)
{
    228a:	1f 92       	push	r1
    228c:	0f 92       	push	r0
    228e:	0f b6       	in	r0, 0x3f	; 63
    2290:	0f 92       	push	r0
    2292:	11 24       	eor	r1, r1
    2294:	2f 93       	push	r18
    2296:	3f 93       	push	r19
    2298:	4f 93       	push	r20
    229a:	5f 93       	push	r21
    229c:	6f 93       	push	r22
    229e:	7f 93       	push	r23
    22a0:	8f 93       	push	r24
    22a2:	9f 93       	push	r25
    22a4:	af 93       	push	r26
    22a6:	bf 93       	push	r27
    22a8:	ef 93       	push	r30
    22aa:	ff 93       	push	r31
	// 32bit timer (1ms resolution)
	systemStatus.time++;
    22ac:	ec ee       	ldi	r30, 0xEC	; 236
    22ae:	f1 e0       	ldi	r31, 0x01	; 1
    22b0:	83 81       	ldd	r24, Z+3	; 0x03
    22b2:	94 81       	ldd	r25, Z+4	; 0x04
    22b4:	a5 81       	ldd	r26, Z+5	; 0x05
    22b6:	b6 81       	ldd	r27, Z+6	; 0x06
    22b8:	01 96       	adiw	r24, 0x01	; 1
    22ba:	a1 1d       	adc	r26, r1
    22bc:	b1 1d       	adc	r27, r1
    22be:	83 83       	std	Z+3, r24	; 0x03
    22c0:	94 83       	std	Z+4, r25	; 0x04
    22c2:	a5 83       	std	Z+5, r26	; 0x05
    22c4:	b6 83       	std	Z+6, r27	; 0x06
	
	// All 1ms based timing stuff
	// 16bit Stopwatches:
	if(stopwatches.watches & STOPWATCH1)
    22c6:	80 91 6a 02 	lds	r24, 0x026A	; 0x80026a <stopwatches>
    22ca:	80 ff       	sbrs	r24, 0
    22cc:	07 c0       	rjmp	.+14     	; 0x22dc <__vector_16+0x52>
		stopwatches.watch1++;
    22ce:	ea e6       	ldi	r30, 0x6A	; 106
    22d0:	f2 e0       	ldi	r31, 0x02	; 2
    22d2:	81 81       	ldd	r24, Z+1	; 0x01
    22d4:	92 81       	ldd	r25, Z+2	; 0x02
    22d6:	01 96       	adiw	r24, 0x01	; 1
    22d8:	92 83       	std	Z+2, r25	; 0x02
    22da:	81 83       	std	Z+1, r24	; 0x01
	if(stopwatches.watches & STOPWATCH2)
    22dc:	80 91 6a 02 	lds	r24, 0x026A	; 0x80026a <stopwatches>
    22e0:	81 ff       	sbrs	r24, 1
    22e2:	07 c0       	rjmp	.+14     	; 0x22f2 <__vector_16+0x68>
		stopwatches.watch2++;
    22e4:	ea e6       	ldi	r30, 0x6A	; 106
    22e6:	f2 e0       	ldi	r31, 0x02	; 2
    22e8:	83 81       	ldd	r24, Z+3	; 0x03
    22ea:	94 81       	ldd	r25, Z+4	; 0x04
    22ec:	01 96       	adiw	r24, 0x01	; 1
    22ee:	94 83       	std	Z+4, r25	; 0x04
    22f0:	83 83       	std	Z+3, r24	; 0x03
	if(stopwatches.watches & STOPWATCH3)
    22f2:	80 91 6a 02 	lds	r24, 0x026A	; 0x80026a <stopwatches>
    22f6:	82 ff       	sbrs	r24, 2
    22f8:	07 c0       	rjmp	.+14     	; 0x2308 <__vector_16+0x7e>
		stopwatches.watch3++;
    22fa:	ea e6       	ldi	r30, 0x6A	; 106
    22fc:	f2 e0       	ldi	r31, 0x02	; 2
    22fe:	85 81       	ldd	r24, Z+5	; 0x05
    2300:	96 81       	ldd	r25, Z+6	; 0x06
    2302:	01 96       	adiw	r24, 0x01	; 1
    2304:	96 83       	std	Z+6, r25	; 0x06
    2306:	85 83       	std	Z+5, r24	; 0x05
	if(stopwatches.watches & STOPWATCH4)
    2308:	80 91 6a 02 	lds	r24, 0x026A	; 0x80026a <stopwatches>
    230c:	83 ff       	sbrs	r24, 3
    230e:	07 c0       	rjmp	.+14     	; 0x231e <__vector_16+0x94>
		stopwatches.watch4++;
    2310:	ea e6       	ldi	r30, 0x6A	; 106
    2312:	f2 e0       	ldi	r31, 0x02	; 2
    2314:	87 81       	ldd	r24, Z+7	; 0x07
    2316:	90 85       	ldd	r25, Z+8	; 0x08
    2318:	01 96       	adiw	r24, 0x01	; 1
    231a:	90 87       	std	Z+8, r25	; 0x08
    231c:	87 83       	std	Z+7, r24	; 0x07
	if(stopwatches.watches & STOPWATCH5)
    231e:	80 91 6a 02 	lds	r24, 0x026A	; 0x80026a <stopwatches>
    2322:	84 ff       	sbrs	r24, 4
    2324:	07 c0       	rjmp	.+14     	; 0x2334 <__vector_16+0xaa>
		stopwatches.watch5++;
    2326:	ea e6       	ldi	r30, 0x6A	; 106
    2328:	f2 e0       	ldi	r31, 0x02	; 2
    232a:	81 85       	ldd	r24, Z+9	; 0x09
    232c:	92 85       	ldd	r25, Z+10	; 0x0a
    232e:	01 96       	adiw	r24, 0x01	; 1
    2330:	92 87       	std	Z+10, r25	; 0x0a
    2332:	81 87       	std	Z+9, r24	; 0x09
	if(stopwatches.watches & STOPWATCH6)
    2334:	80 91 6a 02 	lds	r24, 0x026A	; 0x80026a <stopwatches>
    2338:	85 ff       	sbrs	r24, 5
    233a:	07 c0       	rjmp	.+14     	; 0x234a <__vector_16+0xc0>
		stopwatches.watch6++;
    233c:	ea e6       	ldi	r30, 0x6A	; 106
    233e:	f2 e0       	ldi	r31, 0x02	; 2
    2340:	83 85       	ldd	r24, Z+11	; 0x0b
    2342:	94 85       	ldd	r25, Z+12	; 0x0c
    2344:	01 96       	adiw	r24, 0x01	; 1
    2346:	94 87       	std	Z+12, r25	; 0x0c
    2348:	83 87       	std	Z+11, r24	; 0x0b
	if(stopwatches.watches & STOPWATCH7)
    234a:	80 91 6a 02 	lds	r24, 0x026A	; 0x80026a <stopwatches>
    234e:	86 ff       	sbrs	r24, 6
    2350:	07 c0       	rjmp	.+14     	; 0x2360 <__vector_16+0xd6>
		stopwatches.watch7++;
    2352:	ea e6       	ldi	r30, 0x6A	; 106
    2354:	f2 e0       	ldi	r31, 0x02	; 2
    2356:	85 85       	ldd	r24, Z+13	; 0x0d
    2358:	96 85       	ldd	r25, Z+14	; 0x0e
    235a:	01 96       	adiw	r24, 0x01	; 1
    235c:	96 87       	std	Z+14, r25	; 0x0e
    235e:	85 87       	std	Z+13, r24	; 0x0d
	if(stopwatches.watches & STOPWATCH8)
    2360:	80 91 6a 02 	lds	r24, 0x026A	; 0x80026a <stopwatches>
    2364:	88 23       	and	r24, r24
    2366:	3c f4       	brge	.+14     	; 0x2376 <__vector_16+0xec>
		stopwatches.watch8++;
    2368:	ea e6       	ldi	r30, 0x6A	; 106
    236a:	f2 e0       	ldi	r31, 0x02	; 2
    236c:	87 85       	ldd	r24, Z+15	; 0x0f
    236e:	90 89       	ldd	r25, Z+16	; 0x10
    2370:	01 96       	adiw	r24, 0x01	; 1
    2372:	90 8b       	std	Z+16, r25	; 0x10
    2374:	87 87       	std	Z+15, r24	; 0x0f
	schedulerUpdate();
    2376:	0e 94 b6 0f 	call	0x1f6c	; 0x1f6c <schedulerUpdate>
    237a:	ff 91       	pop	r31
    237c:	ef 91       	pop	r30
    237e:	bf 91       	pop	r27
    2380:	af 91       	pop	r26
    2382:	9f 91       	pop	r25
    2384:	8f 91       	pop	r24
    2386:	7f 91       	pop	r23
    2388:	6f 91       	pop	r22
    238a:	5f 91       	pop	r21
    238c:	4f 91       	pop	r20
    238e:	3f 91       	pop	r19
    2390:	2f 91       	pop	r18
    2392:	0f 90       	pop	r0
    2394:	0f be       	out	0x3f, r0	; 63
    2396:	0f 90       	pop	r0
    2398:	1f 90       	pop	r1
    239a:	18 95       	reti

0000239c <setStopwatch>:
    return 1;
}

static __inline__ uint8_t __iCliRetVal(void)
{
    cli();
    239c:	f8 94       	cli

void setStopwatch(uint16_t watch, uint16_t timer)
{
	ATOMIC_BLOCK(ATOMIC_FORCEON)
	{
		switch(watch)
    239e:	88 30       	cpi	r24, 0x08	; 8
    23a0:	91 05       	cpc	r25, r1
    23a2:	39 f1       	breq	.+78     	; 0x23f2 <setStopwatch+0x56>
    23a4:	48 f4       	brcc	.+18     	; 0x23b8 <setStopwatch+0x1c>
    23a6:	82 30       	cpi	r24, 0x02	; 2
    23a8:	91 05       	cpc	r25, r1
    23aa:	c9 f0       	breq	.+50     	; 0x23de <setStopwatch+0x42>
    23ac:	84 30       	cpi	r24, 0x04	; 4
    23ae:	91 05       	cpc	r25, r1
    23b0:	d9 f0       	breq	.+54     	; 0x23e8 <setStopwatch+0x4c>
    23b2:	01 97       	sbiw	r24, 0x01	; 1
    23b4:	b1 f5       	brne	.+108    	; 0x2422 <setStopwatch+0x86>
    23b6:	0e c0       	rjmp	.+28     	; 0x23d4 <setStopwatch+0x38>
    23b8:	80 32       	cpi	r24, 0x20	; 32
    23ba:	91 05       	cpc	r25, r1
    23bc:	21 f1       	breq	.+72     	; 0x2406 <setStopwatch+0x6a>
    23be:	18 f4       	brcc	.+6      	; 0x23c6 <setStopwatch+0x2a>
    23c0:	40 97       	sbiw	r24, 0x10	; 16
    23c2:	e1 f0       	breq	.+56     	; 0x23fc <setStopwatch+0x60>
    23c4:	2e c0       	rjmp	.+92     	; 0x2422 <setStopwatch+0x86>
    23c6:	80 34       	cpi	r24, 0x40	; 64
    23c8:	91 05       	cpc	r25, r1
    23ca:	11 f1       	breq	.+68     	; 0x2410 <setStopwatch+0x74>
    23cc:	80 38       	cpi	r24, 0x80	; 128
    23ce:	91 05       	cpc	r25, r1
    23d0:	21 f1       	breq	.+72     	; 0x241a <setStopwatch+0x7e>
    23d2:	27 c0       	rjmp	.+78     	; 0x2422 <setStopwatch+0x86>
		{
			case STOPWATCH1:
			stopwatches.watch1 = timer;
    23d4:	70 93 6c 02 	sts	0x026C, r23	; 0x80026c <stopwatches+0x2>
    23d8:	60 93 6b 02 	sts	0x026B, r22	; 0x80026b <stopwatches+0x1>
			break;
    23dc:	22 c0       	rjmp	.+68     	; 0x2422 <setStopwatch+0x86>
			case STOPWATCH2:
			stopwatches.watch2 = timer;
    23de:	70 93 6e 02 	sts	0x026E, r23	; 0x80026e <stopwatches+0x4>
    23e2:	60 93 6d 02 	sts	0x026D, r22	; 0x80026d <stopwatches+0x3>
			break;
    23e6:	1d c0       	rjmp	.+58     	; 0x2422 <setStopwatch+0x86>
			case STOPWATCH3:
			stopwatches.watch3 = timer;
    23e8:	70 93 70 02 	sts	0x0270, r23	; 0x800270 <stopwatches+0x6>
    23ec:	60 93 6f 02 	sts	0x026F, r22	; 0x80026f <stopwatches+0x5>
			break;
    23f0:	18 c0       	rjmp	.+48     	; 0x2422 <setStopwatch+0x86>
			case STOPWATCH4:
			stopwatches.watch4 = timer;
    23f2:	70 93 72 02 	sts	0x0272, r23	; 0x800272 <stopwatches+0x8>
    23f6:	60 93 71 02 	sts	0x0271, r22	; 0x800271 <stopwatches+0x7>
			break;
    23fa:	13 c0       	rjmp	.+38     	; 0x2422 <setStopwatch+0x86>
			case STOPWATCH5:
			stopwatches.watch5 = timer;
    23fc:	70 93 74 02 	sts	0x0274, r23	; 0x800274 <stopwatches+0xa>
    2400:	60 93 73 02 	sts	0x0273, r22	; 0x800273 <stopwatches+0x9>
			break;
    2404:	0e c0       	rjmp	.+28     	; 0x2422 <setStopwatch+0x86>
			case STOPWATCH6:
			stopwatches.watch6 = timer;
    2406:	70 93 76 02 	sts	0x0276, r23	; 0x800276 <stopwatches+0xc>
    240a:	60 93 75 02 	sts	0x0275, r22	; 0x800275 <stopwatches+0xb>
			break;
    240e:	09 c0       	rjmp	.+18     	; 0x2422 <setStopwatch+0x86>
			case STOPWATCH7:
			stopwatches.watch7 = timer;
    2410:	70 93 78 02 	sts	0x0278, r23	; 0x800278 <stopwatches+0xe>
    2414:	60 93 77 02 	sts	0x0277, r22	; 0x800277 <stopwatches+0xd>
			break;
    2418:	04 c0       	rjmp	.+8      	; 0x2422 <setStopwatch+0x86>
			case STOPWATCH8:
			stopwatches.watch8 = timer;
    241a:	70 93 7a 02 	sts	0x027A, r23	; 0x80027a <stopwatches+0x10>
    241e:	60 93 79 02 	sts	0x0279, r22	; 0x800279 <stopwatches+0xf>
    return 1;
}

static __inline__ void __iSeiParam(const uint8_t *__s)
{
    sei();
    2422:	78 94       	sei
    __asm__ volatile ("" ::: "memory");
    2424:	08 95       	ret

00002426 <getStopwatch>:
    return 1;
}

static __inline__ uint8_t __iCliRetVal(void)
{
    cli();
    2426:	f8 94       	cli
{
	uint16_t timer = 0;
	
	ATOMIC_BLOCK(ATOMIC_FORCEON)
	{
		switch(watch)
    2428:	88 30       	cpi	r24, 0x08	; 8
    242a:	11 f1       	breq	.+68     	; 0x2470 <getStopwatch+0x4a>
    242c:	38 f4       	brcc	.+14     	; 0x243c <getStopwatch+0x16>
    242e:	82 30       	cpi	r24, 0x02	; 2
    2430:	a9 f0       	breq	.+42     	; 0x245c <getStopwatch+0x36>
    2432:	84 30       	cpi	r24, 0x04	; 4
    2434:	c1 f0       	breq	.+48     	; 0x2466 <getStopwatch+0x40>
    2436:	81 30       	cpi	r24, 0x01	; 1
    2438:	a1 f5       	brne	.+104    	; 0x24a2 <getStopwatch+0x7c>
    243a:	0b c0       	rjmp	.+22     	; 0x2452 <getStopwatch+0x2c>
    243c:	80 32       	cpi	r24, 0x20	; 32
    243e:	11 f1       	breq	.+68     	; 0x2484 <getStopwatch+0x5e>
    2440:	18 f4       	brcc	.+6      	; 0x2448 <getStopwatch+0x22>
    2442:	80 31       	cpi	r24, 0x10	; 16
    2444:	d1 f0       	breq	.+52     	; 0x247a <getStopwatch+0x54>
    2446:	2d c0       	rjmp	.+90     	; 0x24a2 <getStopwatch+0x7c>
    2448:	80 34       	cpi	r24, 0x40	; 64
    244a:	09 f1       	breq	.+66     	; 0x248e <getStopwatch+0x68>
    244c:	80 38       	cpi	r24, 0x80	; 128
    244e:	21 f1       	breq	.+72     	; 0x2498 <getStopwatch+0x72>
    2450:	28 c0       	rjmp	.+80     	; 0x24a2 <getStopwatch+0x7c>
		{
			case STOPWATCH1:
			timer = stopwatches.watch1;
    2452:	80 91 6b 02 	lds	r24, 0x026B	; 0x80026b <stopwatches+0x1>
    2456:	90 91 6c 02 	lds	r25, 0x026C	; 0x80026c <stopwatches+0x2>
			break;
    245a:	25 c0       	rjmp	.+74     	; 0x24a6 <getStopwatch+0x80>
			case STOPWATCH2:
			timer = stopwatches.watch2;
    245c:	80 91 6d 02 	lds	r24, 0x026D	; 0x80026d <stopwatches+0x3>
    2460:	90 91 6e 02 	lds	r25, 0x026E	; 0x80026e <stopwatches+0x4>
			break;
    2464:	20 c0       	rjmp	.+64     	; 0x24a6 <getStopwatch+0x80>
			case STOPWATCH3:
			timer = stopwatches.watch3;
    2466:	80 91 6f 02 	lds	r24, 0x026F	; 0x80026f <stopwatches+0x5>
    246a:	90 91 70 02 	lds	r25, 0x0270	; 0x800270 <stopwatches+0x6>
			break;
    246e:	1b c0       	rjmp	.+54     	; 0x24a6 <getStopwatch+0x80>
			case STOPWATCH4:
			timer = stopwatches.watch4;
    2470:	80 91 71 02 	lds	r24, 0x0271	; 0x800271 <stopwatches+0x7>
    2474:	90 91 72 02 	lds	r25, 0x0272	; 0x800272 <stopwatches+0x8>
			break;
    2478:	16 c0       	rjmp	.+44     	; 0x24a6 <getStopwatch+0x80>
			case STOPWATCH5:
			timer = stopwatches.watch5;
    247a:	80 91 73 02 	lds	r24, 0x0273	; 0x800273 <stopwatches+0x9>
    247e:	90 91 74 02 	lds	r25, 0x0274	; 0x800274 <stopwatches+0xa>
			break;
    2482:	11 c0       	rjmp	.+34     	; 0x24a6 <getStopwatch+0x80>
			case STOPWATCH6:
			timer = stopwatches.watch6;
    2484:	80 91 75 02 	lds	r24, 0x0275	; 0x800275 <stopwatches+0xb>
    2488:	90 91 76 02 	lds	r25, 0x0276	; 0x800276 <stopwatches+0xc>
			break;
    248c:	0c c0       	rjmp	.+24     	; 0x24a6 <getStopwatch+0x80>
			case STOPWATCH7:
			timer = stopwatches.watch7;
    248e:	80 91 77 02 	lds	r24, 0x0277	; 0x800277 <stopwatches+0xd>
    2492:	90 91 78 02 	lds	r25, 0x0278	; 0x800278 <stopwatches+0xe>
			break;
    2496:	07 c0       	rjmp	.+14     	; 0x24a6 <getStopwatch+0x80>
			case STOPWATCH8:
			timer = stopwatches.watch8;
    2498:	80 91 79 02 	lds	r24, 0x0279	; 0x800279 <stopwatches+0xf>
    249c:	90 91 7a 02 	lds	r25, 0x027A	; 0x80027a <stopwatches+0x10>
			break;
    24a0:	02 c0       	rjmp	.+4      	; 0x24a6 <getStopwatch+0x80>
	}
}

uint16_t getStopwatch(uint8_t watch)
{
	uint16_t timer = 0;
    24a2:	80 e0       	ldi	r24, 0x00	; 0
    24a4:	90 e0       	ldi	r25, 0x00	; 0
    return 1;
}

static __inline__ void __iSeiParam(const uint8_t *__s)
{
    sei();
    24a6:	78 94       	sei
			timer = stopwatches.watch8;
			break;
		}
	}
	return timer;
    24a8:	08 95       	ret

000024aa <__vector_20>:
void uart_puts(const char *s )
{
    while (*s) 
      uart_putc(*s++);

}/* uart_puts */
    24aa:	1f 92       	push	r1
    24ac:	0f 92       	push	r0
    24ae:	0f b6       	in	r0, 0x3f	; 63
    24b0:	0f 92       	push	r0
    24b2:	11 24       	eor	r1, r1
    24b4:	2f 93       	push	r18
    24b6:	8f 93       	push	r24
    24b8:	9f 93       	push	r25
    24ba:	ef 93       	push	r30
    24bc:	ff 93       	push	r31
    24be:	80 91 c0 00 	lds	r24, 0x00C0	; 0x8000c0 <__TEXT_REGION_LENGTH__+0x7e00c0>
    24c2:	20 91 c6 00 	lds	r18, 0x00C6	; 0x8000c6 <__TEXT_REGION_LENGTH__+0x7e00c6>
    24c6:	8c 71       	andi	r24, 0x1C	; 28
    24c8:	e0 91 98 01 	lds	r30, 0x0198	; 0x800198 <UART_RxHead>
    24cc:	ef 5f       	subi	r30, 0xFF	; 255
    24ce:	ef 71       	andi	r30, 0x1F	; 31
    24d0:	90 91 97 01 	lds	r25, 0x0197	; 0x800197 <UART_RxTail>
    24d4:	e9 17       	cp	r30, r25
    24d6:	39 f0       	breq	.+14     	; 0x24e6 <__vector_20+0x3c>
    24d8:	e0 93 98 01 	sts	0x0198, r30	; 0x800198 <UART_RxHead>
    24dc:	f0 e0       	ldi	r31, 0x00	; 0
    24de:	e5 56       	subi	r30, 0x65	; 101
    24e0:	fe 4f       	sbci	r31, 0xFE	; 254
    24e2:	20 83       	st	Z, r18
    24e4:	01 c0       	rjmp	.+2      	; 0x24e8 <__vector_20+0x3e>
    24e6:	82 e0       	ldi	r24, 0x02	; 2
    24e8:	90 91 96 01 	lds	r25, 0x0196	; 0x800196 <UART_LastRxError>
    24ec:	89 2b       	or	r24, r25
    24ee:	80 93 96 01 	sts	0x0196, r24	; 0x800196 <UART_LastRxError>
    24f2:	ff 91       	pop	r31
    24f4:	ef 91       	pop	r30
    24f6:	9f 91       	pop	r25
    24f8:	8f 91       	pop	r24
    24fa:	2f 91       	pop	r18
    24fc:	0f 90       	pop	r0
    24fe:	0f be       	out	0x3f, r0	; 63
    2500:	0f 90       	pop	r0
    2502:	1f 90       	pop	r1
    2504:	18 95       	reti

00002506 <__vector_21>:
    2506:	1f 92       	push	r1
    2508:	0f 92       	push	r0
    250a:	0f b6       	in	r0, 0x3f	; 63
    250c:	0f 92       	push	r0
    250e:	11 24       	eor	r1, r1
    2510:	8f 93       	push	r24
    2512:	9f 93       	push	r25
    2514:	ef 93       	push	r30
    2516:	ff 93       	push	r31
    2518:	90 91 9a 01 	lds	r25, 0x019A	; 0x80019a <UART_TxHead>
    251c:	80 91 99 01 	lds	r24, 0x0199	; 0x800199 <UART_TxTail>
    2520:	98 17       	cp	r25, r24
    2522:	69 f0       	breq	.+26     	; 0x253e <__vector_21+0x38>
    2524:	e0 91 99 01 	lds	r30, 0x0199	; 0x800199 <UART_TxTail>
    2528:	ef 5f       	subi	r30, 0xFF	; 255
    252a:	ef 71       	andi	r30, 0x1F	; 31
    252c:	e0 93 99 01 	sts	0x0199, r30	; 0x800199 <UART_TxTail>
    2530:	f0 e0       	ldi	r31, 0x00	; 0
    2532:	e5 54       	subi	r30, 0x45	; 69
    2534:	fe 4f       	sbci	r31, 0xFE	; 254
    2536:	80 81       	ld	r24, Z
    2538:	80 93 c6 00 	sts	0x00C6, r24	; 0x8000c6 <__TEXT_REGION_LENGTH__+0x7e00c6>
    253c:	05 c0       	rjmp	.+10     	; 0x2548 <__vector_21+0x42>
    253e:	e1 ec       	ldi	r30, 0xC1	; 193
    2540:	f0 e0       	ldi	r31, 0x00	; 0
    2542:	80 81       	ld	r24, Z
    2544:	8f 7d       	andi	r24, 0xDF	; 223
    2546:	80 83       	st	Z, r24
    2548:	ff 91       	pop	r31
    254a:	ef 91       	pop	r30
    254c:	9f 91       	pop	r25
    254e:	8f 91       	pop	r24
    2550:	0f 90       	pop	r0
    2552:	0f be       	out	0x3f, r0	; 63
    2554:	0f 90       	pop	r0
    2556:	1f 90       	pop	r1
    2558:	18 95       	reti

0000255a <uart_init>:
    255a:	10 92 9a 01 	sts	0x019A, r1	; 0x80019a <UART_TxHead>
    255e:	10 92 99 01 	sts	0x0199, r1	; 0x800199 <UART_TxTail>
    2562:	10 92 98 01 	sts	0x0198, r1	; 0x800198 <UART_RxHead>
    2566:	10 92 97 01 	sts	0x0197, r1	; 0x800197 <UART_RxTail>
    256a:	99 23       	and	r25, r25
    256c:	1c f4       	brge	.+6      	; 0x2574 <uart_init+0x1a>
    256e:	22 e0       	ldi	r18, 0x02	; 2
    2570:	20 93 c0 00 	sts	0x00C0, r18	; 0x8000c0 <__TEXT_REGION_LENGTH__+0x7e00c0>
    2574:	90 78       	andi	r25, 0x80	; 128
    2576:	90 93 c5 00 	sts	0x00C5, r25	; 0x8000c5 <__TEXT_REGION_LENGTH__+0x7e00c5>
    257a:	80 93 c4 00 	sts	0x00C4, r24	; 0x8000c4 <__TEXT_REGION_LENGTH__+0x7e00c4>
    257e:	88 e9       	ldi	r24, 0x98	; 152
    2580:	80 93 c1 00 	sts	0x00C1, r24	; 0x8000c1 <__TEXT_REGION_LENGTH__+0x7e00c1>
    2584:	86 e0       	ldi	r24, 0x06	; 6
    2586:	80 93 c2 00 	sts	0x00C2, r24	; 0x8000c2 <__TEXT_REGION_LENGTH__+0x7e00c2>
    258a:	08 95       	ret

0000258c <uart_putc>:
    258c:	20 91 9a 01 	lds	r18, 0x019A	; 0x80019a <UART_TxHead>
    2590:	2f 5f       	subi	r18, 0xFF	; 255
    2592:	2f 71       	andi	r18, 0x1F	; 31
    2594:	90 91 99 01 	lds	r25, 0x0199	; 0x800199 <UART_TxTail>
    2598:	29 17       	cp	r18, r25
    259a:	e1 f3       	breq	.-8      	; 0x2594 <uart_putc+0x8>
    259c:	e2 2f       	mov	r30, r18
    259e:	f0 e0       	ldi	r31, 0x00	; 0
    25a0:	e5 54       	subi	r30, 0x45	; 69
    25a2:	fe 4f       	sbci	r31, 0xFE	; 254
    25a4:	80 83       	st	Z, r24
    25a6:	20 93 9a 01 	sts	0x019A, r18	; 0x80019a <UART_TxHead>
    25aa:	e1 ec       	ldi	r30, 0xC1	; 193
    25ac:	f0 e0       	ldi	r31, 0x00	; 0
    25ae:	80 81       	ld	r24, Z
    25b0:	80 62       	ori	r24, 0x20	; 32
    25b2:	80 83       	st	Z, r24
    25b4:	08 95       	ret

000025b6 <uart_puts_p>:
Purpose:  transmit string from program memory to UART
Input:    program memory string to be transmitted
Returns:  none
**************************************************************************/
void uart_puts_p(const char *progmem_s )
{
    25b6:	cf 93       	push	r28
    25b8:	df 93       	push	r29
    register char c;
    
    while ( (c = pgm_read_byte(progmem_s++)) ) 
    25ba:	ec 01       	movw	r28, r24
    25bc:	21 96       	adiw	r28, 0x01	; 1
    25be:	fc 01       	movw	r30, r24
    25c0:	84 91       	lpm	r24, Z
    25c2:	88 23       	and	r24, r24
    25c4:	39 f0       	breq	.+14     	; 0x25d4 <uart_puts_p+0x1e>
      uart_putc(c);
    25c6:	0e 94 c6 12 	call	0x258c	; 0x258c <uart_putc>
**************************************************************************/
void uart_puts_p(const char *progmem_s )
{
    register char c;
    
    while ( (c = pgm_read_byte(progmem_s++)) ) 
    25ca:	fe 01       	movw	r30, r28
    25cc:	84 91       	lpm	r24, Z
    25ce:	21 96       	adiw	r28, 0x01	; 1
    25d0:	81 11       	cpse	r24, r1
    25d2:	f9 cf       	rjmp	.-14     	; 0x25c6 <uart_puts_p+0x10>
      uart_putc(c);

}/* uart_puts_p */
    25d4:	df 91       	pop	r29
    25d6:	cf 91       	pop	r28
    25d8:	08 95       	ret

000025da <__vector_28>:
ISR(UART1_RECEIVE_INTERRUPT)
/*************************************************************************
Function: UART1 Receive Complete interrupt
Purpose:  called when the UART1 has received a character
**************************************************************************/
{
    25da:	1f 92       	push	r1
    25dc:	0f 92       	push	r0
    25de:	0f b6       	in	r0, 0x3f	; 63
    25e0:	0f 92       	push	r0
    25e2:	11 24       	eor	r1, r1
    25e4:	2f 93       	push	r18
    25e6:	8f 93       	push	r24
    25e8:	9f 93       	push	r25
    25ea:	ef 93       	push	r30
    25ec:	ff 93       	push	r31
    unsigned char usr;
    unsigned char lastRxError;
 
 
    /* read UART status register and UART data register */ 
    usr  = UART1_STATUS;
    25ee:	80 91 c8 00 	lds	r24, 0x00C8	; 0x8000c8 <__TEXT_REGION_LENGTH__+0x7e00c8>
    data = UART1_DATA;
    25f2:	20 91 ce 00 	lds	r18, 0x00CE	; 0x8000ce <__TEXT_REGION_LENGTH__+0x7e00ce>
    
    /* get FEn (Frame Error) DORn (Data OverRun) UPEn (USART Parity Error) bits */
    lastRxError = usr & (_BV(FE1)|_BV(DOR1)|_BV(UPE1) );
    25f6:	8c 71       	andi	r24, 0x1C	; 28
            
    /* calculate buffer index */ 
    tmphead = ( UART1_RxHead + 1) & UART_RX_BUFFER_MASK;
    25f8:	e0 91 53 01 	lds	r30, 0x0153	; 0x800153 <UART1_RxHead>
    25fc:	ef 5f       	subi	r30, 0xFF	; 255
    25fe:	ef 71       	andi	r30, 0x1F	; 31
    
    if ( tmphead == UART1_RxTail ) {
    2600:	90 91 52 01 	lds	r25, 0x0152	; 0x800152 <UART1_RxTail>
    2604:	e9 17       	cp	r30, r25
    2606:	39 f0       	breq	.+14     	; 0x2616 <__vector_28+0x3c>
        /* error: receive buffer overflow */
        lastRxError = UART_BUFFER_OVERFLOW >> 8;
    }else{
        /* store new index */
        UART1_RxHead = tmphead;
    2608:	e0 93 53 01 	sts	0x0153, r30	; 0x800153 <UART1_RxHead>
        /* store received data in buffer */
        UART1_RxBuf[tmphead] = data;
    260c:	f0 e0       	ldi	r31, 0x00	; 0
    260e:	ea 5a       	subi	r30, 0xAA	; 170
    2610:	fe 4f       	sbci	r31, 0xFE	; 254
    2612:	20 83       	st	Z, r18
    2614:	01 c0       	rjmp	.+2      	; 0x2618 <__vector_28+0x3e>
    /* calculate buffer index */ 
    tmphead = ( UART1_RxHead + 1) & UART_RX_BUFFER_MASK;
    
    if ( tmphead == UART1_RxTail ) {
        /* error: receive buffer overflow */
        lastRxError = UART_BUFFER_OVERFLOW >> 8;
    2616:	82 e0       	ldi	r24, 0x02	; 2
        /* store new index */
        UART1_RxHead = tmphead;
        /* store received data in buffer */
        UART1_RxBuf[tmphead] = data;
    }
    UART1_LastRxError |= lastRxError;   
    2618:	90 91 51 01 	lds	r25, 0x0151	; 0x800151 <UART1_LastRxError>
    261c:	89 2b       	or	r24, r25
    261e:	80 93 51 01 	sts	0x0151, r24	; 0x800151 <UART1_LastRxError>
}
    2622:	ff 91       	pop	r31
    2624:	ef 91       	pop	r30
    2626:	9f 91       	pop	r25
    2628:	8f 91       	pop	r24
    262a:	2f 91       	pop	r18
    262c:	0f 90       	pop	r0
    262e:	0f be       	out	0x3f, r0	; 63
    2630:	0f 90       	pop	r0
    2632:	1f 90       	pop	r1
    2634:	18 95       	reti

00002636 <__vector_29>:
ISR(UART1_TRANSMIT_INTERRUPT)
/*************************************************************************
Function: UART1 Data Register Empty interrupt
Purpose:  called when the UART1 is ready to transmit the next byte
**************************************************************************/
{
    2636:	1f 92       	push	r1
    2638:	0f 92       	push	r0
    263a:	0f b6       	in	r0, 0x3f	; 63
    263c:	0f 92       	push	r0
    263e:	11 24       	eor	r1, r1
    2640:	8f 93       	push	r24
    2642:	9f 93       	push	r25
    2644:	ef 93       	push	r30
    2646:	ff 93       	push	r31
    unsigned char tmptail;

    
    if ( UART1_TxHead != UART1_TxTail) {
    2648:	90 91 55 01 	lds	r25, 0x0155	; 0x800155 <UART1_TxHead>
    264c:	80 91 54 01 	lds	r24, 0x0154	; 0x800154 <UART1_TxTail>
    2650:	98 17       	cp	r25, r24
    2652:	69 f0       	breq	.+26     	; 0x266e <__vector_29+0x38>
        /* calculate and store new buffer index */
        tmptail = (UART1_TxTail + 1) & UART_TX_BUFFER_MASK;
    2654:	e0 91 54 01 	lds	r30, 0x0154	; 0x800154 <UART1_TxTail>
    2658:	ef 5f       	subi	r30, 0xFF	; 255
    265a:	ef 71       	andi	r30, 0x1F	; 31
        UART1_TxTail = tmptail;
    265c:	e0 93 54 01 	sts	0x0154, r30	; 0x800154 <UART1_TxTail>
        /* get one byte from buffer and write it to UART */
        UART1_DATA = UART1_TxBuf[tmptail];  /* start transmission */
    2660:	f0 e0       	ldi	r31, 0x00	; 0
    2662:	ea 58       	subi	r30, 0x8A	; 138
    2664:	fe 4f       	sbci	r31, 0xFE	; 254
    2666:	80 81       	ld	r24, Z
    2668:	80 93 ce 00 	sts	0x00CE, r24	; 0x8000ce <__TEXT_REGION_LENGTH__+0x7e00ce>
    266c:	05 c0       	rjmp	.+10     	; 0x2678 <__vector_29+0x42>
    }else{
        /* tx buffer empty, disable UDRE interrupt */
        UART1_CONTROL &= ~_BV(UART1_UDRIE);
    266e:	e9 ec       	ldi	r30, 0xC9	; 201
    2670:	f0 e0       	ldi	r31, 0x00	; 0
    2672:	80 81       	ld	r24, Z
    2674:	8f 7d       	andi	r24, 0xDF	; 223
    2676:	80 83       	st	Z, r24
    }
}
    2678:	ff 91       	pop	r31
    267a:	ef 91       	pop	r30
    267c:	9f 91       	pop	r25
    267e:	8f 91       	pop	r24
    2680:	0f 90       	pop	r0
    2682:	0f be       	out	0x3f, r0	; 63
    2684:	0f 90       	pop	r0
    2686:	1f 90       	pop	r1
    2688:	18 95       	reti

0000268a <vfprintf>:
    268a:	a0 e1       	ldi	r26, 0x10	; 16
    268c:	b0 e0       	ldi	r27, 0x00	; 0
    268e:	eb e4       	ldi	r30, 0x4B	; 75
    2690:	f3 e1       	ldi	r31, 0x13	; 19
    2692:	0c 94 fe 16 	jmp	0x2dfc	; 0x2dfc <__prologue_saves__>
    2696:	7c 01       	movw	r14, r24
    2698:	1b 01       	movw	r2, r22
    269a:	6a 01       	movw	r12, r20
    269c:	fc 01       	movw	r30, r24
    269e:	17 82       	std	Z+7, r1	; 0x07
    26a0:	16 82       	std	Z+6, r1	; 0x06
    26a2:	83 81       	ldd	r24, Z+3	; 0x03
    26a4:	81 ff       	sbrs	r24, 1
    26a6:	44 c3       	rjmp	.+1672   	; 0x2d30 <vfprintf+0x6a6>
    26a8:	9e 01       	movw	r18, r28
    26aa:	2f 5f       	subi	r18, 0xFF	; 255
    26ac:	3f 4f       	sbci	r19, 0xFF	; 255
    26ae:	39 01       	movw	r6, r18
    26b0:	f7 01       	movw	r30, r14
    26b2:	93 81       	ldd	r25, Z+3	; 0x03
    26b4:	f1 01       	movw	r30, r2
    26b6:	93 fd       	sbrc	r25, 3
    26b8:	85 91       	lpm	r24, Z+
    26ba:	93 ff       	sbrs	r25, 3
    26bc:	81 91       	ld	r24, Z+
    26be:	1f 01       	movw	r2, r30
    26c0:	88 23       	and	r24, r24
    26c2:	09 f4       	brne	.+2      	; 0x26c6 <vfprintf+0x3c>
    26c4:	31 c3       	rjmp	.+1634   	; 0x2d28 <vfprintf+0x69e>
    26c6:	85 32       	cpi	r24, 0x25	; 37
    26c8:	39 f4       	brne	.+14     	; 0x26d8 <vfprintf+0x4e>
    26ca:	93 fd       	sbrc	r25, 3
    26cc:	85 91       	lpm	r24, Z+
    26ce:	93 ff       	sbrs	r25, 3
    26d0:	81 91       	ld	r24, Z+
    26d2:	1f 01       	movw	r2, r30
    26d4:	85 32       	cpi	r24, 0x25	; 37
    26d6:	39 f4       	brne	.+14     	; 0x26e6 <vfprintf+0x5c>
    26d8:	b7 01       	movw	r22, r14
    26da:	90 e0       	ldi	r25, 0x00	; 0
    26dc:	0e 94 6c 18 	call	0x30d8	; 0x30d8 <fputc>
    26e0:	56 01       	movw	r10, r12
    26e2:	65 01       	movw	r12, r10
    26e4:	e5 cf       	rjmp	.-54     	; 0x26b0 <vfprintf+0x26>
    26e6:	10 e0       	ldi	r17, 0x00	; 0
    26e8:	51 2c       	mov	r5, r1
    26ea:	91 2c       	mov	r9, r1
    26ec:	ff e1       	ldi	r31, 0x1F	; 31
    26ee:	f9 15       	cp	r31, r9
    26f0:	d8 f0       	brcs	.+54     	; 0x2728 <vfprintf+0x9e>
    26f2:	8b 32       	cpi	r24, 0x2B	; 43
    26f4:	79 f0       	breq	.+30     	; 0x2714 <vfprintf+0x8a>
    26f6:	38 f4       	brcc	.+14     	; 0x2706 <vfprintf+0x7c>
    26f8:	80 32       	cpi	r24, 0x20	; 32
    26fa:	79 f0       	breq	.+30     	; 0x271a <vfprintf+0x90>
    26fc:	83 32       	cpi	r24, 0x23	; 35
    26fe:	a1 f4       	brne	.+40     	; 0x2728 <vfprintf+0x9e>
    2700:	f9 2d       	mov	r31, r9
    2702:	f0 61       	ori	r31, 0x10	; 16
    2704:	2e c0       	rjmp	.+92     	; 0x2762 <vfprintf+0xd8>
    2706:	8d 32       	cpi	r24, 0x2D	; 45
    2708:	61 f0       	breq	.+24     	; 0x2722 <vfprintf+0x98>
    270a:	80 33       	cpi	r24, 0x30	; 48
    270c:	69 f4       	brne	.+26     	; 0x2728 <vfprintf+0x9e>
    270e:	29 2d       	mov	r18, r9
    2710:	21 60       	ori	r18, 0x01	; 1
    2712:	2d c0       	rjmp	.+90     	; 0x276e <vfprintf+0xe4>
    2714:	39 2d       	mov	r19, r9
    2716:	32 60       	ori	r19, 0x02	; 2
    2718:	93 2e       	mov	r9, r19
    271a:	89 2d       	mov	r24, r9
    271c:	84 60       	ori	r24, 0x04	; 4
    271e:	98 2e       	mov	r9, r24
    2720:	2a c0       	rjmp	.+84     	; 0x2776 <vfprintf+0xec>
    2722:	e9 2d       	mov	r30, r9
    2724:	e8 60       	ori	r30, 0x08	; 8
    2726:	15 c0       	rjmp	.+42     	; 0x2752 <vfprintf+0xc8>
    2728:	97 fc       	sbrc	r9, 7
    272a:	2d c0       	rjmp	.+90     	; 0x2786 <vfprintf+0xfc>
    272c:	20 ed       	ldi	r18, 0xD0	; 208
    272e:	28 0f       	add	r18, r24
    2730:	2a 30       	cpi	r18, 0x0A	; 10
    2732:	88 f4       	brcc	.+34     	; 0x2756 <vfprintf+0xcc>
    2734:	96 fe       	sbrs	r9, 6
    2736:	06 c0       	rjmp	.+12     	; 0x2744 <vfprintf+0xba>
    2738:	3a e0       	ldi	r19, 0x0A	; 10
    273a:	13 9f       	mul	r17, r19
    273c:	20 0d       	add	r18, r0
    273e:	11 24       	eor	r1, r1
    2740:	12 2f       	mov	r17, r18
    2742:	19 c0       	rjmp	.+50     	; 0x2776 <vfprintf+0xec>
    2744:	8a e0       	ldi	r24, 0x0A	; 10
    2746:	58 9e       	mul	r5, r24
    2748:	20 0d       	add	r18, r0
    274a:	11 24       	eor	r1, r1
    274c:	52 2e       	mov	r5, r18
    274e:	e9 2d       	mov	r30, r9
    2750:	e0 62       	ori	r30, 0x20	; 32
    2752:	9e 2e       	mov	r9, r30
    2754:	10 c0       	rjmp	.+32     	; 0x2776 <vfprintf+0xec>
    2756:	8e 32       	cpi	r24, 0x2E	; 46
    2758:	31 f4       	brne	.+12     	; 0x2766 <vfprintf+0xdc>
    275a:	96 fc       	sbrc	r9, 6
    275c:	e5 c2       	rjmp	.+1482   	; 0x2d28 <vfprintf+0x69e>
    275e:	f9 2d       	mov	r31, r9
    2760:	f0 64       	ori	r31, 0x40	; 64
    2762:	9f 2e       	mov	r9, r31
    2764:	08 c0       	rjmp	.+16     	; 0x2776 <vfprintf+0xec>
    2766:	8c 36       	cpi	r24, 0x6C	; 108
    2768:	21 f4       	brne	.+8      	; 0x2772 <vfprintf+0xe8>
    276a:	29 2d       	mov	r18, r9
    276c:	20 68       	ori	r18, 0x80	; 128
    276e:	92 2e       	mov	r9, r18
    2770:	02 c0       	rjmp	.+4      	; 0x2776 <vfprintf+0xec>
    2772:	88 36       	cpi	r24, 0x68	; 104
    2774:	41 f4       	brne	.+16     	; 0x2786 <vfprintf+0xfc>
    2776:	f1 01       	movw	r30, r2
    2778:	93 fd       	sbrc	r25, 3
    277a:	85 91       	lpm	r24, Z+
    277c:	93 ff       	sbrs	r25, 3
    277e:	81 91       	ld	r24, Z+
    2780:	1f 01       	movw	r2, r30
    2782:	81 11       	cpse	r24, r1
    2784:	b3 cf       	rjmp	.-154    	; 0x26ec <vfprintf+0x62>
    2786:	9b eb       	ldi	r25, 0xBB	; 187
    2788:	98 0f       	add	r25, r24
    278a:	93 30       	cpi	r25, 0x03	; 3
    278c:	20 f4       	brcc	.+8      	; 0x2796 <vfprintf+0x10c>
    278e:	99 2d       	mov	r25, r9
    2790:	90 61       	ori	r25, 0x10	; 16
    2792:	80 5e       	subi	r24, 0xE0	; 224
    2794:	07 c0       	rjmp	.+14     	; 0x27a4 <vfprintf+0x11a>
    2796:	9b e9       	ldi	r25, 0x9B	; 155
    2798:	98 0f       	add	r25, r24
    279a:	93 30       	cpi	r25, 0x03	; 3
    279c:	08 f0       	brcs	.+2      	; 0x27a0 <vfprintf+0x116>
    279e:	66 c1       	rjmp	.+716    	; 0x2a6c <vfprintf+0x3e2>
    27a0:	99 2d       	mov	r25, r9
    27a2:	9f 7e       	andi	r25, 0xEF	; 239
    27a4:	96 ff       	sbrs	r25, 6
    27a6:	16 e0       	ldi	r17, 0x06	; 6
    27a8:	9f 73       	andi	r25, 0x3F	; 63
    27aa:	99 2e       	mov	r9, r25
    27ac:	85 36       	cpi	r24, 0x65	; 101
    27ae:	19 f4       	brne	.+6      	; 0x27b6 <vfprintf+0x12c>
    27b0:	90 64       	ori	r25, 0x40	; 64
    27b2:	99 2e       	mov	r9, r25
    27b4:	08 c0       	rjmp	.+16     	; 0x27c6 <vfprintf+0x13c>
    27b6:	86 36       	cpi	r24, 0x66	; 102
    27b8:	21 f4       	brne	.+8      	; 0x27c2 <vfprintf+0x138>
    27ba:	39 2f       	mov	r19, r25
    27bc:	30 68       	ori	r19, 0x80	; 128
    27be:	93 2e       	mov	r9, r19
    27c0:	02 c0       	rjmp	.+4      	; 0x27c6 <vfprintf+0x13c>
    27c2:	11 11       	cpse	r17, r1
    27c4:	11 50       	subi	r17, 0x01	; 1
    27c6:	97 fe       	sbrs	r9, 7
    27c8:	07 c0       	rjmp	.+14     	; 0x27d8 <vfprintf+0x14e>
    27ca:	1c 33       	cpi	r17, 0x3C	; 60
    27cc:	50 f4       	brcc	.+20     	; 0x27e2 <vfprintf+0x158>
    27ce:	44 24       	eor	r4, r4
    27d0:	43 94       	inc	r4
    27d2:	41 0e       	add	r4, r17
    27d4:	27 e0       	ldi	r18, 0x07	; 7
    27d6:	0b c0       	rjmp	.+22     	; 0x27ee <vfprintf+0x164>
    27d8:	18 30       	cpi	r17, 0x08	; 8
    27da:	38 f0       	brcs	.+14     	; 0x27ea <vfprintf+0x160>
    27dc:	27 e0       	ldi	r18, 0x07	; 7
    27de:	17 e0       	ldi	r17, 0x07	; 7
    27e0:	05 c0       	rjmp	.+10     	; 0x27ec <vfprintf+0x162>
    27e2:	27 e0       	ldi	r18, 0x07	; 7
    27e4:	9c e3       	ldi	r25, 0x3C	; 60
    27e6:	49 2e       	mov	r4, r25
    27e8:	02 c0       	rjmp	.+4      	; 0x27ee <vfprintf+0x164>
    27ea:	21 2f       	mov	r18, r17
    27ec:	41 2c       	mov	r4, r1
    27ee:	56 01       	movw	r10, r12
    27f0:	84 e0       	ldi	r24, 0x04	; 4
    27f2:	a8 0e       	add	r10, r24
    27f4:	b1 1c       	adc	r11, r1
    27f6:	f6 01       	movw	r30, r12
    27f8:	60 81       	ld	r22, Z
    27fa:	71 81       	ldd	r23, Z+1	; 0x01
    27fc:	82 81       	ldd	r24, Z+2	; 0x02
    27fe:	93 81       	ldd	r25, Z+3	; 0x03
    2800:	04 2d       	mov	r16, r4
    2802:	a3 01       	movw	r20, r6
    2804:	0e 94 49 17 	call	0x2e92	; 0x2e92 <__ftoa_engine>
    2808:	6c 01       	movw	r12, r24
    280a:	f9 81       	ldd	r31, Y+1	; 0x01
    280c:	fc 87       	std	Y+12, r31	; 0x0c
    280e:	f0 ff       	sbrs	r31, 0
    2810:	02 c0       	rjmp	.+4      	; 0x2816 <vfprintf+0x18c>
    2812:	f3 ff       	sbrs	r31, 3
    2814:	06 c0       	rjmp	.+12     	; 0x2822 <vfprintf+0x198>
    2816:	91 fc       	sbrc	r9, 1
    2818:	06 c0       	rjmp	.+12     	; 0x2826 <vfprintf+0x19c>
    281a:	92 fe       	sbrs	r9, 2
    281c:	06 c0       	rjmp	.+12     	; 0x282a <vfprintf+0x1a0>
    281e:	00 e2       	ldi	r16, 0x20	; 32
    2820:	05 c0       	rjmp	.+10     	; 0x282c <vfprintf+0x1a2>
    2822:	0d e2       	ldi	r16, 0x2D	; 45
    2824:	03 c0       	rjmp	.+6      	; 0x282c <vfprintf+0x1a2>
    2826:	0b e2       	ldi	r16, 0x2B	; 43
    2828:	01 c0       	rjmp	.+2      	; 0x282c <vfprintf+0x1a2>
    282a:	00 e0       	ldi	r16, 0x00	; 0
    282c:	8c 85       	ldd	r24, Y+12	; 0x0c
    282e:	8c 70       	andi	r24, 0x0C	; 12
    2830:	19 f0       	breq	.+6      	; 0x2838 <vfprintf+0x1ae>
    2832:	01 11       	cpse	r16, r1
    2834:	5a c2       	rjmp	.+1204   	; 0x2cea <vfprintf+0x660>
    2836:	9b c2       	rjmp	.+1334   	; 0x2d6e <vfprintf+0x6e4>
    2838:	97 fe       	sbrs	r9, 7
    283a:	10 c0       	rjmp	.+32     	; 0x285c <vfprintf+0x1d2>
    283c:	4c 0c       	add	r4, r12
    283e:	fc 85       	ldd	r31, Y+12	; 0x0c
    2840:	f4 ff       	sbrs	r31, 4
    2842:	04 c0       	rjmp	.+8      	; 0x284c <vfprintf+0x1c2>
    2844:	8a 81       	ldd	r24, Y+2	; 0x02
    2846:	81 33       	cpi	r24, 0x31	; 49
    2848:	09 f4       	brne	.+2      	; 0x284c <vfprintf+0x1c2>
    284a:	4a 94       	dec	r4
    284c:	14 14       	cp	r1, r4
    284e:	74 f5       	brge	.+92     	; 0x28ac <vfprintf+0x222>
    2850:	28 e0       	ldi	r18, 0x08	; 8
    2852:	24 15       	cp	r18, r4
    2854:	78 f5       	brcc	.+94     	; 0x28b4 <vfprintf+0x22a>
    2856:	88 e0       	ldi	r24, 0x08	; 8
    2858:	48 2e       	mov	r4, r24
    285a:	2c c0       	rjmp	.+88     	; 0x28b4 <vfprintf+0x22a>
    285c:	96 fc       	sbrc	r9, 6
    285e:	2a c0       	rjmp	.+84     	; 0x28b4 <vfprintf+0x22a>
    2860:	81 2f       	mov	r24, r17
    2862:	90 e0       	ldi	r25, 0x00	; 0
    2864:	8c 15       	cp	r24, r12
    2866:	9d 05       	cpc	r25, r13
    2868:	9c f0       	brlt	.+38     	; 0x2890 <vfprintf+0x206>
    286a:	3c ef       	ldi	r19, 0xFC	; 252
    286c:	c3 16       	cp	r12, r19
    286e:	3f ef       	ldi	r19, 0xFF	; 255
    2870:	d3 06       	cpc	r13, r19
    2872:	74 f0       	brlt	.+28     	; 0x2890 <vfprintf+0x206>
    2874:	89 2d       	mov	r24, r9
    2876:	80 68       	ori	r24, 0x80	; 128
    2878:	98 2e       	mov	r9, r24
    287a:	0a c0       	rjmp	.+20     	; 0x2890 <vfprintf+0x206>
    287c:	e2 e0       	ldi	r30, 0x02	; 2
    287e:	f0 e0       	ldi	r31, 0x00	; 0
    2880:	ec 0f       	add	r30, r28
    2882:	fd 1f       	adc	r31, r29
    2884:	e1 0f       	add	r30, r17
    2886:	f1 1d       	adc	r31, r1
    2888:	80 81       	ld	r24, Z
    288a:	80 33       	cpi	r24, 0x30	; 48
    288c:	19 f4       	brne	.+6      	; 0x2894 <vfprintf+0x20a>
    288e:	11 50       	subi	r17, 0x01	; 1
    2890:	11 11       	cpse	r17, r1
    2892:	f4 cf       	rjmp	.-24     	; 0x287c <vfprintf+0x1f2>
    2894:	97 fe       	sbrs	r9, 7
    2896:	0e c0       	rjmp	.+28     	; 0x28b4 <vfprintf+0x22a>
    2898:	44 24       	eor	r4, r4
    289a:	43 94       	inc	r4
    289c:	41 0e       	add	r4, r17
    289e:	81 2f       	mov	r24, r17
    28a0:	90 e0       	ldi	r25, 0x00	; 0
    28a2:	c8 16       	cp	r12, r24
    28a4:	d9 06       	cpc	r13, r25
    28a6:	2c f4       	brge	.+10     	; 0x28b2 <vfprintf+0x228>
    28a8:	1c 19       	sub	r17, r12
    28aa:	04 c0       	rjmp	.+8      	; 0x28b4 <vfprintf+0x22a>
    28ac:	44 24       	eor	r4, r4
    28ae:	43 94       	inc	r4
    28b0:	01 c0       	rjmp	.+2      	; 0x28b4 <vfprintf+0x22a>
    28b2:	10 e0       	ldi	r17, 0x00	; 0
    28b4:	97 fe       	sbrs	r9, 7
    28b6:	06 c0       	rjmp	.+12     	; 0x28c4 <vfprintf+0x23a>
    28b8:	1c 14       	cp	r1, r12
    28ba:	1d 04       	cpc	r1, r13
    28bc:	34 f4       	brge	.+12     	; 0x28ca <vfprintf+0x240>
    28be:	c6 01       	movw	r24, r12
    28c0:	01 96       	adiw	r24, 0x01	; 1
    28c2:	05 c0       	rjmp	.+10     	; 0x28ce <vfprintf+0x244>
    28c4:	85 e0       	ldi	r24, 0x05	; 5
    28c6:	90 e0       	ldi	r25, 0x00	; 0
    28c8:	02 c0       	rjmp	.+4      	; 0x28ce <vfprintf+0x244>
    28ca:	81 e0       	ldi	r24, 0x01	; 1
    28cc:	90 e0       	ldi	r25, 0x00	; 0
    28ce:	01 11       	cpse	r16, r1
    28d0:	01 96       	adiw	r24, 0x01	; 1
    28d2:	11 23       	and	r17, r17
    28d4:	31 f0       	breq	.+12     	; 0x28e2 <vfprintf+0x258>
    28d6:	21 2f       	mov	r18, r17
    28d8:	30 e0       	ldi	r19, 0x00	; 0
    28da:	2f 5f       	subi	r18, 0xFF	; 255
    28dc:	3f 4f       	sbci	r19, 0xFF	; 255
    28de:	82 0f       	add	r24, r18
    28e0:	93 1f       	adc	r25, r19
    28e2:	25 2d       	mov	r18, r5
    28e4:	30 e0       	ldi	r19, 0x00	; 0
    28e6:	82 17       	cp	r24, r18
    28e8:	93 07       	cpc	r25, r19
    28ea:	14 f4       	brge	.+4      	; 0x28f0 <vfprintf+0x266>
    28ec:	58 1a       	sub	r5, r24
    28ee:	01 c0       	rjmp	.+2      	; 0x28f2 <vfprintf+0x268>
    28f0:	51 2c       	mov	r5, r1
    28f2:	89 2d       	mov	r24, r9
    28f4:	89 70       	andi	r24, 0x09	; 9
    28f6:	49 f4       	brne	.+18     	; 0x290a <vfprintf+0x280>
    28f8:	55 20       	and	r5, r5
    28fa:	39 f0       	breq	.+14     	; 0x290a <vfprintf+0x280>
    28fc:	b7 01       	movw	r22, r14
    28fe:	80 e2       	ldi	r24, 0x20	; 32
    2900:	90 e0       	ldi	r25, 0x00	; 0
    2902:	0e 94 6c 18 	call	0x30d8	; 0x30d8 <fputc>
    2906:	5a 94       	dec	r5
    2908:	f7 cf       	rjmp	.-18     	; 0x28f8 <vfprintf+0x26e>
    290a:	00 23       	and	r16, r16
    290c:	29 f0       	breq	.+10     	; 0x2918 <vfprintf+0x28e>
    290e:	b7 01       	movw	r22, r14
    2910:	80 2f       	mov	r24, r16
    2912:	90 e0       	ldi	r25, 0x00	; 0
    2914:	0e 94 6c 18 	call	0x30d8	; 0x30d8 <fputc>
    2918:	93 fc       	sbrc	r9, 3
    291a:	09 c0       	rjmp	.+18     	; 0x292e <vfprintf+0x2a4>
    291c:	55 20       	and	r5, r5
    291e:	39 f0       	breq	.+14     	; 0x292e <vfprintf+0x2a4>
    2920:	b7 01       	movw	r22, r14
    2922:	80 e3       	ldi	r24, 0x30	; 48
    2924:	90 e0       	ldi	r25, 0x00	; 0
    2926:	0e 94 6c 18 	call	0x30d8	; 0x30d8 <fputc>
    292a:	5a 94       	dec	r5
    292c:	f7 cf       	rjmp	.-18     	; 0x291c <vfprintf+0x292>
    292e:	97 fe       	sbrs	r9, 7
    2930:	4c c0       	rjmp	.+152    	; 0x29ca <vfprintf+0x340>
    2932:	46 01       	movw	r8, r12
    2934:	d7 fe       	sbrs	r13, 7
    2936:	02 c0       	rjmp	.+4      	; 0x293c <vfprintf+0x2b2>
    2938:	81 2c       	mov	r8, r1
    293a:	91 2c       	mov	r9, r1
    293c:	c6 01       	movw	r24, r12
    293e:	88 19       	sub	r24, r8
    2940:	99 09       	sbc	r25, r9
    2942:	f3 01       	movw	r30, r6
    2944:	e8 0f       	add	r30, r24
    2946:	f9 1f       	adc	r31, r25
    2948:	fe 87       	std	Y+14, r31	; 0x0e
    294a:	ed 87       	std	Y+13, r30	; 0x0d
    294c:	96 01       	movw	r18, r12
    294e:	24 19       	sub	r18, r4
    2950:	31 09       	sbc	r19, r1
    2952:	38 8b       	std	Y+16, r19	; 0x10
    2954:	2f 87       	std	Y+15, r18	; 0x0f
    2956:	01 2f       	mov	r16, r17
    2958:	10 e0       	ldi	r17, 0x00	; 0
    295a:	11 95       	neg	r17
    295c:	01 95       	neg	r16
    295e:	11 09       	sbc	r17, r1
    2960:	3f ef       	ldi	r19, 0xFF	; 255
    2962:	83 16       	cp	r8, r19
    2964:	93 06       	cpc	r9, r19
    2966:	29 f4       	brne	.+10     	; 0x2972 <vfprintf+0x2e8>
    2968:	b7 01       	movw	r22, r14
    296a:	8e e2       	ldi	r24, 0x2E	; 46
    296c:	90 e0       	ldi	r25, 0x00	; 0
    296e:	0e 94 6c 18 	call	0x30d8	; 0x30d8 <fputc>
    2972:	c8 14       	cp	r12, r8
    2974:	d9 04       	cpc	r13, r9
    2976:	4c f0       	brlt	.+18     	; 0x298a <vfprintf+0x300>
    2978:	8f 85       	ldd	r24, Y+15	; 0x0f
    297a:	98 89       	ldd	r25, Y+16	; 0x10
    297c:	88 15       	cp	r24, r8
    297e:	99 05       	cpc	r25, r9
    2980:	24 f4       	brge	.+8      	; 0x298a <vfprintf+0x300>
    2982:	ed 85       	ldd	r30, Y+13	; 0x0d
    2984:	fe 85       	ldd	r31, Y+14	; 0x0e
    2986:	81 81       	ldd	r24, Z+1	; 0x01
    2988:	01 c0       	rjmp	.+2      	; 0x298c <vfprintf+0x302>
    298a:	80 e3       	ldi	r24, 0x30	; 48
    298c:	f1 e0       	ldi	r31, 0x01	; 1
    298e:	8f 1a       	sub	r8, r31
    2990:	91 08       	sbc	r9, r1
    2992:	2d 85       	ldd	r18, Y+13	; 0x0d
    2994:	3e 85       	ldd	r19, Y+14	; 0x0e
    2996:	2f 5f       	subi	r18, 0xFF	; 255
    2998:	3f 4f       	sbci	r19, 0xFF	; 255
    299a:	3e 87       	std	Y+14, r19	; 0x0e
    299c:	2d 87       	std	Y+13, r18	; 0x0d
    299e:	80 16       	cp	r8, r16
    29a0:	91 06       	cpc	r9, r17
    29a2:	2c f0       	brlt	.+10     	; 0x29ae <vfprintf+0x324>
    29a4:	b7 01       	movw	r22, r14
    29a6:	90 e0       	ldi	r25, 0x00	; 0
    29a8:	0e 94 6c 18 	call	0x30d8	; 0x30d8 <fputc>
    29ac:	d9 cf       	rjmp	.-78     	; 0x2960 <vfprintf+0x2d6>
    29ae:	c8 14       	cp	r12, r8
    29b0:	d9 04       	cpc	r13, r9
    29b2:	41 f4       	brne	.+16     	; 0x29c4 <vfprintf+0x33a>
    29b4:	9a 81       	ldd	r25, Y+2	; 0x02
    29b6:	96 33       	cpi	r25, 0x36	; 54
    29b8:	20 f4       	brcc	.+8      	; 0x29c2 <vfprintf+0x338>
    29ba:	95 33       	cpi	r25, 0x35	; 53
    29bc:	19 f4       	brne	.+6      	; 0x29c4 <vfprintf+0x33a>
    29be:	3c 85       	ldd	r19, Y+12	; 0x0c
    29c0:	34 ff       	sbrs	r19, 4
    29c2:	81 e3       	ldi	r24, 0x31	; 49
    29c4:	b7 01       	movw	r22, r14
    29c6:	90 e0       	ldi	r25, 0x00	; 0
    29c8:	4e c0       	rjmp	.+156    	; 0x2a66 <vfprintf+0x3dc>
    29ca:	8a 81       	ldd	r24, Y+2	; 0x02
    29cc:	81 33       	cpi	r24, 0x31	; 49
    29ce:	19 f0       	breq	.+6      	; 0x29d6 <vfprintf+0x34c>
    29d0:	9c 85       	ldd	r25, Y+12	; 0x0c
    29d2:	9f 7e       	andi	r25, 0xEF	; 239
    29d4:	9c 87       	std	Y+12, r25	; 0x0c
    29d6:	b7 01       	movw	r22, r14
    29d8:	90 e0       	ldi	r25, 0x00	; 0
    29da:	0e 94 6c 18 	call	0x30d8	; 0x30d8 <fputc>
    29de:	11 11       	cpse	r17, r1
    29e0:	05 c0       	rjmp	.+10     	; 0x29ec <vfprintf+0x362>
    29e2:	94 fc       	sbrc	r9, 4
    29e4:	18 c0       	rjmp	.+48     	; 0x2a16 <vfprintf+0x38c>
    29e6:	85 e6       	ldi	r24, 0x65	; 101
    29e8:	90 e0       	ldi	r25, 0x00	; 0
    29ea:	17 c0       	rjmp	.+46     	; 0x2a1a <vfprintf+0x390>
    29ec:	b7 01       	movw	r22, r14
    29ee:	8e e2       	ldi	r24, 0x2E	; 46
    29f0:	90 e0       	ldi	r25, 0x00	; 0
    29f2:	0e 94 6c 18 	call	0x30d8	; 0x30d8 <fputc>
    29f6:	1e 5f       	subi	r17, 0xFE	; 254
    29f8:	82 e0       	ldi	r24, 0x02	; 2
    29fa:	01 e0       	ldi	r16, 0x01	; 1
    29fc:	08 0f       	add	r16, r24
    29fe:	f3 01       	movw	r30, r6
    2a00:	e8 0f       	add	r30, r24
    2a02:	f1 1d       	adc	r31, r1
    2a04:	80 81       	ld	r24, Z
    2a06:	b7 01       	movw	r22, r14
    2a08:	90 e0       	ldi	r25, 0x00	; 0
    2a0a:	0e 94 6c 18 	call	0x30d8	; 0x30d8 <fputc>
    2a0e:	80 2f       	mov	r24, r16
    2a10:	01 13       	cpse	r16, r17
    2a12:	f3 cf       	rjmp	.-26     	; 0x29fa <vfprintf+0x370>
    2a14:	e6 cf       	rjmp	.-52     	; 0x29e2 <vfprintf+0x358>
    2a16:	85 e4       	ldi	r24, 0x45	; 69
    2a18:	90 e0       	ldi	r25, 0x00	; 0
    2a1a:	b7 01       	movw	r22, r14
    2a1c:	0e 94 6c 18 	call	0x30d8	; 0x30d8 <fputc>
    2a20:	d7 fc       	sbrc	r13, 7
    2a22:	06 c0       	rjmp	.+12     	; 0x2a30 <vfprintf+0x3a6>
    2a24:	c1 14       	cp	r12, r1
    2a26:	d1 04       	cpc	r13, r1
    2a28:	41 f4       	brne	.+16     	; 0x2a3a <vfprintf+0x3b0>
    2a2a:	ec 85       	ldd	r30, Y+12	; 0x0c
    2a2c:	e4 ff       	sbrs	r30, 4
    2a2e:	05 c0       	rjmp	.+10     	; 0x2a3a <vfprintf+0x3b0>
    2a30:	d1 94       	neg	r13
    2a32:	c1 94       	neg	r12
    2a34:	d1 08       	sbc	r13, r1
    2a36:	8d e2       	ldi	r24, 0x2D	; 45
    2a38:	01 c0       	rjmp	.+2      	; 0x2a3c <vfprintf+0x3b2>
    2a3a:	8b e2       	ldi	r24, 0x2B	; 43
    2a3c:	b7 01       	movw	r22, r14
    2a3e:	90 e0       	ldi	r25, 0x00	; 0
    2a40:	0e 94 6c 18 	call	0x30d8	; 0x30d8 <fputc>
    2a44:	80 e3       	ldi	r24, 0x30	; 48
    2a46:	2a e0       	ldi	r18, 0x0A	; 10
    2a48:	c2 16       	cp	r12, r18
    2a4a:	d1 04       	cpc	r13, r1
    2a4c:	2c f0       	brlt	.+10     	; 0x2a58 <vfprintf+0x3ce>
    2a4e:	8f 5f       	subi	r24, 0xFF	; 255
    2a50:	fa e0       	ldi	r31, 0x0A	; 10
    2a52:	cf 1a       	sub	r12, r31
    2a54:	d1 08       	sbc	r13, r1
    2a56:	f7 cf       	rjmp	.-18     	; 0x2a46 <vfprintf+0x3bc>
    2a58:	b7 01       	movw	r22, r14
    2a5a:	90 e0       	ldi	r25, 0x00	; 0
    2a5c:	0e 94 6c 18 	call	0x30d8	; 0x30d8 <fputc>
    2a60:	b7 01       	movw	r22, r14
    2a62:	c6 01       	movw	r24, r12
    2a64:	c0 96       	adiw	r24, 0x30	; 48
    2a66:	0e 94 6c 18 	call	0x30d8	; 0x30d8 <fputc>
    2a6a:	54 c1       	rjmp	.+680    	; 0x2d14 <vfprintf+0x68a>
    2a6c:	83 36       	cpi	r24, 0x63	; 99
    2a6e:	31 f0       	breq	.+12     	; 0x2a7c <vfprintf+0x3f2>
    2a70:	83 37       	cpi	r24, 0x73	; 115
    2a72:	79 f0       	breq	.+30     	; 0x2a92 <vfprintf+0x408>
    2a74:	83 35       	cpi	r24, 0x53	; 83
    2a76:	09 f0       	breq	.+2      	; 0x2a7a <vfprintf+0x3f0>
    2a78:	56 c0       	rjmp	.+172    	; 0x2b26 <vfprintf+0x49c>
    2a7a:	20 c0       	rjmp	.+64     	; 0x2abc <vfprintf+0x432>
    2a7c:	56 01       	movw	r10, r12
    2a7e:	32 e0       	ldi	r19, 0x02	; 2
    2a80:	a3 0e       	add	r10, r19
    2a82:	b1 1c       	adc	r11, r1
    2a84:	f6 01       	movw	r30, r12
    2a86:	80 81       	ld	r24, Z
    2a88:	89 83       	std	Y+1, r24	; 0x01
    2a8a:	01 e0       	ldi	r16, 0x01	; 1
    2a8c:	10 e0       	ldi	r17, 0x00	; 0
    2a8e:	63 01       	movw	r12, r6
    2a90:	12 c0       	rjmp	.+36     	; 0x2ab6 <vfprintf+0x42c>
    2a92:	56 01       	movw	r10, r12
    2a94:	f2 e0       	ldi	r31, 0x02	; 2
    2a96:	af 0e       	add	r10, r31
    2a98:	b1 1c       	adc	r11, r1
    2a9a:	f6 01       	movw	r30, r12
    2a9c:	c0 80       	ld	r12, Z
    2a9e:	d1 80       	ldd	r13, Z+1	; 0x01
    2aa0:	96 fe       	sbrs	r9, 6
    2aa2:	03 c0       	rjmp	.+6      	; 0x2aaa <vfprintf+0x420>
    2aa4:	61 2f       	mov	r22, r17
    2aa6:	70 e0       	ldi	r23, 0x00	; 0
    2aa8:	02 c0       	rjmp	.+4      	; 0x2aae <vfprintf+0x424>
    2aaa:	6f ef       	ldi	r22, 0xFF	; 255
    2aac:	7f ef       	ldi	r23, 0xFF	; 255
    2aae:	c6 01       	movw	r24, r12
    2ab0:	0e 94 47 18 	call	0x308e	; 0x308e <strnlen>
    2ab4:	8c 01       	movw	r16, r24
    2ab6:	f9 2d       	mov	r31, r9
    2ab8:	ff 77       	andi	r31, 0x7F	; 127
    2aba:	14 c0       	rjmp	.+40     	; 0x2ae4 <vfprintf+0x45a>
    2abc:	56 01       	movw	r10, r12
    2abe:	22 e0       	ldi	r18, 0x02	; 2
    2ac0:	a2 0e       	add	r10, r18
    2ac2:	b1 1c       	adc	r11, r1
    2ac4:	f6 01       	movw	r30, r12
    2ac6:	c0 80       	ld	r12, Z
    2ac8:	d1 80       	ldd	r13, Z+1	; 0x01
    2aca:	96 fe       	sbrs	r9, 6
    2acc:	03 c0       	rjmp	.+6      	; 0x2ad4 <vfprintf+0x44a>
    2ace:	61 2f       	mov	r22, r17
    2ad0:	70 e0       	ldi	r23, 0x00	; 0
    2ad2:	02 c0       	rjmp	.+4      	; 0x2ad8 <vfprintf+0x44e>
    2ad4:	6f ef       	ldi	r22, 0xFF	; 255
    2ad6:	7f ef       	ldi	r23, 0xFF	; 255
    2ad8:	c6 01       	movw	r24, r12
    2ada:	0e 94 2a 18 	call	0x3054	; 0x3054 <strnlen_P>
    2ade:	8c 01       	movw	r16, r24
    2ae0:	f9 2d       	mov	r31, r9
    2ae2:	f0 68       	ori	r31, 0x80	; 128
    2ae4:	9f 2e       	mov	r9, r31
    2ae6:	f3 fd       	sbrc	r31, 3
    2ae8:	1a c0       	rjmp	.+52     	; 0x2b1e <vfprintf+0x494>
    2aea:	85 2d       	mov	r24, r5
    2aec:	90 e0       	ldi	r25, 0x00	; 0
    2aee:	08 17       	cp	r16, r24
    2af0:	19 07       	cpc	r17, r25
    2af2:	a8 f4       	brcc	.+42     	; 0x2b1e <vfprintf+0x494>
    2af4:	b7 01       	movw	r22, r14
    2af6:	80 e2       	ldi	r24, 0x20	; 32
    2af8:	90 e0       	ldi	r25, 0x00	; 0
    2afa:	0e 94 6c 18 	call	0x30d8	; 0x30d8 <fputc>
    2afe:	5a 94       	dec	r5
    2b00:	f4 cf       	rjmp	.-24     	; 0x2aea <vfprintf+0x460>
    2b02:	f6 01       	movw	r30, r12
    2b04:	97 fc       	sbrc	r9, 7
    2b06:	85 91       	lpm	r24, Z+
    2b08:	97 fe       	sbrs	r9, 7
    2b0a:	81 91       	ld	r24, Z+
    2b0c:	6f 01       	movw	r12, r30
    2b0e:	b7 01       	movw	r22, r14
    2b10:	90 e0       	ldi	r25, 0x00	; 0
    2b12:	0e 94 6c 18 	call	0x30d8	; 0x30d8 <fputc>
    2b16:	51 10       	cpse	r5, r1
    2b18:	5a 94       	dec	r5
    2b1a:	01 50       	subi	r16, 0x01	; 1
    2b1c:	11 09       	sbc	r17, r1
    2b1e:	01 15       	cp	r16, r1
    2b20:	11 05       	cpc	r17, r1
    2b22:	79 f7       	brne	.-34     	; 0x2b02 <vfprintf+0x478>
    2b24:	f7 c0       	rjmp	.+494    	; 0x2d14 <vfprintf+0x68a>
    2b26:	84 36       	cpi	r24, 0x64	; 100
    2b28:	11 f0       	breq	.+4      	; 0x2b2e <vfprintf+0x4a4>
    2b2a:	89 36       	cpi	r24, 0x69	; 105
    2b2c:	61 f5       	brne	.+88     	; 0x2b86 <vfprintf+0x4fc>
    2b2e:	56 01       	movw	r10, r12
    2b30:	97 fe       	sbrs	r9, 7
    2b32:	09 c0       	rjmp	.+18     	; 0x2b46 <vfprintf+0x4bc>
    2b34:	24 e0       	ldi	r18, 0x04	; 4
    2b36:	a2 0e       	add	r10, r18
    2b38:	b1 1c       	adc	r11, r1
    2b3a:	f6 01       	movw	r30, r12
    2b3c:	60 81       	ld	r22, Z
    2b3e:	71 81       	ldd	r23, Z+1	; 0x01
    2b40:	82 81       	ldd	r24, Z+2	; 0x02
    2b42:	93 81       	ldd	r25, Z+3	; 0x03
    2b44:	0a c0       	rjmp	.+20     	; 0x2b5a <vfprintf+0x4d0>
    2b46:	f2 e0       	ldi	r31, 0x02	; 2
    2b48:	af 0e       	add	r10, r31
    2b4a:	b1 1c       	adc	r11, r1
    2b4c:	f6 01       	movw	r30, r12
    2b4e:	60 81       	ld	r22, Z
    2b50:	71 81       	ldd	r23, Z+1	; 0x01
    2b52:	07 2e       	mov	r0, r23
    2b54:	00 0c       	add	r0, r0
    2b56:	88 0b       	sbc	r24, r24
    2b58:	99 0b       	sbc	r25, r25
    2b5a:	f9 2d       	mov	r31, r9
    2b5c:	ff 76       	andi	r31, 0x6F	; 111
    2b5e:	9f 2e       	mov	r9, r31
    2b60:	97 ff       	sbrs	r25, 7
    2b62:	09 c0       	rjmp	.+18     	; 0x2b76 <vfprintf+0x4ec>
    2b64:	90 95       	com	r25
    2b66:	80 95       	com	r24
    2b68:	70 95       	com	r23
    2b6a:	61 95       	neg	r22
    2b6c:	7f 4f       	sbci	r23, 0xFF	; 255
    2b6e:	8f 4f       	sbci	r24, 0xFF	; 255
    2b70:	9f 4f       	sbci	r25, 0xFF	; 255
    2b72:	f0 68       	ori	r31, 0x80	; 128
    2b74:	9f 2e       	mov	r9, r31
    2b76:	2a e0       	ldi	r18, 0x0A	; 10
    2b78:	30 e0       	ldi	r19, 0x00	; 0
    2b7a:	a3 01       	movw	r20, r6
    2b7c:	0e 94 ff 18 	call	0x31fe	; 0x31fe <__ultoa_invert>
    2b80:	c8 2e       	mov	r12, r24
    2b82:	c6 18       	sub	r12, r6
    2b84:	3f c0       	rjmp	.+126    	; 0x2c04 <vfprintf+0x57a>
    2b86:	09 2d       	mov	r16, r9
    2b88:	85 37       	cpi	r24, 0x75	; 117
    2b8a:	21 f4       	brne	.+8      	; 0x2b94 <vfprintf+0x50a>
    2b8c:	0f 7e       	andi	r16, 0xEF	; 239
    2b8e:	2a e0       	ldi	r18, 0x0A	; 10
    2b90:	30 e0       	ldi	r19, 0x00	; 0
    2b92:	1d c0       	rjmp	.+58     	; 0x2bce <vfprintf+0x544>
    2b94:	09 7f       	andi	r16, 0xF9	; 249
    2b96:	8f 36       	cpi	r24, 0x6F	; 111
    2b98:	91 f0       	breq	.+36     	; 0x2bbe <vfprintf+0x534>
    2b9a:	18 f4       	brcc	.+6      	; 0x2ba2 <vfprintf+0x518>
    2b9c:	88 35       	cpi	r24, 0x58	; 88
    2b9e:	59 f0       	breq	.+22     	; 0x2bb6 <vfprintf+0x52c>
    2ba0:	c3 c0       	rjmp	.+390    	; 0x2d28 <vfprintf+0x69e>
    2ba2:	80 37       	cpi	r24, 0x70	; 112
    2ba4:	19 f0       	breq	.+6      	; 0x2bac <vfprintf+0x522>
    2ba6:	88 37       	cpi	r24, 0x78	; 120
    2ba8:	11 f0       	breq	.+4      	; 0x2bae <vfprintf+0x524>
    2baa:	be c0       	rjmp	.+380    	; 0x2d28 <vfprintf+0x69e>
    2bac:	00 61       	ori	r16, 0x10	; 16
    2bae:	04 ff       	sbrs	r16, 4
    2bb0:	09 c0       	rjmp	.+18     	; 0x2bc4 <vfprintf+0x53a>
    2bb2:	04 60       	ori	r16, 0x04	; 4
    2bb4:	07 c0       	rjmp	.+14     	; 0x2bc4 <vfprintf+0x53a>
    2bb6:	94 fe       	sbrs	r9, 4
    2bb8:	08 c0       	rjmp	.+16     	; 0x2bca <vfprintf+0x540>
    2bba:	06 60       	ori	r16, 0x06	; 6
    2bbc:	06 c0       	rjmp	.+12     	; 0x2bca <vfprintf+0x540>
    2bbe:	28 e0       	ldi	r18, 0x08	; 8
    2bc0:	30 e0       	ldi	r19, 0x00	; 0
    2bc2:	05 c0       	rjmp	.+10     	; 0x2bce <vfprintf+0x544>
    2bc4:	20 e1       	ldi	r18, 0x10	; 16
    2bc6:	30 e0       	ldi	r19, 0x00	; 0
    2bc8:	02 c0       	rjmp	.+4      	; 0x2bce <vfprintf+0x544>
    2bca:	20 e1       	ldi	r18, 0x10	; 16
    2bcc:	32 e0       	ldi	r19, 0x02	; 2
    2bce:	56 01       	movw	r10, r12
    2bd0:	07 ff       	sbrs	r16, 7
    2bd2:	09 c0       	rjmp	.+18     	; 0x2be6 <vfprintf+0x55c>
    2bd4:	84 e0       	ldi	r24, 0x04	; 4
    2bd6:	a8 0e       	add	r10, r24
    2bd8:	b1 1c       	adc	r11, r1
    2bda:	f6 01       	movw	r30, r12
    2bdc:	60 81       	ld	r22, Z
    2bde:	71 81       	ldd	r23, Z+1	; 0x01
    2be0:	82 81       	ldd	r24, Z+2	; 0x02
    2be2:	93 81       	ldd	r25, Z+3	; 0x03
    2be4:	08 c0       	rjmp	.+16     	; 0x2bf6 <vfprintf+0x56c>
    2be6:	f2 e0       	ldi	r31, 0x02	; 2
    2be8:	af 0e       	add	r10, r31
    2bea:	b1 1c       	adc	r11, r1
    2bec:	f6 01       	movw	r30, r12
    2bee:	60 81       	ld	r22, Z
    2bf0:	71 81       	ldd	r23, Z+1	; 0x01
    2bf2:	80 e0       	ldi	r24, 0x00	; 0
    2bf4:	90 e0       	ldi	r25, 0x00	; 0
    2bf6:	a3 01       	movw	r20, r6
    2bf8:	0e 94 ff 18 	call	0x31fe	; 0x31fe <__ultoa_invert>
    2bfc:	c8 2e       	mov	r12, r24
    2bfe:	c6 18       	sub	r12, r6
    2c00:	0f 77       	andi	r16, 0x7F	; 127
    2c02:	90 2e       	mov	r9, r16
    2c04:	96 fe       	sbrs	r9, 6
    2c06:	0b c0       	rjmp	.+22     	; 0x2c1e <vfprintf+0x594>
    2c08:	09 2d       	mov	r16, r9
    2c0a:	0e 7f       	andi	r16, 0xFE	; 254
    2c0c:	c1 16       	cp	r12, r17
    2c0e:	50 f4       	brcc	.+20     	; 0x2c24 <vfprintf+0x59a>
    2c10:	94 fe       	sbrs	r9, 4
    2c12:	0a c0       	rjmp	.+20     	; 0x2c28 <vfprintf+0x59e>
    2c14:	92 fc       	sbrc	r9, 2
    2c16:	08 c0       	rjmp	.+16     	; 0x2c28 <vfprintf+0x59e>
    2c18:	09 2d       	mov	r16, r9
    2c1a:	0e 7e       	andi	r16, 0xEE	; 238
    2c1c:	05 c0       	rjmp	.+10     	; 0x2c28 <vfprintf+0x59e>
    2c1e:	dc 2c       	mov	r13, r12
    2c20:	09 2d       	mov	r16, r9
    2c22:	03 c0       	rjmp	.+6      	; 0x2c2a <vfprintf+0x5a0>
    2c24:	dc 2c       	mov	r13, r12
    2c26:	01 c0       	rjmp	.+2      	; 0x2c2a <vfprintf+0x5a0>
    2c28:	d1 2e       	mov	r13, r17
    2c2a:	04 ff       	sbrs	r16, 4
    2c2c:	0d c0       	rjmp	.+26     	; 0x2c48 <vfprintf+0x5be>
    2c2e:	fe 01       	movw	r30, r28
    2c30:	ec 0d       	add	r30, r12
    2c32:	f1 1d       	adc	r31, r1
    2c34:	80 81       	ld	r24, Z
    2c36:	80 33       	cpi	r24, 0x30	; 48
    2c38:	11 f4       	brne	.+4      	; 0x2c3e <vfprintf+0x5b4>
    2c3a:	09 7e       	andi	r16, 0xE9	; 233
    2c3c:	09 c0       	rjmp	.+18     	; 0x2c50 <vfprintf+0x5c6>
    2c3e:	02 ff       	sbrs	r16, 2
    2c40:	06 c0       	rjmp	.+12     	; 0x2c4e <vfprintf+0x5c4>
    2c42:	d3 94       	inc	r13
    2c44:	d3 94       	inc	r13
    2c46:	04 c0       	rjmp	.+8      	; 0x2c50 <vfprintf+0x5c6>
    2c48:	80 2f       	mov	r24, r16
    2c4a:	86 78       	andi	r24, 0x86	; 134
    2c4c:	09 f0       	breq	.+2      	; 0x2c50 <vfprintf+0x5c6>
    2c4e:	d3 94       	inc	r13
    2c50:	03 fd       	sbrc	r16, 3
    2c52:	11 c0       	rjmp	.+34     	; 0x2c76 <vfprintf+0x5ec>
    2c54:	00 ff       	sbrs	r16, 0
    2c56:	06 c0       	rjmp	.+12     	; 0x2c64 <vfprintf+0x5da>
    2c58:	1c 2d       	mov	r17, r12
    2c5a:	d5 14       	cp	r13, r5
    2c5c:	80 f4       	brcc	.+32     	; 0x2c7e <vfprintf+0x5f4>
    2c5e:	15 0d       	add	r17, r5
    2c60:	1d 19       	sub	r17, r13
    2c62:	0d c0       	rjmp	.+26     	; 0x2c7e <vfprintf+0x5f4>
    2c64:	d5 14       	cp	r13, r5
    2c66:	58 f4       	brcc	.+22     	; 0x2c7e <vfprintf+0x5f4>
    2c68:	b7 01       	movw	r22, r14
    2c6a:	80 e2       	ldi	r24, 0x20	; 32
    2c6c:	90 e0       	ldi	r25, 0x00	; 0
    2c6e:	0e 94 6c 18 	call	0x30d8	; 0x30d8 <fputc>
    2c72:	d3 94       	inc	r13
    2c74:	f7 cf       	rjmp	.-18     	; 0x2c64 <vfprintf+0x5da>
    2c76:	d5 14       	cp	r13, r5
    2c78:	10 f4       	brcc	.+4      	; 0x2c7e <vfprintf+0x5f4>
    2c7a:	5d 18       	sub	r5, r13
    2c7c:	01 c0       	rjmp	.+2      	; 0x2c80 <vfprintf+0x5f6>
    2c7e:	51 2c       	mov	r5, r1
    2c80:	04 ff       	sbrs	r16, 4
    2c82:	10 c0       	rjmp	.+32     	; 0x2ca4 <vfprintf+0x61a>
    2c84:	b7 01       	movw	r22, r14
    2c86:	80 e3       	ldi	r24, 0x30	; 48
    2c88:	90 e0       	ldi	r25, 0x00	; 0
    2c8a:	0e 94 6c 18 	call	0x30d8	; 0x30d8 <fputc>
    2c8e:	02 ff       	sbrs	r16, 2
    2c90:	17 c0       	rjmp	.+46     	; 0x2cc0 <vfprintf+0x636>
    2c92:	01 fd       	sbrc	r16, 1
    2c94:	03 c0       	rjmp	.+6      	; 0x2c9c <vfprintf+0x612>
    2c96:	88 e7       	ldi	r24, 0x78	; 120
    2c98:	90 e0       	ldi	r25, 0x00	; 0
    2c9a:	02 c0       	rjmp	.+4      	; 0x2ca0 <vfprintf+0x616>
    2c9c:	88 e5       	ldi	r24, 0x58	; 88
    2c9e:	90 e0       	ldi	r25, 0x00	; 0
    2ca0:	b7 01       	movw	r22, r14
    2ca2:	0c c0       	rjmp	.+24     	; 0x2cbc <vfprintf+0x632>
    2ca4:	80 2f       	mov	r24, r16
    2ca6:	86 78       	andi	r24, 0x86	; 134
    2ca8:	59 f0       	breq	.+22     	; 0x2cc0 <vfprintf+0x636>
    2caa:	01 ff       	sbrs	r16, 1
    2cac:	02 c0       	rjmp	.+4      	; 0x2cb2 <vfprintf+0x628>
    2cae:	8b e2       	ldi	r24, 0x2B	; 43
    2cb0:	01 c0       	rjmp	.+2      	; 0x2cb4 <vfprintf+0x62a>
    2cb2:	80 e2       	ldi	r24, 0x20	; 32
    2cb4:	07 fd       	sbrc	r16, 7
    2cb6:	8d e2       	ldi	r24, 0x2D	; 45
    2cb8:	b7 01       	movw	r22, r14
    2cba:	90 e0       	ldi	r25, 0x00	; 0
    2cbc:	0e 94 6c 18 	call	0x30d8	; 0x30d8 <fputc>
    2cc0:	c1 16       	cp	r12, r17
    2cc2:	38 f4       	brcc	.+14     	; 0x2cd2 <vfprintf+0x648>
    2cc4:	b7 01       	movw	r22, r14
    2cc6:	80 e3       	ldi	r24, 0x30	; 48
    2cc8:	90 e0       	ldi	r25, 0x00	; 0
    2cca:	0e 94 6c 18 	call	0x30d8	; 0x30d8 <fputc>
    2cce:	11 50       	subi	r17, 0x01	; 1
    2cd0:	f7 cf       	rjmp	.-18     	; 0x2cc0 <vfprintf+0x636>
    2cd2:	ca 94       	dec	r12
    2cd4:	f3 01       	movw	r30, r6
    2cd6:	ec 0d       	add	r30, r12
    2cd8:	f1 1d       	adc	r31, r1
    2cda:	80 81       	ld	r24, Z
    2cdc:	b7 01       	movw	r22, r14
    2cde:	90 e0       	ldi	r25, 0x00	; 0
    2ce0:	0e 94 6c 18 	call	0x30d8	; 0x30d8 <fputc>
    2ce4:	c1 10       	cpse	r12, r1
    2ce6:	f5 cf       	rjmp	.-22     	; 0x2cd2 <vfprintf+0x648>
    2ce8:	15 c0       	rjmp	.+42     	; 0x2d14 <vfprintf+0x68a>
    2cea:	f4 e0       	ldi	r31, 0x04	; 4
    2cec:	f5 15       	cp	r31, r5
    2cee:	60 f5       	brcc	.+88     	; 0x2d48 <vfprintf+0x6be>
    2cf0:	84 e0       	ldi	r24, 0x04	; 4
    2cf2:	58 1a       	sub	r5, r24
    2cf4:	93 fe       	sbrs	r9, 3
    2cf6:	1f c0       	rjmp	.+62     	; 0x2d36 <vfprintf+0x6ac>
    2cf8:	01 11       	cpse	r16, r1
    2cfa:	27 c0       	rjmp	.+78     	; 0x2d4a <vfprintf+0x6c0>
    2cfc:	2c 85       	ldd	r18, Y+12	; 0x0c
    2cfe:	23 ff       	sbrs	r18, 3
    2d00:	2a c0       	rjmp	.+84     	; 0x2d56 <vfprintf+0x6cc>
    2d02:	0c e9       	ldi	r16, 0x9C	; 156
    2d04:	10 e0       	ldi	r17, 0x00	; 0
    2d06:	39 2d       	mov	r19, r9
    2d08:	30 71       	andi	r19, 0x10	; 16
    2d0a:	93 2e       	mov	r9, r19
    2d0c:	f8 01       	movw	r30, r16
    2d0e:	84 91       	lpm	r24, Z
    2d10:	81 11       	cpse	r24, r1
    2d12:	24 c0       	rjmp	.+72     	; 0x2d5c <vfprintf+0x6d2>
    2d14:	55 20       	and	r5, r5
    2d16:	09 f4       	brne	.+2      	; 0x2d1a <vfprintf+0x690>
    2d18:	e4 cc       	rjmp	.-1592   	; 0x26e2 <vfprintf+0x58>
    2d1a:	b7 01       	movw	r22, r14
    2d1c:	80 e2       	ldi	r24, 0x20	; 32
    2d1e:	90 e0       	ldi	r25, 0x00	; 0
    2d20:	0e 94 6c 18 	call	0x30d8	; 0x30d8 <fputc>
    2d24:	5a 94       	dec	r5
    2d26:	f6 cf       	rjmp	.-20     	; 0x2d14 <vfprintf+0x68a>
    2d28:	f7 01       	movw	r30, r14
    2d2a:	86 81       	ldd	r24, Z+6	; 0x06
    2d2c:	97 81       	ldd	r25, Z+7	; 0x07
    2d2e:	26 c0       	rjmp	.+76     	; 0x2d7c <vfprintf+0x6f2>
    2d30:	8f ef       	ldi	r24, 0xFF	; 255
    2d32:	9f ef       	ldi	r25, 0xFF	; 255
    2d34:	23 c0       	rjmp	.+70     	; 0x2d7c <vfprintf+0x6f2>
    2d36:	b7 01       	movw	r22, r14
    2d38:	80 e2       	ldi	r24, 0x20	; 32
    2d3a:	90 e0       	ldi	r25, 0x00	; 0
    2d3c:	0e 94 6c 18 	call	0x30d8	; 0x30d8 <fputc>
    2d40:	5a 94       	dec	r5
    2d42:	51 10       	cpse	r5, r1
    2d44:	f8 cf       	rjmp	.-16     	; 0x2d36 <vfprintf+0x6ac>
    2d46:	d8 cf       	rjmp	.-80     	; 0x2cf8 <vfprintf+0x66e>
    2d48:	51 2c       	mov	r5, r1
    2d4a:	b7 01       	movw	r22, r14
    2d4c:	80 2f       	mov	r24, r16
    2d4e:	90 e0       	ldi	r25, 0x00	; 0
    2d50:	0e 94 6c 18 	call	0x30d8	; 0x30d8 <fputc>
    2d54:	d3 cf       	rjmp	.-90     	; 0x2cfc <vfprintf+0x672>
    2d56:	00 ea       	ldi	r16, 0xA0	; 160
    2d58:	10 e0       	ldi	r17, 0x00	; 0
    2d5a:	d5 cf       	rjmp	.-86     	; 0x2d06 <vfprintf+0x67c>
    2d5c:	91 10       	cpse	r9, r1
    2d5e:	80 52       	subi	r24, 0x20	; 32
    2d60:	b7 01       	movw	r22, r14
    2d62:	90 e0       	ldi	r25, 0x00	; 0
    2d64:	0e 94 6c 18 	call	0x30d8	; 0x30d8 <fputc>
    2d68:	0f 5f       	subi	r16, 0xFF	; 255
    2d6a:	1f 4f       	sbci	r17, 0xFF	; 255
    2d6c:	cf cf       	rjmp	.-98     	; 0x2d0c <vfprintf+0x682>
    2d6e:	23 e0       	ldi	r18, 0x03	; 3
    2d70:	25 15       	cp	r18, r5
    2d72:	10 f4       	brcc	.+4      	; 0x2d78 <vfprintf+0x6ee>
    2d74:	83 e0       	ldi	r24, 0x03	; 3
    2d76:	bd cf       	rjmp	.-134    	; 0x2cf2 <vfprintf+0x668>
    2d78:	51 2c       	mov	r5, r1
    2d7a:	c0 cf       	rjmp	.-128    	; 0x2cfc <vfprintf+0x672>
    2d7c:	60 96       	adiw	r28, 0x10	; 16
    2d7e:	e2 e1       	ldi	r30, 0x12	; 18
    2d80:	0c 94 1a 17 	jmp	0x2e34	; 0x2e34 <__epilogue_restores__>

00002d84 <__divmodhi4>:
    2d84:	97 fb       	bst	r25, 7
    2d86:	07 2e       	mov	r0, r23
    2d88:	16 f4       	brtc	.+4      	; 0x2d8e <__divmodhi4+0xa>
    2d8a:	00 94       	com	r0
    2d8c:	07 d0       	rcall	.+14     	; 0x2d9c <__divmodhi4_neg1>
    2d8e:	77 fd       	sbrc	r23, 7
    2d90:	09 d0       	rcall	.+18     	; 0x2da4 <__divmodhi4_neg2>
    2d92:	0e 94 35 17 	call	0x2e6a	; 0x2e6a <__udivmodhi4>
    2d96:	07 fc       	sbrc	r0, 7
    2d98:	05 d0       	rcall	.+10     	; 0x2da4 <__divmodhi4_neg2>
    2d9a:	3e f4       	brtc	.+14     	; 0x2daa <__divmodhi4_exit>

00002d9c <__divmodhi4_neg1>:
    2d9c:	90 95       	com	r25
    2d9e:	81 95       	neg	r24
    2da0:	9f 4f       	sbci	r25, 0xFF	; 255
    2da2:	08 95       	ret

00002da4 <__divmodhi4_neg2>:
    2da4:	70 95       	com	r23
    2da6:	61 95       	neg	r22
    2da8:	7f 4f       	sbci	r23, 0xFF	; 255

00002daa <__divmodhi4_exit>:
    2daa:	08 95       	ret

00002dac <__tablejump2__>:
    2dac:	ee 0f       	add	r30, r30
    2dae:	ff 1f       	adc	r31, r31
    2db0:	05 90       	lpm	r0, Z+
    2db2:	f4 91       	lpm	r31, Z
    2db4:	e0 2d       	mov	r30, r0
    2db6:	09 94       	ijmp

00002db8 <__umulhisi3>:
    2db8:	a2 9f       	mul	r26, r18
    2dba:	b0 01       	movw	r22, r0
    2dbc:	b3 9f       	mul	r27, r19
    2dbe:	c0 01       	movw	r24, r0
    2dc0:	a3 9f       	mul	r26, r19
    2dc2:	70 0d       	add	r23, r0
    2dc4:	81 1d       	adc	r24, r1
    2dc6:	11 24       	eor	r1, r1
    2dc8:	91 1d       	adc	r25, r1
    2dca:	b2 9f       	mul	r27, r18
    2dcc:	70 0d       	add	r23, r0
    2dce:	81 1d       	adc	r24, r1
    2dd0:	11 24       	eor	r1, r1
    2dd2:	91 1d       	adc	r25, r1
    2dd4:	08 95       	ret

00002dd6 <__muluhisi3>:
    2dd6:	0e 94 dc 16 	call	0x2db8	; 0x2db8 <__umulhisi3>
    2dda:	a5 9f       	mul	r26, r21
    2ddc:	90 0d       	add	r25, r0
    2dde:	b4 9f       	mul	r27, r20
    2de0:	90 0d       	add	r25, r0
    2de2:	a4 9f       	mul	r26, r20
    2de4:	80 0d       	add	r24, r0
    2de6:	91 1d       	adc	r25, r1
    2de8:	11 24       	eor	r1, r1
    2dea:	08 95       	ret

00002dec <__mulshisi3>:
    2dec:	b7 ff       	sbrs	r27, 7
    2dee:	0c 94 eb 16 	jmp	0x2dd6	; 0x2dd6 <__muluhisi3>

00002df2 <__mulohisi3>:
    2df2:	0e 94 eb 16 	call	0x2dd6	; 0x2dd6 <__muluhisi3>
    2df6:	82 1b       	sub	r24, r18
    2df8:	93 0b       	sbc	r25, r19
    2dfa:	08 95       	ret

00002dfc <__prologue_saves__>:
    2dfc:	2f 92       	push	r2
    2dfe:	3f 92       	push	r3
    2e00:	4f 92       	push	r4
    2e02:	5f 92       	push	r5
    2e04:	6f 92       	push	r6
    2e06:	7f 92       	push	r7
    2e08:	8f 92       	push	r8
    2e0a:	9f 92       	push	r9
    2e0c:	af 92       	push	r10
    2e0e:	bf 92       	push	r11
    2e10:	cf 92       	push	r12
    2e12:	df 92       	push	r13
    2e14:	ef 92       	push	r14
    2e16:	ff 92       	push	r15
    2e18:	0f 93       	push	r16
    2e1a:	1f 93       	push	r17
    2e1c:	cf 93       	push	r28
    2e1e:	df 93       	push	r29
    2e20:	cd b7       	in	r28, 0x3d	; 61
    2e22:	de b7       	in	r29, 0x3e	; 62
    2e24:	ca 1b       	sub	r28, r26
    2e26:	db 0b       	sbc	r29, r27
    2e28:	0f b6       	in	r0, 0x3f	; 63
    2e2a:	f8 94       	cli
    2e2c:	de bf       	out	0x3e, r29	; 62
    2e2e:	0f be       	out	0x3f, r0	; 63
    2e30:	cd bf       	out	0x3d, r28	; 61
    2e32:	09 94       	ijmp

00002e34 <__epilogue_restores__>:
    2e34:	2a 88       	ldd	r2, Y+18	; 0x12
    2e36:	39 88       	ldd	r3, Y+17	; 0x11
    2e38:	48 88       	ldd	r4, Y+16	; 0x10
    2e3a:	5f 84       	ldd	r5, Y+15	; 0x0f
    2e3c:	6e 84       	ldd	r6, Y+14	; 0x0e
    2e3e:	7d 84       	ldd	r7, Y+13	; 0x0d
    2e40:	8c 84       	ldd	r8, Y+12	; 0x0c
    2e42:	9b 84       	ldd	r9, Y+11	; 0x0b
    2e44:	aa 84       	ldd	r10, Y+10	; 0x0a
    2e46:	b9 84       	ldd	r11, Y+9	; 0x09
    2e48:	c8 84       	ldd	r12, Y+8	; 0x08
    2e4a:	df 80       	ldd	r13, Y+7	; 0x07
    2e4c:	ee 80       	ldd	r14, Y+6	; 0x06
    2e4e:	fd 80       	ldd	r15, Y+5	; 0x05
    2e50:	0c 81       	ldd	r16, Y+4	; 0x04
    2e52:	1b 81       	ldd	r17, Y+3	; 0x03
    2e54:	aa 81       	ldd	r26, Y+2	; 0x02
    2e56:	b9 81       	ldd	r27, Y+1	; 0x01
    2e58:	ce 0f       	add	r28, r30
    2e5a:	d1 1d       	adc	r29, r1
    2e5c:	0f b6       	in	r0, 0x3f	; 63
    2e5e:	f8 94       	cli
    2e60:	de bf       	out	0x3e, r29	; 62
    2e62:	0f be       	out	0x3f, r0	; 63
    2e64:	cd bf       	out	0x3d, r28	; 61
    2e66:	ed 01       	movw	r28, r26
    2e68:	08 95       	ret

00002e6a <__udivmodhi4>:
    2e6a:	aa 1b       	sub	r26, r26
    2e6c:	bb 1b       	sub	r27, r27
    2e6e:	51 e1       	ldi	r21, 0x11	; 17
    2e70:	07 c0       	rjmp	.+14     	; 0x2e80 <__udivmodhi4_ep>

00002e72 <__udivmodhi4_loop>:
    2e72:	aa 1f       	adc	r26, r26
    2e74:	bb 1f       	adc	r27, r27
    2e76:	a6 17       	cp	r26, r22
    2e78:	b7 07       	cpc	r27, r23
    2e7a:	10 f0       	brcs	.+4      	; 0x2e80 <__udivmodhi4_ep>
    2e7c:	a6 1b       	sub	r26, r22
    2e7e:	b7 0b       	sbc	r27, r23

00002e80 <__udivmodhi4_ep>:
    2e80:	88 1f       	adc	r24, r24
    2e82:	99 1f       	adc	r25, r25
    2e84:	5a 95       	dec	r21
    2e86:	a9 f7       	brne	.-22     	; 0x2e72 <__udivmodhi4_loop>
    2e88:	80 95       	com	r24
    2e8a:	90 95       	com	r25
    2e8c:	bc 01       	movw	r22, r24
    2e8e:	cd 01       	movw	r24, r26
    2e90:	08 95       	ret

00002e92 <__ftoa_engine>:
    2e92:	28 30       	cpi	r18, 0x08	; 8
    2e94:	08 f0       	brcs	.+2      	; 0x2e98 <__ftoa_engine+0x6>
    2e96:	27 e0       	ldi	r18, 0x07	; 7
    2e98:	33 27       	eor	r19, r19
    2e9a:	da 01       	movw	r26, r20
    2e9c:	99 0f       	add	r25, r25
    2e9e:	31 1d       	adc	r19, r1
    2ea0:	87 fd       	sbrc	r24, 7
    2ea2:	91 60       	ori	r25, 0x01	; 1
    2ea4:	00 96       	adiw	r24, 0x00	; 0
    2ea6:	61 05       	cpc	r22, r1
    2ea8:	71 05       	cpc	r23, r1
    2eaa:	39 f4       	brne	.+14     	; 0x2eba <__ftoa_engine+0x28>
    2eac:	32 60       	ori	r19, 0x02	; 2
    2eae:	2e 5f       	subi	r18, 0xFE	; 254
    2eb0:	3d 93       	st	X+, r19
    2eb2:	30 e3       	ldi	r19, 0x30	; 48
    2eb4:	2a 95       	dec	r18
    2eb6:	e1 f7       	brne	.-8      	; 0x2eb0 <__ftoa_engine+0x1e>
    2eb8:	08 95       	ret
    2eba:	9f 3f       	cpi	r25, 0xFF	; 255
    2ebc:	30 f0       	brcs	.+12     	; 0x2eca <__ftoa_engine+0x38>
    2ebe:	80 38       	cpi	r24, 0x80	; 128
    2ec0:	71 05       	cpc	r23, r1
    2ec2:	61 05       	cpc	r22, r1
    2ec4:	09 f0       	breq	.+2      	; 0x2ec8 <__ftoa_engine+0x36>
    2ec6:	3c 5f       	subi	r19, 0xFC	; 252
    2ec8:	3c 5f       	subi	r19, 0xFC	; 252
    2eca:	3d 93       	st	X+, r19
    2ecc:	91 30       	cpi	r25, 0x01	; 1
    2ece:	08 f0       	brcs	.+2      	; 0x2ed2 <__ftoa_engine+0x40>
    2ed0:	80 68       	ori	r24, 0x80	; 128
    2ed2:	91 1d       	adc	r25, r1
    2ed4:	df 93       	push	r29
    2ed6:	cf 93       	push	r28
    2ed8:	1f 93       	push	r17
    2eda:	0f 93       	push	r16
    2edc:	ff 92       	push	r15
    2ede:	ef 92       	push	r14
    2ee0:	19 2f       	mov	r17, r25
    2ee2:	98 7f       	andi	r25, 0xF8	; 248
    2ee4:	96 95       	lsr	r25
    2ee6:	e9 2f       	mov	r30, r25
    2ee8:	96 95       	lsr	r25
    2eea:	96 95       	lsr	r25
    2eec:	e9 0f       	add	r30, r25
    2eee:	ff 27       	eor	r31, r31
    2ef0:	e2 50       	subi	r30, 0x02	; 2
    2ef2:	ff 4f       	sbci	r31, 0xFF	; 255
    2ef4:	99 27       	eor	r25, r25
    2ef6:	33 27       	eor	r19, r19
    2ef8:	ee 24       	eor	r14, r14
    2efa:	ff 24       	eor	r15, r15
    2efc:	a7 01       	movw	r20, r14
    2efe:	e7 01       	movw	r28, r14
    2f00:	05 90       	lpm	r0, Z+
    2f02:	08 94       	sec
    2f04:	07 94       	ror	r0
    2f06:	28 f4       	brcc	.+10     	; 0x2f12 <__ftoa_engine+0x80>
    2f08:	36 0f       	add	r19, r22
    2f0a:	e7 1e       	adc	r14, r23
    2f0c:	f8 1e       	adc	r15, r24
    2f0e:	49 1f       	adc	r20, r25
    2f10:	51 1d       	adc	r21, r1
    2f12:	66 0f       	add	r22, r22
    2f14:	77 1f       	adc	r23, r23
    2f16:	88 1f       	adc	r24, r24
    2f18:	99 1f       	adc	r25, r25
    2f1a:	06 94       	lsr	r0
    2f1c:	a1 f7       	brne	.-24     	; 0x2f06 <__ftoa_engine+0x74>
    2f1e:	05 90       	lpm	r0, Z+
    2f20:	07 94       	ror	r0
    2f22:	28 f4       	brcc	.+10     	; 0x2f2e <__ftoa_engine+0x9c>
    2f24:	e7 0e       	add	r14, r23
    2f26:	f8 1e       	adc	r15, r24
    2f28:	49 1f       	adc	r20, r25
    2f2a:	56 1f       	adc	r21, r22
    2f2c:	c1 1d       	adc	r28, r1
    2f2e:	77 0f       	add	r23, r23
    2f30:	88 1f       	adc	r24, r24
    2f32:	99 1f       	adc	r25, r25
    2f34:	66 1f       	adc	r22, r22
    2f36:	06 94       	lsr	r0
    2f38:	a1 f7       	brne	.-24     	; 0x2f22 <__ftoa_engine+0x90>
    2f3a:	05 90       	lpm	r0, Z+
    2f3c:	07 94       	ror	r0
    2f3e:	28 f4       	brcc	.+10     	; 0x2f4a <__ftoa_engine+0xb8>
    2f40:	f8 0e       	add	r15, r24
    2f42:	49 1f       	adc	r20, r25
    2f44:	56 1f       	adc	r21, r22
    2f46:	c7 1f       	adc	r28, r23
    2f48:	d1 1d       	adc	r29, r1
    2f4a:	88 0f       	add	r24, r24
    2f4c:	99 1f       	adc	r25, r25
    2f4e:	66 1f       	adc	r22, r22
    2f50:	77 1f       	adc	r23, r23
    2f52:	06 94       	lsr	r0
    2f54:	a1 f7       	brne	.-24     	; 0x2f3e <__ftoa_engine+0xac>
    2f56:	05 90       	lpm	r0, Z+
    2f58:	07 94       	ror	r0
    2f5a:	20 f4       	brcc	.+8      	; 0x2f64 <__ftoa_engine+0xd2>
    2f5c:	49 0f       	add	r20, r25
    2f5e:	56 1f       	adc	r21, r22
    2f60:	c7 1f       	adc	r28, r23
    2f62:	d8 1f       	adc	r29, r24
    2f64:	99 0f       	add	r25, r25
    2f66:	66 1f       	adc	r22, r22
    2f68:	77 1f       	adc	r23, r23
    2f6a:	88 1f       	adc	r24, r24
    2f6c:	06 94       	lsr	r0
    2f6e:	a9 f7       	brne	.-22     	; 0x2f5a <__ftoa_engine+0xc8>
    2f70:	84 91       	lpm	r24, Z
    2f72:	10 95       	com	r17
    2f74:	17 70       	andi	r17, 0x07	; 7
    2f76:	41 f0       	breq	.+16     	; 0x2f88 <__ftoa_engine+0xf6>
    2f78:	d6 95       	lsr	r29
    2f7a:	c7 95       	ror	r28
    2f7c:	57 95       	ror	r21
    2f7e:	47 95       	ror	r20
    2f80:	f7 94       	ror	r15
    2f82:	e7 94       	ror	r14
    2f84:	1a 95       	dec	r17
    2f86:	c1 f7       	brne	.-16     	; 0x2f78 <__ftoa_engine+0xe6>
    2f88:	e4 ea       	ldi	r30, 0xA4	; 164
    2f8a:	f0 e0       	ldi	r31, 0x00	; 0
    2f8c:	68 94       	set
    2f8e:	15 90       	lpm	r1, Z+
    2f90:	15 91       	lpm	r17, Z+
    2f92:	35 91       	lpm	r19, Z+
    2f94:	65 91       	lpm	r22, Z+
    2f96:	95 91       	lpm	r25, Z+
    2f98:	05 90       	lpm	r0, Z+
    2f9a:	7f e2       	ldi	r23, 0x2F	; 47
    2f9c:	73 95       	inc	r23
    2f9e:	e1 18       	sub	r14, r1
    2fa0:	f1 0a       	sbc	r15, r17
    2fa2:	43 0b       	sbc	r20, r19
    2fa4:	56 0b       	sbc	r21, r22
    2fa6:	c9 0b       	sbc	r28, r25
    2fa8:	d0 09       	sbc	r29, r0
    2faa:	c0 f7       	brcc	.-16     	; 0x2f9c <__ftoa_engine+0x10a>
    2fac:	e1 0c       	add	r14, r1
    2fae:	f1 1e       	adc	r15, r17
    2fb0:	43 1f       	adc	r20, r19
    2fb2:	56 1f       	adc	r21, r22
    2fb4:	c9 1f       	adc	r28, r25
    2fb6:	d0 1d       	adc	r29, r0
    2fb8:	7e f4       	brtc	.+30     	; 0x2fd8 <__ftoa_engine+0x146>
    2fba:	70 33       	cpi	r23, 0x30	; 48
    2fbc:	11 f4       	brne	.+4      	; 0x2fc2 <__ftoa_engine+0x130>
    2fbe:	8a 95       	dec	r24
    2fc0:	e6 cf       	rjmp	.-52     	; 0x2f8e <__ftoa_engine+0xfc>
    2fc2:	e8 94       	clt
    2fc4:	01 50       	subi	r16, 0x01	; 1
    2fc6:	30 f0       	brcs	.+12     	; 0x2fd4 <__ftoa_engine+0x142>
    2fc8:	08 0f       	add	r16, r24
    2fca:	0a f4       	brpl	.+2      	; 0x2fce <__ftoa_engine+0x13c>
    2fcc:	00 27       	eor	r16, r16
    2fce:	02 17       	cp	r16, r18
    2fd0:	08 f4       	brcc	.+2      	; 0x2fd4 <__ftoa_engine+0x142>
    2fd2:	20 2f       	mov	r18, r16
    2fd4:	23 95       	inc	r18
    2fd6:	02 2f       	mov	r16, r18
    2fd8:	7a 33       	cpi	r23, 0x3A	; 58
    2fda:	28 f0       	brcs	.+10     	; 0x2fe6 <__ftoa_engine+0x154>
    2fdc:	79 e3       	ldi	r23, 0x39	; 57
    2fde:	7d 93       	st	X+, r23
    2fe0:	2a 95       	dec	r18
    2fe2:	e9 f7       	brne	.-6      	; 0x2fde <__ftoa_engine+0x14c>
    2fe4:	10 c0       	rjmp	.+32     	; 0x3006 <__ftoa_engine+0x174>
    2fe6:	7d 93       	st	X+, r23
    2fe8:	2a 95       	dec	r18
    2fea:	89 f6       	brne	.-94     	; 0x2f8e <__ftoa_engine+0xfc>
    2fec:	06 94       	lsr	r0
    2fee:	97 95       	ror	r25
    2ff0:	67 95       	ror	r22
    2ff2:	37 95       	ror	r19
    2ff4:	17 95       	ror	r17
    2ff6:	17 94       	ror	r1
    2ff8:	e1 18       	sub	r14, r1
    2ffa:	f1 0a       	sbc	r15, r17
    2ffc:	43 0b       	sbc	r20, r19
    2ffe:	56 0b       	sbc	r21, r22
    3000:	c9 0b       	sbc	r28, r25
    3002:	d0 09       	sbc	r29, r0
    3004:	98 f0       	brcs	.+38     	; 0x302c <__ftoa_engine+0x19a>
    3006:	23 95       	inc	r18
    3008:	7e 91       	ld	r23, -X
    300a:	73 95       	inc	r23
    300c:	7a 33       	cpi	r23, 0x3A	; 58
    300e:	08 f0       	brcs	.+2      	; 0x3012 <__ftoa_engine+0x180>
    3010:	70 e3       	ldi	r23, 0x30	; 48
    3012:	7c 93       	st	X, r23
    3014:	20 13       	cpse	r18, r16
    3016:	b8 f7       	brcc	.-18     	; 0x3006 <__ftoa_engine+0x174>
    3018:	7e 91       	ld	r23, -X
    301a:	70 61       	ori	r23, 0x10	; 16
    301c:	7d 93       	st	X+, r23
    301e:	30 f0       	brcs	.+12     	; 0x302c <__ftoa_engine+0x19a>
    3020:	83 95       	inc	r24
    3022:	71 e3       	ldi	r23, 0x31	; 49
    3024:	7d 93       	st	X+, r23
    3026:	70 e3       	ldi	r23, 0x30	; 48
    3028:	2a 95       	dec	r18
    302a:	e1 f7       	brne	.-8      	; 0x3024 <__ftoa_engine+0x192>
    302c:	11 24       	eor	r1, r1
    302e:	ef 90       	pop	r14
    3030:	ff 90       	pop	r15
    3032:	0f 91       	pop	r16
    3034:	1f 91       	pop	r17
    3036:	cf 91       	pop	r28
    3038:	df 91       	pop	r29
    303a:	99 27       	eor	r25, r25
    303c:	87 fd       	sbrc	r24, 7
    303e:	90 95       	com	r25
    3040:	08 95       	ret

00003042 <memcpy_P>:
    3042:	fb 01       	movw	r30, r22
    3044:	dc 01       	movw	r26, r24
    3046:	02 c0       	rjmp	.+4      	; 0x304c <memcpy_P+0xa>
    3048:	05 90       	lpm	r0, Z+
    304a:	0d 92       	st	X+, r0
    304c:	41 50       	subi	r20, 0x01	; 1
    304e:	50 40       	sbci	r21, 0x00	; 0
    3050:	d8 f7       	brcc	.-10     	; 0x3048 <memcpy_P+0x6>
    3052:	08 95       	ret

00003054 <strnlen_P>:
    3054:	fc 01       	movw	r30, r24
    3056:	05 90       	lpm	r0, Z+
    3058:	61 50       	subi	r22, 0x01	; 1
    305a:	70 40       	sbci	r23, 0x00	; 0
    305c:	01 10       	cpse	r0, r1
    305e:	d8 f7       	brcc	.-10     	; 0x3056 <strnlen_P+0x2>
    3060:	80 95       	com	r24
    3062:	90 95       	com	r25
    3064:	8e 0f       	add	r24, r30
    3066:	9f 1f       	adc	r25, r31
    3068:	08 95       	ret

0000306a <strcat>:
    306a:	fb 01       	movw	r30, r22
    306c:	dc 01       	movw	r26, r24
    306e:	0d 90       	ld	r0, X+
    3070:	00 20       	and	r0, r0
    3072:	e9 f7       	brne	.-6      	; 0x306e <strcat+0x4>
    3074:	11 97       	sbiw	r26, 0x01	; 1
    3076:	01 90       	ld	r0, Z+
    3078:	0d 92       	st	X+, r0
    307a:	00 20       	and	r0, r0
    307c:	e1 f7       	brne	.-8      	; 0x3076 <strcat+0xc>
    307e:	08 95       	ret

00003080 <strcpy>:
    3080:	fb 01       	movw	r30, r22
    3082:	dc 01       	movw	r26, r24
    3084:	01 90       	ld	r0, Z+
    3086:	0d 92       	st	X+, r0
    3088:	00 20       	and	r0, r0
    308a:	e1 f7       	brne	.-8      	; 0x3084 <strcpy+0x4>
    308c:	08 95       	ret

0000308e <strnlen>:
    308e:	fc 01       	movw	r30, r24
    3090:	61 50       	subi	r22, 0x01	; 1
    3092:	70 40       	sbci	r23, 0x00	; 0
    3094:	01 90       	ld	r0, Z+
    3096:	01 10       	cpse	r0, r1
    3098:	d8 f7       	brcc	.-10     	; 0x3090 <strnlen+0x2>
    309a:	80 95       	com	r24
    309c:	90 95       	com	r25
    309e:	8e 0f       	add	r24, r30
    30a0:	9f 1f       	adc	r25, r31
    30a2:	08 95       	ret

000030a4 <strstr>:
    30a4:	fb 01       	movw	r30, r22
    30a6:	51 91       	ld	r21, Z+
    30a8:	55 23       	and	r21, r21
    30aa:	a9 f0       	breq	.+42     	; 0x30d6 <strstr+0x32>
    30ac:	bf 01       	movw	r22, r30
    30ae:	dc 01       	movw	r26, r24
    30b0:	4d 91       	ld	r20, X+
    30b2:	45 17       	cp	r20, r21
    30b4:	41 11       	cpse	r20, r1
    30b6:	e1 f7       	brne	.-8      	; 0x30b0 <strstr+0xc>
    30b8:	59 f4       	brne	.+22     	; 0x30d0 <strstr+0x2c>
    30ba:	cd 01       	movw	r24, r26
    30bc:	01 90       	ld	r0, Z+
    30be:	00 20       	and	r0, r0
    30c0:	49 f0       	breq	.+18     	; 0x30d4 <strstr+0x30>
    30c2:	4d 91       	ld	r20, X+
    30c4:	40 15       	cp	r20, r0
    30c6:	41 11       	cpse	r20, r1
    30c8:	c9 f3       	breq	.-14     	; 0x30bc <strstr+0x18>
    30ca:	fb 01       	movw	r30, r22
    30cc:	41 11       	cpse	r20, r1
    30ce:	ef cf       	rjmp	.-34     	; 0x30ae <strstr+0xa>
    30d0:	81 e0       	ldi	r24, 0x01	; 1
    30d2:	90 e0       	ldi	r25, 0x00	; 0
    30d4:	01 97       	sbiw	r24, 0x01	; 1
    30d6:	08 95       	ret

000030d8 <fputc>:
    30d8:	0f 93       	push	r16
    30da:	1f 93       	push	r17
    30dc:	cf 93       	push	r28
    30de:	df 93       	push	r29
    30e0:	fb 01       	movw	r30, r22
    30e2:	23 81       	ldd	r18, Z+3	; 0x03
    30e4:	21 fd       	sbrc	r18, 1
    30e6:	03 c0       	rjmp	.+6      	; 0x30ee <fputc+0x16>
    30e8:	8f ef       	ldi	r24, 0xFF	; 255
    30ea:	9f ef       	ldi	r25, 0xFF	; 255
    30ec:	2c c0       	rjmp	.+88     	; 0x3146 <fputc+0x6e>
    30ee:	22 ff       	sbrs	r18, 2
    30f0:	16 c0       	rjmp	.+44     	; 0x311e <fputc+0x46>
    30f2:	46 81       	ldd	r20, Z+6	; 0x06
    30f4:	57 81       	ldd	r21, Z+7	; 0x07
    30f6:	24 81       	ldd	r18, Z+4	; 0x04
    30f8:	35 81       	ldd	r19, Z+5	; 0x05
    30fa:	42 17       	cp	r20, r18
    30fc:	53 07       	cpc	r21, r19
    30fe:	44 f4       	brge	.+16     	; 0x3110 <fputc+0x38>
    3100:	a0 81       	ld	r26, Z
    3102:	b1 81       	ldd	r27, Z+1	; 0x01
    3104:	9d 01       	movw	r18, r26
    3106:	2f 5f       	subi	r18, 0xFF	; 255
    3108:	3f 4f       	sbci	r19, 0xFF	; 255
    310a:	31 83       	std	Z+1, r19	; 0x01
    310c:	20 83       	st	Z, r18
    310e:	8c 93       	st	X, r24
    3110:	26 81       	ldd	r18, Z+6	; 0x06
    3112:	37 81       	ldd	r19, Z+7	; 0x07
    3114:	2f 5f       	subi	r18, 0xFF	; 255
    3116:	3f 4f       	sbci	r19, 0xFF	; 255
    3118:	37 83       	std	Z+7, r19	; 0x07
    311a:	26 83       	std	Z+6, r18	; 0x06
    311c:	14 c0       	rjmp	.+40     	; 0x3146 <fputc+0x6e>
    311e:	8b 01       	movw	r16, r22
    3120:	ec 01       	movw	r28, r24
    3122:	fb 01       	movw	r30, r22
    3124:	00 84       	ldd	r0, Z+8	; 0x08
    3126:	f1 85       	ldd	r31, Z+9	; 0x09
    3128:	e0 2d       	mov	r30, r0
    312a:	09 95       	icall
    312c:	89 2b       	or	r24, r25
    312e:	e1 f6       	brne	.-72     	; 0x30e8 <fputc+0x10>
    3130:	d8 01       	movw	r26, r16
    3132:	16 96       	adiw	r26, 0x06	; 6
    3134:	8d 91       	ld	r24, X+
    3136:	9c 91       	ld	r25, X
    3138:	17 97       	sbiw	r26, 0x07	; 7
    313a:	01 96       	adiw	r24, 0x01	; 1
    313c:	17 96       	adiw	r26, 0x07	; 7
    313e:	9c 93       	st	X, r25
    3140:	8e 93       	st	-X, r24
    3142:	16 97       	sbiw	r26, 0x06	; 6
    3144:	ce 01       	movw	r24, r28
    3146:	df 91       	pop	r29
    3148:	cf 91       	pop	r28
    314a:	1f 91       	pop	r17
    314c:	0f 91       	pop	r16
    314e:	08 95       	ret

00003150 <printf_P>:
    3150:	a0 e0       	ldi	r26, 0x00	; 0
    3152:	b0 e0       	ldi	r27, 0x00	; 0
    3154:	ee ea       	ldi	r30, 0xAE	; 174
    3156:	f8 e1       	ldi	r31, 0x18	; 24
    3158:	0c 94 0c 17 	jmp	0x2e18	; 0x2e18 <__prologue_saves__+0x1c>
    315c:	ae 01       	movw	r20, r28
    315e:	49 5f       	subi	r20, 0xF9	; 249
    3160:	5f 4f       	sbci	r21, 0xFF	; 255
    3162:	da 01       	movw	r26, r20
    3164:	6d 91       	ld	r22, X+
    3166:	7d 91       	ld	r23, X+
    3168:	ad 01       	movw	r20, r26
    316a:	0b e7       	ldi	r16, 0x7B	; 123
    316c:	12 e0       	ldi	r17, 0x02	; 2
    316e:	f8 01       	movw	r30, r16
    3170:	82 81       	ldd	r24, Z+2	; 0x02
    3172:	93 81       	ldd	r25, Z+3	; 0x03
    3174:	dc 01       	movw	r26, r24
    3176:	13 96       	adiw	r26, 0x03	; 3
    3178:	2c 91       	ld	r18, X
    317a:	13 97       	sbiw	r26, 0x03	; 3
    317c:	28 60       	ori	r18, 0x08	; 8
    317e:	13 96       	adiw	r26, 0x03	; 3
    3180:	2c 93       	st	X, r18
    3182:	0e 94 45 13 	call	0x268a	; 0x268a <vfprintf>
    3186:	d8 01       	movw	r26, r16
    3188:	12 96       	adiw	r26, 0x02	; 2
    318a:	ed 91       	ld	r30, X+
    318c:	fc 91       	ld	r31, X
    318e:	13 97       	sbiw	r26, 0x03	; 3
    3190:	23 81       	ldd	r18, Z+3	; 0x03
    3192:	27 7f       	andi	r18, 0xF7	; 247
    3194:	23 83       	std	Z+3, r18	; 0x03
    3196:	e4 e0       	ldi	r30, 0x04	; 4
    3198:	0c 94 28 17 	jmp	0x2e50	; 0x2e50 <__epilogue_restores__+0x1c>

0000319c <sprintf_P>:
    319c:	ae e0       	ldi	r26, 0x0E	; 14
    319e:	b0 e0       	ldi	r27, 0x00	; 0
    31a0:	e4 ed       	ldi	r30, 0xD4	; 212
    31a2:	f8 e1       	ldi	r31, 0x18	; 24
    31a4:	0c 94 0c 17 	jmp	0x2e18	; 0x2e18 <__prologue_saves__+0x1c>
    31a8:	0d 89       	ldd	r16, Y+21	; 0x15
    31aa:	1e 89       	ldd	r17, Y+22	; 0x16
    31ac:	8e e0       	ldi	r24, 0x0E	; 14
    31ae:	8c 83       	std	Y+4, r24	; 0x04
    31b0:	1a 83       	std	Y+2, r17	; 0x02
    31b2:	09 83       	std	Y+1, r16	; 0x01
    31b4:	8f ef       	ldi	r24, 0xFF	; 255
    31b6:	9f e7       	ldi	r25, 0x7F	; 127
    31b8:	9e 83       	std	Y+6, r25	; 0x06
    31ba:	8d 83       	std	Y+5, r24	; 0x05
    31bc:	ae 01       	movw	r20, r28
    31be:	47 5e       	subi	r20, 0xE7	; 231
    31c0:	5f 4f       	sbci	r21, 0xFF	; 255
    31c2:	6f 89       	ldd	r22, Y+23	; 0x17
    31c4:	78 8d       	ldd	r23, Y+24	; 0x18
    31c6:	ce 01       	movw	r24, r28
    31c8:	01 96       	adiw	r24, 0x01	; 1
    31ca:	0e 94 45 13 	call	0x268a	; 0x268a <vfprintf>
    31ce:	ef 81       	ldd	r30, Y+7	; 0x07
    31d0:	f8 85       	ldd	r31, Y+8	; 0x08
    31d2:	e0 0f       	add	r30, r16
    31d4:	f1 1f       	adc	r31, r17
    31d6:	10 82       	st	Z, r1
    31d8:	2e 96       	adiw	r28, 0x0e	; 14
    31da:	e4 e0       	ldi	r30, 0x04	; 4
    31dc:	0c 94 28 17 	jmp	0x2e50	; 0x2e50 <__epilogue_restores__+0x1c>

000031e0 <vfprintf_P>:
    31e0:	cf 93       	push	r28
    31e2:	df 93       	push	r29
    31e4:	ec 01       	movw	r28, r24
    31e6:	8b 81       	ldd	r24, Y+3	; 0x03
    31e8:	88 60       	ori	r24, 0x08	; 8
    31ea:	8b 83       	std	Y+3, r24	; 0x03
    31ec:	ce 01       	movw	r24, r28
    31ee:	0e 94 45 13 	call	0x268a	; 0x268a <vfprintf>
    31f2:	2b 81       	ldd	r18, Y+3	; 0x03
    31f4:	27 7f       	andi	r18, 0xF7	; 247
    31f6:	2b 83       	std	Y+3, r18	; 0x03
    31f8:	df 91       	pop	r29
    31fa:	cf 91       	pop	r28
    31fc:	08 95       	ret

000031fe <__ultoa_invert>:
    31fe:	fa 01       	movw	r30, r20
    3200:	aa 27       	eor	r26, r26
    3202:	28 30       	cpi	r18, 0x08	; 8
    3204:	51 f1       	breq	.+84     	; 0x325a <__ultoa_invert+0x5c>
    3206:	20 31       	cpi	r18, 0x10	; 16
    3208:	81 f1       	breq	.+96     	; 0x326a <__ultoa_invert+0x6c>
    320a:	e8 94       	clt
    320c:	6f 93       	push	r22
    320e:	6e 7f       	andi	r22, 0xFE	; 254
    3210:	6e 5f       	subi	r22, 0xFE	; 254
    3212:	7f 4f       	sbci	r23, 0xFF	; 255
    3214:	8f 4f       	sbci	r24, 0xFF	; 255
    3216:	9f 4f       	sbci	r25, 0xFF	; 255
    3218:	af 4f       	sbci	r26, 0xFF	; 255
    321a:	b1 e0       	ldi	r27, 0x01	; 1
    321c:	3e d0       	rcall	.+124    	; 0x329a <__ultoa_invert+0x9c>
    321e:	b4 e0       	ldi	r27, 0x04	; 4
    3220:	3c d0       	rcall	.+120    	; 0x329a <__ultoa_invert+0x9c>
    3222:	67 0f       	add	r22, r23
    3224:	78 1f       	adc	r23, r24
    3226:	89 1f       	adc	r24, r25
    3228:	9a 1f       	adc	r25, r26
    322a:	a1 1d       	adc	r26, r1
    322c:	68 0f       	add	r22, r24
    322e:	79 1f       	adc	r23, r25
    3230:	8a 1f       	adc	r24, r26
    3232:	91 1d       	adc	r25, r1
    3234:	a1 1d       	adc	r26, r1
    3236:	6a 0f       	add	r22, r26
    3238:	71 1d       	adc	r23, r1
    323a:	81 1d       	adc	r24, r1
    323c:	91 1d       	adc	r25, r1
    323e:	a1 1d       	adc	r26, r1
    3240:	20 d0       	rcall	.+64     	; 0x3282 <__ultoa_invert+0x84>
    3242:	09 f4       	brne	.+2      	; 0x3246 <__ultoa_invert+0x48>
    3244:	68 94       	set
    3246:	3f 91       	pop	r19
    3248:	2a e0       	ldi	r18, 0x0A	; 10
    324a:	26 9f       	mul	r18, r22
    324c:	11 24       	eor	r1, r1
    324e:	30 19       	sub	r19, r0
    3250:	30 5d       	subi	r19, 0xD0	; 208
    3252:	31 93       	st	Z+, r19
    3254:	de f6       	brtc	.-74     	; 0x320c <__ultoa_invert+0xe>
    3256:	cf 01       	movw	r24, r30
    3258:	08 95       	ret
    325a:	46 2f       	mov	r20, r22
    325c:	47 70       	andi	r20, 0x07	; 7
    325e:	40 5d       	subi	r20, 0xD0	; 208
    3260:	41 93       	st	Z+, r20
    3262:	b3 e0       	ldi	r27, 0x03	; 3
    3264:	0f d0       	rcall	.+30     	; 0x3284 <__ultoa_invert+0x86>
    3266:	c9 f7       	brne	.-14     	; 0x325a <__ultoa_invert+0x5c>
    3268:	f6 cf       	rjmp	.-20     	; 0x3256 <__ultoa_invert+0x58>
    326a:	46 2f       	mov	r20, r22
    326c:	4f 70       	andi	r20, 0x0F	; 15
    326e:	40 5d       	subi	r20, 0xD0	; 208
    3270:	4a 33       	cpi	r20, 0x3A	; 58
    3272:	18 f0       	brcs	.+6      	; 0x327a <__ultoa_invert+0x7c>
    3274:	49 5d       	subi	r20, 0xD9	; 217
    3276:	31 fd       	sbrc	r19, 1
    3278:	40 52       	subi	r20, 0x20	; 32
    327a:	41 93       	st	Z+, r20
    327c:	02 d0       	rcall	.+4      	; 0x3282 <__ultoa_invert+0x84>
    327e:	a9 f7       	brne	.-22     	; 0x326a <__ultoa_invert+0x6c>
    3280:	ea cf       	rjmp	.-44     	; 0x3256 <__ultoa_invert+0x58>
    3282:	b4 e0       	ldi	r27, 0x04	; 4
    3284:	a6 95       	lsr	r26
    3286:	97 95       	ror	r25
    3288:	87 95       	ror	r24
    328a:	77 95       	ror	r23
    328c:	67 95       	ror	r22
    328e:	ba 95       	dec	r27
    3290:	c9 f7       	brne	.-14     	; 0x3284 <__ultoa_invert+0x86>
    3292:	00 97       	sbiw	r24, 0x00	; 0
    3294:	61 05       	cpc	r22, r1
    3296:	71 05       	cpc	r23, r1
    3298:	08 95       	ret
    329a:	9b 01       	movw	r18, r22
    329c:	ac 01       	movw	r20, r24
    329e:	0a 2e       	mov	r0, r26
    32a0:	06 94       	lsr	r0
    32a2:	57 95       	ror	r21
    32a4:	47 95       	ror	r20
    32a6:	37 95       	ror	r19
    32a8:	27 95       	ror	r18
    32aa:	ba 95       	dec	r27
    32ac:	c9 f7       	brne	.-14     	; 0x32a0 <__ultoa_invert+0xa2>
    32ae:	62 0f       	add	r22, r18
    32b0:	73 1f       	adc	r23, r19
    32b2:	84 1f       	adc	r24, r20
    32b4:	95 1f       	adc	r25, r21
    32b6:	a0 1d       	adc	r26, r0
    32b8:	08 95       	ret

000032ba <eeprom_read_block>:
    32ba:	dc 01       	movw	r26, r24
    32bc:	cb 01       	movw	r24, r22

000032be <eeprom_read_blraw>:
    32be:	fc 01       	movw	r30, r24
    32c0:	f9 99       	sbic	0x1f, 1	; 31
    32c2:	fe cf       	rjmp	.-4      	; 0x32c0 <eeprom_read_blraw+0x2>
    32c4:	06 c0       	rjmp	.+12     	; 0x32d2 <eeprom_read_blraw+0x14>
    32c6:	f2 bd       	out	0x22, r31	; 34
    32c8:	e1 bd       	out	0x21, r30	; 33
    32ca:	f8 9a       	sbi	0x1f, 0	; 31
    32cc:	31 96       	adiw	r30, 0x01	; 1
    32ce:	00 b4       	in	r0, 0x20	; 32
    32d0:	0d 92       	st	X+, r0
    32d2:	41 50       	subi	r20, 0x01	; 1
    32d4:	50 40       	sbci	r21, 0x00	; 0
    32d6:	b8 f7       	brcc	.-18     	; 0x32c6 <eeprom_read_blraw+0x8>
    32d8:	08 95       	ret

000032da <eeprom_write_block>:
    32da:	dc 01       	movw	r26, r24
    32dc:	cb 01       	movw	r24, r22
    32de:	03 c0       	rjmp	.+6      	; 0x32e6 <eeprom_write_block+0xc>
    32e0:	2d 91       	ld	r18, X+
    32e2:	0e 94 78 19 	call	0x32f0	; 0x32f0 <eeprom_write_r18>
    32e6:	41 50       	subi	r20, 0x01	; 1
    32e8:	50 40       	sbci	r21, 0x00	; 0
    32ea:	d0 f7       	brcc	.-12     	; 0x32e0 <eeprom_write_block+0x6>
    32ec:	08 95       	ret

000032ee <eeprom_write_byte>:
    32ee:	26 2f       	mov	r18, r22

000032f0 <eeprom_write_r18>:
    32f0:	f9 99       	sbic	0x1f, 1	; 31
    32f2:	fe cf       	rjmp	.-4      	; 0x32f0 <eeprom_write_r18>
    32f4:	1f ba       	out	0x1f, r1	; 31
    32f6:	92 bd       	out	0x22, r25	; 34
    32f8:	81 bd       	out	0x21, r24	; 33
    32fa:	20 bd       	out	0x20, r18	; 32
    32fc:	0f b6       	in	r0, 0x3f	; 63
    32fe:	f8 94       	cli
    3300:	fa 9a       	sbi	0x1f, 2	; 31
    3302:	f9 9a       	sbi	0x1f, 1	; 31
    3304:	0f be       	out	0x3f, r0	; 63
    3306:	01 96       	adiw	r24, 0x01	; 1
    3308:	08 95       	ret

0000330a <_exit>:
    330a:	f8 94       	cli

0000330c <__stop_program>:
    330c:	ff cf       	rjmp	.-2      	; 0x330c <__stop_program>
