
03 Tile Detection.elf:     file format elf32-avr

Sections:
Idx Name          Size      VMA       LMA       File off  Algn
  0 .data         00000032  00800100  0000226e  00002302  2**0
                  CONTENTS, ALLOC, LOAD, DATA
  1 .text         0000226e  00000000  00000000  00000094  2**1
                  CONTENTS, ALLOC, LOAD, READONLY, CODE
  2 .bss          000000de  00800132  00800132  00002334  2**0
                  ALLOC
  3 .comment      0000005c  00000000  00000000  00002334  2**0
                  CONTENTS, READONLY
  4 .note.gnu.avr.deviceinfo 00000040  00000000  00000000  00002390  2**2
                  CONTENTS, READONLY
  5 .debug_aranges 00000350  00000000  00000000  000023d0  2**0
                  CONTENTS, READONLY, DEBUGGING
  6 .debug_info   0000418e  00000000  00000000  00002720  2**0
                  CONTENTS, READONLY, DEBUGGING
  7 .debug_abbrev 0000161d  00000000  00000000  000068ae  2**0
                  CONTENTS, READONLY, DEBUGGING
  8 .debug_line   00001e93  00000000  00000000  00007ecb  2**0
                  CONTENTS, READONLY, DEBUGGING
  9 .debug_frame  00000924  00000000  00000000  00009d60  2**2
                  CONTENTS, READONLY, DEBUGGING
 10 .debug_str    00001046  00000000  00000000  0000a684  2**0
                  CONTENTS, READONLY, DEBUGGING
 11 .debug_loc    00001a99  00000000  00000000  0000b6ca  2**0
                  CONTENTS, READONLY, DEBUGGING
 12 .debug_ranges 000002f0  00000000  00000000  0000d163  2**0
                  CONTENTS, READONLY, DEBUGGING

Disassembly of section .text:

00000000 <__vectors>:
       0:	0c 94 bf 00 	jmp	0x17e	; 0x17e <__ctors_end>
       4:	0c 94 cc 0b 	jmp	0x1798	; 0x1798 <__vector_1>
       8:	0c 94 f8 0b 	jmp	0x17f0	; 0x17f0 <__vector_2>
       c:	0c 94 dc 00 	jmp	0x1b8	; 0x1b8 <__bad_interrupt>
      10:	0c 94 dc 00 	jmp	0x1b8	; 0x1b8 <__bad_interrupt>
      14:	0c 94 dc 00 	jmp	0x1b8	; 0x1b8 <__bad_interrupt>
      18:	0c 94 dc 00 	jmp	0x1b8	; 0x1b8 <__bad_interrupt>
      1c:	0c 94 dc 00 	jmp	0x1b8	; 0x1b8 <__bad_interrupt>
      20:	0c 94 dc 00 	jmp	0x1b8	; 0x1b8 <__bad_interrupt>
      24:	0c 94 dc 00 	jmp	0x1b8	; 0x1b8 <__bad_interrupt>
      28:	0c 94 dc 00 	jmp	0x1b8	; 0x1b8 <__bad_interrupt>
      2c:	0c 94 dc 00 	jmp	0x1b8	; 0x1b8 <__bad_interrupt>
      30:	0c 94 dc 00 	jmp	0x1b8	; 0x1b8 <__bad_interrupt>
      34:	0c 94 dc 00 	jmp	0x1b8	; 0x1b8 <__bad_interrupt>
      38:	0c 94 dc 00 	jmp	0x1b8	; 0x1b8 <__bad_interrupt>
      3c:	0c 94 dc 00 	jmp	0x1b8	; 0x1b8 <__bad_interrupt>
      40:	0c 94 49 0a 	jmp	0x1492	; 0x1492 <__vector_16>
      44:	0c 94 dc 00 	jmp	0x1b8	; 0x1b8 <__bad_interrupt>
      48:	0c 94 dc 00 	jmp	0x1b8	; 0x1b8 <__bad_interrupt>
      4c:	0c 94 dc 00 	jmp	0x1b8	; 0x1b8 <__bad_interrupt>
      50:	0c 94 c4 0a 	jmp	0x1588	; 0x1588 <__vector_20>
      54:	0c 94 f2 0a 	jmp	0x15e4	; 0x15e4 <__vector_21>
      58:	0c 94 dc 00 	jmp	0x1b8	; 0x1b8 <__bad_interrupt>
      5c:	0c 94 dc 00 	jmp	0x1b8	; 0x1b8 <__bad_interrupt>
      60:	0c 94 dc 00 	jmp	0x1b8	; 0x1b8 <__bad_interrupt>
      64:	0c 94 dc 00 	jmp	0x1b8	; 0x1b8 <__bad_interrupt>
      68:	0c 94 dc 00 	jmp	0x1b8	; 0x1b8 <__bad_interrupt>
      6c:	0c 94 dc 00 	jmp	0x1b8	; 0x1b8 <__bad_interrupt>
      70:	0c 94 6b 0b 	jmp	0x16d6	; 0x16d6 <__vector_28>
      74:	0c 94 99 0b 	jmp	0x1732	; 0x1732 <__vector_29>
      78:	0c 94 dc 00 	jmp	0x1b8	; 0x1b8 <__bad_interrupt>
      7c:	6e 05       	cpc	r22, r14
      7e:	9e 05       	cpc	r25, r14
      80:	ae 05       	cpc	r26, r14
      82:	be 05       	cpc	r27, r14
      84:	8e 05       	cpc	r24, r14
      86:	ce 05       	cpc	r28, r14
      88:	de 05       	cpc	r29, r14
      8a:	7e 05       	cpc	r23, r14

0000008c <__trampolines_end>:
      8c:	0a 0a       	sbc	r0, r26
      8e:	50 72       	andi	r21, 0x20	; 32
      90:	6f 67       	ori	r22, 0x7F	; 127
      92:	72 61       	ori	r23, 0x12	; 18
      94:	6d 6d       	ori	r22, 0xDD	; 221
      96:	20 54       	subi	r18, 0x40	; 64
      98:	69 6c       	ori	r22, 0xC9	; 201
      9a:	65 20       	and	r6, r5
      9c:	64 65       	ori	r22, 0x54	; 84
      9e:	74 65       	ori	r23, 0x54	; 84
      a0:	63 74       	andi	r22, 0x43	; 67
      a2:	69 6f       	ori	r22, 0xF9	; 249
      a4:	6e 2e       	mov	r6, r30
	...

000000a7 <__c.2246>:
      a7:	0a 44 72 75 65 63 6b 65 20 53 74 61 72 74 6b 6e     .Druecke Startkn
      b7:	6f 70 66 20 75 6d 20 7a 75 20 73 74 61 72 74 65     opf um zu starte
      c7:	6e 2e 00                                            n..

000000ca <__c.2258>:
      ca:	0a 44 72 69 76 65 20 46 6f 72 77 61 72 64 00        .Drive Forward.

000000d9 <__c.2294>:
      d9:	0a 4d 6f 76 65 3a 20 00                             .Move: .

000000e1 <__c.2306>:
      e1:	0a 45 72 72 6f 72 20 73 74 61 74 65 2e 00           .Error state..

000000ef <__c.2308>:
      ef:	0a 42 61 74 74 3a 00                                .Batt:.

000000f6 <__c.2202>:
      f6:	0a 50 61 74 74 65 72 6e 3a 20 00                    .Pattern: .

00000101 <__c.2215>:
     101:	0a 49 6e 74 65 72 73 65 63 74 69 6f 6e 3a 20 00     .Intersection: .

00000111 <__c.2218>:
     111:	44 65 61 64 20 45 6e 64 00                          Dead End.

0000011a <__c.2222>:
     11a:	46 69 6e 69 73 68 00                                Finish.

00000121 <__c.2225>:
     121:	46 6f 75 72 20 57 61 79 00                          Four Way.

0000012a <__c.2228>:
     12a:	4c 65 66 74 00                                      Left.

0000012f <__c.2231>:
     12f:	52 69 67 68 74 00                                   Right.

00000135 <__c.2234>:
     135:	54 2d 57 61 79 00                                   T-Way.

0000013b <__c.2237>:
     13b:	53 74 72 61 69 67 68 74 20 4c 65 66 74 00           Straight Left.

00000149 <__c.2240>:
     149:	53 74 72 61 69 67 68 74 20 52 69 67 68 74 00        Straight Right.

00000158 <__c.2243>:
     158:	55 6e 6b 6e 6f 77 6e 00                             Unknown.

00000160 <__c.2346>:
     160:	0a 4c 6f 77 20 42 61 74 74 65 72 79 20 2d 3e 20     .Low Battery -> 
     170:	67 6f 69 6e 67 20 53 74 61 6e 64 62 79 00           going Standby.

0000017e <__ctors_end>:
     17e:	11 24       	eor	r1, r1
     180:	1f be       	out	0x3f, r1	; 63
     182:	cf ef       	ldi	r28, 0xFF	; 255
     184:	d0 e1       	ldi	r29, 0x10	; 16
     186:	de bf       	out	0x3e, r29	; 62
     188:	cd bf       	out	0x3d, r28	; 61

0000018a <__do_copy_data>:
     18a:	11 e0       	ldi	r17, 0x01	; 1
     18c:	a0 e0       	ldi	r26, 0x00	; 0
     18e:	b1 e0       	ldi	r27, 0x01	; 1
     190:	ee e6       	ldi	r30, 0x6E	; 110
     192:	f2 e2       	ldi	r31, 0x22	; 34
     194:	02 c0       	rjmp	.+4      	; 0x19a <__do_copy_data+0x10>
     196:	05 90       	lpm	r0, Z+
     198:	0d 92       	st	X+, r0
     19a:	a2 33       	cpi	r26, 0x32	; 50
     19c:	b1 07       	cpc	r27, r17
     19e:	d9 f7       	brne	.-10     	; 0x196 <__do_copy_data+0xc>

000001a0 <__do_clear_bss>:
     1a0:	22 e0       	ldi	r18, 0x02	; 2
     1a2:	a2 e3       	ldi	r26, 0x32	; 50
     1a4:	b1 e0       	ldi	r27, 0x01	; 1
     1a6:	01 c0       	rjmp	.+2      	; 0x1aa <.do_clear_bss_start>

000001a8 <.do_clear_bss_loop>:
     1a8:	1d 92       	st	X+, r1

000001aa <.do_clear_bss_start>:
     1aa:	a0 31       	cpi	r26, 0x10	; 16
     1ac:	b2 07       	cpc	r27, r18
     1ae:	e1 f7       	brne	.-8      	; 0x1a8 <.do_clear_bss_loop>
     1b0:	0e 94 92 04 	call	0x924	; 0x924 <main>
     1b4:	0c 94 35 11 	jmp	0x226a	; 0x226a <_exit>

000001b8 <__bad_interrupt>:
     1b8:	0c 94 00 00 	jmp	0	; 0x0 <__vectors>

000001bc <run_state>:
		{
			action(data);
		}
	}
	return new_state;
}
     1bc:	cf 93       	push	r28
     1be:	df 93       	push	r29
     1c0:	00 d0       	rcall	.+0      	; 0x1c2 <run_state+0x6>
     1c2:	00 d0       	rcall	.+0      	; 0x1c4 <run_state+0x8>
     1c4:	00 d0       	rcall	.+0      	; 0x1c6 <run_state+0xa>
     1c6:	cd b7       	in	r28, 0x3d	; 61
     1c8:	de b7       	in	r29, 0x3e	; 62
     1ca:	8c 83       	std	Y+4, r24	; 0x04
     1cc:	7e 83       	std	Y+6, r23	; 0x06
     1ce:	6d 83       	std	Y+5, r22	; 0x05
     1d0:	8c 81       	ldd	r24, Y+4	; 0x04
     1d2:	88 2f       	mov	r24, r24
     1d4:	90 e0       	ldi	r25, 0x00	; 0
     1d6:	88 0f       	add	r24, r24
     1d8:	99 1f       	adc	r25, r25
     1da:	88 5f       	subi	r24, 0xF8	; 248
     1dc:	9e 4f       	sbci	r25, 0xFE	; 254
     1de:	fc 01       	movw	r30, r24
     1e0:	20 81       	ld	r18, Z
     1e2:	31 81       	ldd	r19, Z+1	; 0x01
     1e4:	8d 81       	ldd	r24, Y+5	; 0x05
     1e6:	9e 81       	ldd	r25, Y+6	; 0x06
     1e8:	f9 01       	movw	r30, r18
     1ea:	09 95       	icall
     1ec:	89 83       	std	Y+1, r24	; 0x01
     1ee:	9c 81       	ldd	r25, Y+4	; 0x04
     1f0:	89 81       	ldd	r24, Y+1	; 0x01
     1f2:	98 17       	cp	r25, r24
     1f4:	81 f1       	breq	.+96     	; 0x256 <run_state+0x9a>
     1f6:	8c 81       	ldd	r24, Y+4	; 0x04
     1f8:	88 2f       	mov	r24, r24
     1fa:	90 e0       	ldi	r25, 0x00	; 0
     1fc:	88 0f       	add	r24, r24
     1fe:	99 1f       	adc	r25, r25
     200:	88 0f       	add	r24, r24
     202:	99 1f       	adc	r25, r25
     204:	88 5e       	subi	r24, 0xE8	; 232
     206:	9e 4f       	sbci	r25, 0xFE	; 254
     208:	fc 01       	movw	r30, r24
     20a:	80 81       	ld	r24, Z
     20c:	91 81       	ldd	r25, Z+1	; 0x01
     20e:	9b 83       	std	Y+3, r25	; 0x03
     210:	8a 83       	std	Y+2, r24	; 0x02
     212:	8a 81       	ldd	r24, Y+2	; 0x02
     214:	9b 81       	ldd	r25, Y+3	; 0x03
     216:	89 2b       	or	r24, r25
     218:	31 f0       	breq	.+12     	; 0x226 <run_state+0x6a>
     21a:	8d 81       	ldd	r24, Y+5	; 0x05
     21c:	9e 81       	ldd	r25, Y+6	; 0x06
     21e:	2a 81       	ldd	r18, Y+2	; 0x02
     220:	3b 81       	ldd	r19, Y+3	; 0x03
     222:	f9 01       	movw	r30, r18
     224:	09 95       	icall
     226:	89 81       	ldd	r24, Y+1	; 0x01
     228:	88 2f       	mov	r24, r24
     22a:	90 e0       	ldi	r25, 0x00	; 0
     22c:	88 0f       	add	r24, r24
     22e:	99 1f       	adc	r25, r25
     230:	88 0f       	add	r24, r24
     232:	99 1f       	adc	r25, r25
     234:	8a 5e       	subi	r24, 0xEA	; 234
     236:	9e 4f       	sbci	r25, 0xFE	; 254
     238:	fc 01       	movw	r30, r24
     23a:	80 81       	ld	r24, Z
     23c:	91 81       	ldd	r25, Z+1	; 0x01
     23e:	9b 83       	std	Y+3, r25	; 0x03
     240:	8a 83       	std	Y+2, r24	; 0x02
     242:	8a 81       	ldd	r24, Y+2	; 0x02
     244:	9b 81       	ldd	r25, Y+3	; 0x03
     246:	89 2b       	or	r24, r25
     248:	31 f0       	breq	.+12     	; 0x256 <run_state+0x9a>
     24a:	8d 81       	ldd	r24, Y+5	; 0x05
     24c:	9e 81       	ldd	r25, Y+6	; 0x06
     24e:	2a 81       	ldd	r18, Y+2	; 0x02
     250:	3b 81       	ldd	r19, Y+3	; 0x03
     252:	f9 01       	movw	r30, r18
     254:	09 95       	icall
     256:	89 81       	ldd	r24, Y+1	; 0x01
     258:	26 96       	adiw	r28, 0x06	; 6
     25a:	0f b6       	in	r0, 0x3f	; 63
     25c:	f8 94       	cli
     25e:	de bf       	out	0x3e, r29	; 62
     260:	0f be       	out	0x3f, r0	; 63
     262:	cd bf       	out	0x3d, r28	; 61
     264:	df 91       	pop	r29
     266:	cf 91       	pop	r28
     268:	08 95       	ret

0000026a <fsm_task>:

/*
* 	Haputfunktion der Steuerung.
*/
void fsm_task(void)
{
     26a:	cf 93       	push	r28
     26c:	df 93       	push	r29
     26e:	cd b7       	in	r28, 0x3d	; 61
     270:	de b7       	in	r29, 0x3e	; 62

	
	static state_t steuerungsState = STATE_RESET;

	// Aufrufen des aktuellen States
	steuerungsState = run_state(steuerungsState, &steuerungsDaten);		//Statemachine ausführen
     272:	80 91 32 01 	lds	r24, 0x0132	; 0x800132 <__data_end>
     276:	63 e3       	ldi	r22, 0x33	; 51
     278:	71 e0       	ldi	r23, 0x01	; 1
     27a:	0e 94 de 00 	call	0x1bc	; 0x1bc <run_state>
     27e:	80 93 32 01 	sts	0x0132, r24	; 0x800132 <__data_end>
}
     282:	00 00       	nop
     284:	df 91       	pop	r29
     286:	cf 91       	pop	r28
     288:	08 95       	ret

0000028a <do_state_reset>:
/************************************************************************/
/* STATE Reset                                                          */
/************************************************************************/

state_t do_state_reset(instance_data_t*data)
{
     28a:	cf 93       	push	r28
     28c:	df 93       	push	r29
     28e:	00 d0       	rcall	.+0      	; 0x290 <do_state_reset+0x6>
     290:	cd b7       	in	r28, 0x3d	; 61
     292:	de b7       	in	r29, 0x3e	; 62
     294:	9a 83       	std	Y+2, r25	; 0x02
     296:	89 83       	std	Y+1, r24	; 0x01
	data->byte = 0;
     298:	89 81       	ldd	r24, Y+1	; 0x01
     29a:	9a 81       	ldd	r25, Y+2	; 0x02
     29c:	fc 01       	movw	r30, r24
     29e:	10 82       	st	Z, r1
	//disableDevice(EN_ALL);
	clearLEDBlue();
     2a0:	88 e2       	ldi	r24, 0x28	; 40
     2a2:	90 e0       	ldi	r25, 0x00	; 0
     2a4:	28 e2       	ldi	r18, 0x28	; 40
     2a6:	30 e0       	ldi	r19, 0x00	; 0
     2a8:	f9 01       	movw	r30, r18
     2aa:	20 81       	ld	r18, Z
     2ac:	2f 7b       	andi	r18, 0xBF	; 191
     2ae:	fc 01       	movw	r30, r24
     2b0:	20 83       	st	Z, r18
	pid_Init(K_P*SCALING_FACTOR, K_I*SCALING_FACTOR, K_D*SCALING_FACTOR, &pidData );
     2b2:	2d ee       	ldi	r18, 0xED	; 237
     2b4:	31 e0       	ldi	r19, 0x01	; 1
     2b6:	40 e4       	ldi	r20, 0x40	; 64
     2b8:	50 e0       	ldi	r21, 0x00	; 0
     2ba:	60 e0       	ldi	r22, 0x00	; 0
     2bc:	70 e0       	ldi	r23, 0x00	; 0
     2be:	80 e4       	ldi	r24, 0x40	; 64
     2c0:	90 e0       	ldi	r25, 0x00	; 0
     2c2:	0e 94 88 07 	call	0xf10	; 0xf10 <pid_Init>
	enableDevice( EN_LINE | EN_BLUETOOTH);
     2c6:	81 e0       	ldi	r24, 0x01	; 1
     2c8:	0e 94 de 08 	call	0x11bc	; 0x11bc <enableDevice>
	return STATE_BEGIN;
     2cc:	81 e0       	ldi	r24, 0x01	; 1
}
     2ce:	0f 90       	pop	r0
     2d0:	0f 90       	pop	r0
     2d2:	df 91       	pop	r29
     2d4:	cf 91       	pop	r28
     2d6:	08 95       	ret

000002d8 <in_state_begin>:
/************************************************************************/
/* State BEGIN                                                          */
/************************************************************************/

void in_state_begin(instance_data_t *data)
{
     2d8:	cf 93       	push	r28
     2da:	df 93       	push	r29
     2dc:	00 d0       	rcall	.+0      	; 0x2de <in_state_begin+0x6>
     2de:	cd b7       	in	r28, 0x3d	; 61
     2e0:	de b7       	in	r29, 0x3e	; 62
     2e2:	9a 83       	std	Y+2, r25	; 0x02
     2e4:	89 83       	std	Y+1, r24	; 0x01
	uart_puts_P("\n\nProgramm Tile detection.");
     2e6:	8c e8       	ldi	r24, 0x8C	; 140
     2e8:	90 e0       	ldi	r25, 0x00	; 0
     2ea:	0e 94 59 0b 	call	0x16b2	; 0x16b2 <uart_puts_p>
	uart_puts_P("\nDruecke Startknopf um zu starten.");
     2ee:	87 ea       	ldi	r24, 0xA7	; 167
     2f0:	90 e0       	ldi	r25, 0x00	; 0
     2f2:	0e 94 59 0b 	call	0x16b2	; 0x16b2 <uart_puts_p>
	pid_Init(K_P*SCALING_FACTOR, K_I*SCALING_FACTOR, K_D*SCALING_FACTOR, &pidData);
     2f6:	2d ee       	ldi	r18, 0xED	; 237
     2f8:	31 e0       	ldi	r19, 0x01	; 1
     2fa:	40 e4       	ldi	r20, 0x40	; 64
     2fc:	50 e0       	ldi	r21, 0x00	; 0
     2fe:	60 e0       	ldi	r22, 0x00	; 0
     300:	70 e0       	ldi	r23, 0x00	; 0
     302:	80 e4       	ldi	r24, 0x40	; 64
     304:	90 e0       	ldi	r25, 0x00	; 0
     306:	0e 94 88 07 	call	0xf10	; 0xf10 <pid_Init>
	setStopwatch1(0);
     30a:	10 92 01 02 	sts	0x0201, r1	; 0x800201 <stopwatches+0x2>
     30e:	10 92 00 02 	sts	0x0200, r1	; 0x800200 <stopwatches+0x1>
	enableDevice(EN_BLUETOOTH);
     312:	81 e0       	ldi	r24, 0x01	; 1
     314:	0e 94 de 08 	call	0x11bc	; 0x11bc <enableDevice>
	
	waitStart();
     318:	0e 94 ab 08 	call	0x1156	; 0x1156 <waitStart>
}
     31c:	00 00       	nop
     31e:	0f 90       	pop	r0
     320:	0f 90       	pop	r0
     322:	df 91       	pop	r29
     324:	cf 91       	pop	r28
     326:	08 95       	ret

00000328 <do_state_begin>:

state_t do_state_begin(instance_data_t *data)
{
     328:	cf 93       	push	r28
     32a:	df 93       	push	r29
     32c:	00 d0       	rcall	.+0      	; 0x32e <do_state_begin+0x6>
     32e:	1f 92       	push	r1
     330:	cd b7       	in	r28, 0x3d	; 61
     332:	de b7       	in	r29, 0x3e	; 62
     334:	9b 83       	std	Y+3, r25	; 0x03
     336:	8a 83       	std	Y+2, r24	; 0x02
	state_t next_state = STATE_BEGIN;
     338:	81 e0       	ldi	r24, 0x01	; 1
     33a:	89 83       	std	Y+1, r24	; 0x01
	
	if (systemStatus.pwrON)
     33c:	80 91 d6 01 	lds	r24, 0x01D6	; 0x8001d6 <systemStatus>
     340:	81 70       	andi	r24, 0x01	; 1
     342:	88 23       	and	r24, r24
     344:	41 f0       	breq	.+16     	; 0x356 <do_state_begin+0x2e>
	{
		setStatusLED(YELLOW);
     346:	83 e0       	ldi	r24, 0x03	; 3
     348:	0e 94 9a 08 	call	0x1134	; 0x1134 <setStatusLED>
		startStopwatch1();
     34c:	80 91 ff 01 	lds	r24, 0x01FF	; 0x8001ff <stopwatches>
     350:	81 60       	ori	r24, 0x01	; 1
     352:	80 93 ff 01 	sts	0x01FF, r24	; 0x8001ff <stopwatches>
	}
	
	
	if ( getStopwatch1() > 1500 )
     356:	80 91 00 02 	lds	r24, 0x0200	; 0x800200 <stopwatches+0x1>
     35a:	90 91 01 02 	lds	r25, 0x0201	; 0x800201 <stopwatches+0x2>
     35e:	8d 3d       	cpi	r24, 0xDD	; 221
     360:	95 40       	sbci	r25, 0x05	; 5
     362:	10 f0       	brcs	.+4      	; 0x368 <do_state_begin+0x40>
	{
		next_state = STATE_DRIVE;
     364:	82 e0       	ldi	r24, 0x02	; 2
     366:	89 83       	std	Y+1, r24	; 0x01
	}
	
	return next_state;
     368:	89 81       	ldd	r24, Y+1	; 0x01
}
     36a:	0f 90       	pop	r0
     36c:	0f 90       	pop	r0
     36e:	0f 90       	pop	r0
     370:	df 91       	pop	r29
     372:	cf 91       	pop	r28
     374:	08 95       	ret

00000376 <out_state_begin>:

void out_state_begin(instance_data_t *data)
{
     376:	cf 93       	push	r28
     378:	df 93       	push	r29
     37a:	00 d0       	rcall	.+0      	; 0x37c <out_state_begin+0x6>
     37c:	cd b7       	in	r28, 0x3d	; 61
     37e:	de b7       	in	r29, 0x3e	; 62
     380:	9a 83       	std	Y+2, r25	; 0x02
     382:	89 83       	std	Y+1, r24	; 0x01
	setStatusLED(OFF);
     384:	8a e0       	ldi	r24, 0x0A	; 10
     386:	0e 94 9a 08 	call	0x1134	; 0x1134 <setStatusLED>
	stopStopwatch1();
     38a:	80 91 ff 01 	lds	r24, 0x01FF	; 0x8001ff <stopwatches>
     38e:	8e 7f       	andi	r24, 0xFE	; 254
     390:	80 93 ff 01 	sts	0x01FF, r24	; 0x8001ff <stopwatches>
}
     394:	00 00       	nop
     396:	0f 90       	pop	r0
     398:	0f 90       	pop	r0
     39a:	df 91       	pop	r29
     39c:	cf 91       	pop	r28
     39e:	08 95       	ret

000003a0 <in_state_drive>:

/************************************************************************/
/* State Drive		                                                    */
/************************************************************************/
void in_state_drive(instance_data_t *data)
{
     3a0:	cf 93       	push	r28
     3a2:	df 93       	push	r29
     3a4:	00 d0       	rcall	.+0      	; 0x3a6 <in_state_drive+0x6>
     3a6:	cd b7       	in	r28, 0x3d	; 61
     3a8:	de b7       	in	r29, 0x3e	; 62
     3aa:	9a 83       	std	Y+2, r25	; 0x02
     3ac:	89 83       	std	Y+1, r24	; 0x01
	motorDirection(MOT_FWD, MOT_FWD);
     3ae:	61 e0       	ldi	r22, 0x01	; 1
     3b0:	81 e0       	ldi	r24, 0x01	; 1
     3b2:	0e 94 5d 06 	call	0xcba	; 0xcba <motorDirection>
	motor_speed(BASE_SPEED, BASE_SPEED);
     3b6:	60 e5       	ldi	r22, 0x50	; 80
     3b8:	70 e0       	ldi	r23, 0x00	; 0
     3ba:	80 e5       	ldi	r24, 0x50	; 80
     3bc:	90 e0       	ldi	r25, 0x00	; 0
     3be:	0e 94 99 06 	call	0xd32	; 0xd32 <motor_speed>
	uart_puts_P("\nDrive Forward");
     3c2:	8a ec       	ldi	r24, 0xCA	; 202
     3c4:	90 e0       	ldi	r25, 0x00	; 0
     3c6:	0e 94 59 0b 	call	0x16b2	; 0x16b2 <uart_puts_p>
	pid_Reset_Integrator(&pidData);
     3ca:	8d ee       	ldi	r24, 0xED	; 237
     3cc:	91 e0       	ldi	r25, 0x01	; 1
     3ce:	0e 94 61 08 	call	0x10c2	; 0x10c2 <pid_Reset_Integrator>
	data->byte = 0;
     3d2:	89 81       	ldd	r24, Y+1	; 0x01
     3d4:	9a 81       	ldd	r25, Y+2	; 0x02
     3d6:	fc 01       	movw	r30, r24
     3d8:	10 82       	st	Z, r1
	setStatusLED(RED);
     3da:	81 e0       	ldi	r24, 0x01	; 1
     3dc:	0e 94 9a 08 	call	0x1134	; 0x1134 <setStatusLED>
	startStopwatch1();	// Timer für die Motorregelung
     3e0:	80 91 ff 01 	lds	r24, 0x01FF	; 0x8001ff <stopwatches>
     3e4:	81 60       	ori	r24, 0x01	; 1
     3e6:	80 93 ff 01 	sts	0x01FF, r24	; 0x8001ff <stopwatches>
}
     3ea:	00 00       	nop
     3ec:	0f 90       	pop	r0
     3ee:	0f 90       	pop	r0
     3f0:	df 91       	pop	r29
     3f2:	cf 91       	pop	r28
     3f4:	08 95       	ret

000003f6 <do_state_drive>:

state_t do_state_drive(instance_data_t *data)
{
     3f6:	cf 93       	push	r28
     3f8:	df 93       	push	r29
     3fa:	cd b7       	in	r28, 0x3d	; 61
     3fc:	de b7       	in	r29, 0x3e	; 62
     3fe:	2b 97       	sbiw	r28, 0x0b	; 11
     400:	0f b6       	in	r0, 0x3f	; 63
     402:	f8 94       	cli
     404:	de bf       	out	0x3e, r29	; 62
     406:	0f be       	out	0x3f, r0	; 63
     408:	cd bf       	out	0x3d, r28	; 61
     40a:	9b 87       	std	Y+11, r25	; 0x0b
     40c:	8a 87       	std	Y+10, r24	; 0x0a
	state_t next_state = STATE_DRIVE;
     40e:	82 e0       	ldi	r24, 0x02	; 2
     410:	89 83       	std	Y+1, r24	; 0x01
	
	if ((getStopwatch1() >= TA) && !(data->tileDetected))
     412:	80 91 00 02 	lds	r24, 0x0200	; 0x800200 <stopwatches+0x1>
     416:	90 91 01 02 	lds	r25, 0x0201	; 0x800201 <stopwatches+0x2>
     41a:	c2 97       	sbiw	r24, 0x32	; 50
     41c:	c8 f1       	brcs	.+114    	; 0x490 <__LOCK_REGION_LENGTH__+0x90>
     41e:	8a 85       	ldd	r24, Y+10	; 0x0a
     420:	9b 85       	ldd	r25, Y+11	; 0x0b
     422:	fc 01       	movw	r30, r24
     424:	80 81       	ld	r24, Z
     426:	84 70       	andi	r24, 0x04	; 4
     428:	88 23       	and	r24, r24
     42a:	91 f5       	brne	.+100    	; 0x490 <__LOCK_REGION_LENGTH__+0x90>
	{
		int16_t pidOutput, lineReference;
		int16_t left, right;
		
		lineReference = followTrack();
     42c:	0e 94 4c 06 	call	0xc98	; 0xc98 <followTrack>
     430:	9b 83       	std	Y+3, r25	; 0x03
     432:	8a 83       	std	Y+2, r24	; 0x02
		
		setStopwatch1(0);
     434:	10 92 01 02 	sts	0x0201, r1	; 0x800201 <stopwatches+0x2>
     438:	10 92 00 02 	sts	0x0200, r1	; 0x800200 <stopwatches+0x1>
		pidOutput = pid_Controller(0, lineReference, &pidData);
     43c:	8a 81       	ldd	r24, Y+2	; 0x02
     43e:	9b 81       	ldd	r25, Y+3	; 0x03
     440:	4d ee       	ldi	r20, 0xED	; 237
     442:	51 e0       	ldi	r21, 0x01	; 1
     444:	bc 01       	movw	r22, r24
     446:	80 e0       	ldi	r24, 0x00	; 0
     448:	90 e0       	ldi	r25, 0x00	; 0
     44a:	0e 94 b3 07 	call	0xf66	; 0xf66 <pid_Controller>
     44e:	9d 83       	std	Y+5, r25	; 0x05
     450:	8c 83       	std	Y+4, r24	; 0x04
		pidOutput = pidOutput >> 2;
     452:	8c 81       	ldd	r24, Y+4	; 0x04
     454:	9d 81       	ldd	r25, Y+5	; 0x05
     456:	95 95       	asr	r25
     458:	87 95       	ror	r24
     45a:	95 95       	asr	r25
     45c:	87 95       	ror	r24
     45e:	9d 83       	std	Y+5, r25	; 0x05
     460:	8c 83       	std	Y+4, r24	; 0x04
			
		left = BASE_SPEED + pidOutput;
     462:	8c 81       	ldd	r24, Y+4	; 0x04
     464:	9d 81       	ldd	r25, Y+5	; 0x05
     466:	80 5b       	subi	r24, 0xB0	; 176
     468:	9f 4f       	sbci	r25, 0xFF	; 255
     46a:	9f 83       	std	Y+7, r25	; 0x07
     46c:	8e 83       	std	Y+6, r24	; 0x06
		right = BASE_SPEED - pidOutput;
     46e:	20 e5       	ldi	r18, 0x50	; 80
     470:	30 e0       	ldi	r19, 0x00	; 0
     472:	8c 81       	ldd	r24, Y+4	; 0x04
     474:	9d 81       	ldd	r25, Y+5	; 0x05
     476:	a9 01       	movw	r20, r18
     478:	48 1b       	sub	r20, r24
     47a:	59 0b       	sbc	r21, r25
     47c:	ca 01       	movw	r24, r20
     47e:	99 87       	std	Y+9, r25	; 0x09
     480:	88 87       	std	Y+8, r24	; 0x08
			
		motor_speed(left, right);
     482:	28 85       	ldd	r18, Y+8	; 0x08
     484:	39 85       	ldd	r19, Y+9	; 0x09
     486:	8e 81       	ldd	r24, Y+6	; 0x06
     488:	9f 81       	ldd	r25, Y+7	; 0x07
     48a:	b9 01       	movw	r22, r18
     48c:	0e 94 99 06 	call	0xd32	; 0xd32 <motor_speed>
	}
	
	// Prüfe während der Fahrt, ob sich eine Kreuzung im Weg befindet
	if ( lineSensors.digitalData[LINE_LEFT] || lineSensors.digitalData[LINE_RIGHT] )
     490:	80 91 e8 01 	lds	r24, 0x01E8	; 0x8001e8 <lineSensors+0xb>
     494:	88 23       	and	r24, r24
     496:	21 f4       	brne	.+8      	; 0x4a0 <__LOCK_REGION_LENGTH__+0xa0>
     498:	80 91 ec 01 	lds	r24, 0x01EC	; 0x8001ec <lineSensors+0xf>
     49c:	88 23       	and	r24, r24
     49e:	49 f0       	breq	.+18     	; 0x4b2 <__LOCK_REGION_LENGTH__+0xb2>
	{
		next_state = STATE_STOP;
     4a0:	83 e0       	ldi	r24, 0x03	; 3
     4a2:	89 83       	std	Y+1, r24	; 0x01
		data->tileDetected = true;
     4a4:	8a 85       	ldd	r24, Y+10	; 0x0a
     4a6:	9b 85       	ldd	r25, Y+11	; 0x0b
     4a8:	fc 01       	movw	r30, r24
     4aa:	20 81       	ld	r18, Z
     4ac:	24 60       	ori	r18, 0x04	; 4
     4ae:	fc 01       	movw	r30, r24
     4b0:	20 83       	st	Z, r18
	}
	
	// Prüfe auf Sackgasse
	if (!data->tileDetected)
     4b2:	8a 85       	ldd	r24, Y+10	; 0x0a
     4b4:	9b 85       	ldd	r25, Y+11	; 0x0b
     4b6:	fc 01       	movw	r30, r24
     4b8:	80 81       	ld	r24, Z
     4ba:	84 70       	andi	r24, 0x04	; 4
     4bc:	88 23       	and	r24, r24
     4be:	39 f5       	brne	.+78     	; 0x50e <__LOCK_REGION_LENGTH__+0x10e>
	{
		if( !(lineSensors.digitalData[LINE_LEFT] ||
     4c0:	90 91 e8 01 	lds	r25, 0x01E8	; 0x8001e8 <lineSensors+0xb>
     4c4:	81 e0       	ldi	r24, 0x01	; 1
     4c6:	89 27       	eor	r24, r25
     4c8:	88 23       	and	r24, r24
     4ca:	09 f1       	breq	.+66     	; 0x50e <__LOCK_REGION_LENGTH__+0x10e>
			lineSensors.digitalData[LINE_CLEFT] ||
     4cc:	90 91 e9 01 	lds	r25, 0x01E9	; 0x8001e9 <lineSensors+0xc>
	}
	
	// Prüfe auf Sackgasse
	if (!data->tileDetected)
	{
		if( !(lineSensors.digitalData[LINE_LEFT] ||
     4d0:	81 e0       	ldi	r24, 0x01	; 1
     4d2:	89 27       	eor	r24, r25
     4d4:	88 23       	and	r24, r24
     4d6:	d9 f0       	breq	.+54     	; 0x50e <__LOCK_REGION_LENGTH__+0x10e>
			lineSensors.digitalData[LINE_CLEFT] ||
			lineSensors.digitalData[LINE_CENTER] ||
     4d8:	90 91 ea 01 	lds	r25, 0x01EA	; 0x8001ea <lineSensors+0xd>
	
	// Prüfe auf Sackgasse
	if (!data->tileDetected)
	{
		if( !(lineSensors.digitalData[LINE_LEFT] ||
			lineSensors.digitalData[LINE_CLEFT] ||
     4dc:	81 e0       	ldi	r24, 0x01	; 1
     4de:	89 27       	eor	r24, r25
     4e0:	88 23       	and	r24, r24
     4e2:	a9 f0       	breq	.+42     	; 0x50e <__LOCK_REGION_LENGTH__+0x10e>
			lineSensors.digitalData[LINE_CENTER] ||
			lineSensors.digitalData[LINE_CRIGHT] ||
     4e4:	90 91 eb 01 	lds	r25, 0x01EB	; 0x8001eb <lineSensors+0xe>
	// Prüfe auf Sackgasse
	if (!data->tileDetected)
	{
		if( !(lineSensors.digitalData[LINE_LEFT] ||
			lineSensors.digitalData[LINE_CLEFT] ||
			lineSensors.digitalData[LINE_CENTER] ||
     4e8:	81 e0       	ldi	r24, 0x01	; 1
     4ea:	89 27       	eor	r24, r25
     4ec:	88 23       	and	r24, r24
     4ee:	79 f0       	breq	.+30     	; 0x50e <__LOCK_REGION_LENGTH__+0x10e>
			lineSensors.digitalData[LINE_CRIGHT] ||
			lineSensors.digitalData[LINE_RIGHT] ))
     4f0:	90 91 ec 01 	lds	r25, 0x01EC	; 0x8001ec <lineSensors+0xf>
	if (!data->tileDetected)
	{
		if( !(lineSensors.digitalData[LINE_LEFT] ||
			lineSensors.digitalData[LINE_CLEFT] ||
			lineSensors.digitalData[LINE_CENTER] ||
			lineSensors.digitalData[LINE_CRIGHT] ||
     4f4:	81 e0       	ldi	r24, 0x01	; 1
     4f6:	89 27       	eor	r24, r25
	}
	
	// Prüfe auf Sackgasse
	if (!data->tileDetected)
	{
		if( !(lineSensors.digitalData[LINE_LEFT] ||
     4f8:	88 23       	and	r24, r24
     4fa:	49 f0       	breq	.+18     	; 0x50e <__LOCK_REGION_LENGTH__+0x10e>
			lineSensors.digitalData[LINE_CLEFT] ||
			lineSensors.digitalData[LINE_CENTER] ||
			lineSensors.digitalData[LINE_CRIGHT] ||
			lineSensors.digitalData[LINE_RIGHT] ))
		{
			data->tileDetected = true;
     4fc:	8a 85       	ldd	r24, Y+10	; 0x0a
     4fe:	9b 85       	ldd	r25, Y+11	; 0x0b
     500:	fc 01       	movw	r30, r24
     502:	20 81       	ld	r18, Z
     504:	24 60       	ori	r18, 0x04	; 4
     506:	fc 01       	movw	r30, r24
     508:	20 83       	st	Z, r18
			next_state = STATE_STOP;
     50a:	83 e0       	ldi	r24, 0x03	; 3
     50c:	89 83       	std	Y+1, r24	; 0x01
		}
			
	}
	
	return next_state;
     50e:	89 81       	ldd	r24, Y+1	; 0x01
}
     510:	2b 96       	adiw	r28, 0x0b	; 11
     512:	0f b6       	in	r0, 0x3f	; 63
     514:	f8 94       	cli
     516:	de bf       	out	0x3e, r29	; 62
     518:	0f be       	out	0x3f, r0	; 63
     51a:	cd bf       	out	0x3d, r28	; 61
     51c:	df 91       	pop	r29
     51e:	cf 91       	pop	r28
     520:	08 95       	ret

00000522 <out_state_drive>:

void out_state_drive(instance_data_t *data)
{
     522:	cf 93       	push	r28
     524:	df 93       	push	r29
     526:	00 d0       	rcall	.+0      	; 0x528 <out_state_drive+0x6>
     528:	cd b7       	in	r28, 0x3d	; 61
     52a:	de b7       	in	r29, 0x3e	; 62
     52c:	9a 83       	std	Y+2, r25	; 0x02
     52e:	89 83       	std	Y+1, r24	; 0x01
	setStatusLED(OFF);
     530:	8a e0       	ldi	r24, 0x0A	; 10
     532:	0e 94 9a 08 	call	0x1134	; 0x1134 <setStatusLED>
	// Tile gefunden-> Fahre noch etwas Geradeaus um eine sichere Detektion zu gewährleisten
	motor_speed(BASE_SPEED, BASE_SPEED);
     536:	60 e5       	ldi	r22, 0x50	; 80
     538:	70 e0       	ldi	r23, 0x00	; 0
     53a:	80 e5       	ldi	r24, 0x50	; 80
     53c:	90 e0       	ldi	r25, 0x00	; 0
     53e:	0e 94 99 06 	call	0xd32	; 0xd32 <motor_speed>
	stopStopwatch1();
     542:	80 91 ff 01 	lds	r24, 0x01FF	; 0x8001ff <stopwatches>
     546:	8e 7f       	andi	r24, 0xFE	; 254
     548:	80 93 ff 01 	sts	0x01FF, r24	; 0x8001ff <stopwatches>
}
     54c:	00 00       	nop
     54e:	0f 90       	pop	r0
     550:	0f 90       	pop	r0
     552:	df 91       	pop	r29
     554:	cf 91       	pop	r28
     556:	08 95       	ret

00000558 <in_state_stop>:

/************************************************************************/
/* State Stop                                                           */
/************************************************************************/
void in_state_stop(instance_data_t *data)
{
     558:	cf 93       	push	r28
     55a:	df 93       	push	r29
     55c:	00 d0       	rcall	.+0      	; 0x55e <in_state_stop+0x6>
     55e:	cd b7       	in	r28, 0x3d	; 61
     560:	de b7       	in	r29, 0x3e	; 62
     562:	9a 83       	std	Y+2, r25	; 0x02
     564:	89 83       	std	Y+1, r24	; 0x01
	setStopwatch1(0);
     566:	10 92 01 02 	sts	0x0201, r1	; 0x800201 <stopwatches+0x2>
     56a:	10 92 00 02 	sts	0x0200, r1	; 0x800200 <stopwatches+0x1>
	startStopwatch1();	// Messintervall Timing
     56e:	80 91 ff 01 	lds	r24, 0x01FF	; 0x8001ff <stopwatches>
     572:	81 60       	ori	r24, 0x01	; 1
     574:	80 93 ff 01 	sts	0x01FF, r24	; 0x8001ff <stopwatches>
	setStopwatch2(0);	// Wartezeit
     578:	10 92 03 02 	sts	0x0203, r1	; 0x800203 <stopwatches+0x4>
     57c:	10 92 02 02 	sts	0x0202, r1	; 0x800202 <stopwatches+0x3>
	stopStopwatch2();
     580:	80 91 ff 01 	lds	r24, 0x01FF	; 0x8001ff <stopwatches>
     584:	8d 7f       	andi	r24, 0xFD	; 253
     586:	80 93 ff 01 	sts	0x01FF, r24	; 0x8001ff <stopwatches>
	data->byte = 0;
     58a:	89 81       	ldd	r24, Y+1	; 0x01
     58c:	9a 81       	ldd	r25, Y+2	; 0x02
     58e:	fc 01       	movw	r30, r24
     590:	10 82       	st	Z, r1
	setStatusLED(GREEN);
     592:	80 e0       	ldi	r24, 0x00	; 0
     594:	0e 94 9a 08 	call	0x1134	; 0x1134 <setStatusLED>
}
     598:	00 00       	nop
     59a:	0f 90       	pop	r0
     59c:	0f 90       	pop	r0
     59e:	df 91       	pop	r29
     5a0:	cf 91       	pop	r28
     5a2:	08 95       	ret

000005a4 <do_state_stop>:

state_t do_state_stop(instance_data_t *data)
{
     5a4:	cf 93       	push	r28
     5a6:	df 93       	push	r29
     5a8:	00 d0       	rcall	.+0      	; 0x5aa <do_state_stop+0x6>
     5aa:	1f 92       	push	r1
     5ac:	cd b7       	in	r28, 0x3d	; 61
     5ae:	de b7       	in	r29, 0x3e	; 62
     5b0:	9b 83       	std	Y+3, r25	; 0x03
     5b2:	8a 83       	std	Y+2, r24	; 0x02
	state_t next_state = STATE_STOP;
     5b4:	83 e0       	ldi	r24, 0x03	; 3
     5b6:	89 83       	std	Y+1, r24	; 0x01
	
	// Führe 1.Messungen nach Delay1 aus
	if (!data->firstMeaurement && (getStopwatch1() >= DELAY_TILE1))
     5b8:	8a 81       	ldd	r24, Y+2	; 0x02
     5ba:	9b 81       	ldd	r25, Y+3	; 0x03
     5bc:	fc 01       	movw	r30, r24
     5be:	80 81       	ld	r24, Z
     5c0:	88 70       	andi	r24, 0x08	; 8
     5c2:	88 23       	and	r24, r24
     5c4:	a9 f4       	brne	.+42     	; 0x5f0 <do_state_stop+0x4c>
     5c6:	80 91 00 02 	lds	r24, 0x0200	; 0x800200 <stopwatches+0x1>
     5ca:	90 91 01 02 	lds	r25, 0x0201	; 0x800201 <stopwatches+0x2>
     5ce:	84 36       	cpi	r24, 0x64	; 100
     5d0:	91 05       	cpc	r25, r1
     5d2:	70 f0       	brcs	.+28     	; 0x5f0 <do_state_stop+0x4c>
	{
		data->tileFirst = patternRead();
     5d4:	0e 94 9d 04 	call	0x93a	; 0x93a <patternRead>
     5d8:	28 2f       	mov	r18, r24
     5da:	8a 81       	ldd	r24, Y+2	; 0x02
     5dc:	9b 81       	ldd	r25, Y+3	; 0x03
     5de:	fc 01       	movw	r30, r24
     5e0:	23 83       	std	Z+3, r18	; 0x03
		data->firstMeaurement = true;
     5e2:	8a 81       	ldd	r24, Y+2	; 0x02
     5e4:	9b 81       	ldd	r25, Y+3	; 0x03
     5e6:	fc 01       	movw	r30, r24
     5e8:	20 81       	ld	r18, Z
     5ea:	28 60       	ori	r18, 0x08	; 8
     5ec:	fc 01       	movw	r30, r24
     5ee:	20 83       	st	Z, r18
	}
	// Führe 2.Messungen nach Delay2 aus,  Motor AUS
	if (!data->secondMeasurement && (getStopwatch1() >= DELAY_TILE2))
     5f0:	8a 81       	ldd	r24, Y+2	; 0x02
     5f2:	9b 81       	ldd	r25, Y+3	; 0x03
     5f4:	fc 01       	movw	r30, r24
     5f6:	80 81       	ld	r24, Z
     5f8:	80 71       	andi	r24, 0x10	; 16
     5fa:	88 23       	and	r24, r24
     5fc:	a9 f4       	brne	.+42     	; 0x628 <do_state_stop+0x84>
     5fe:	80 91 00 02 	lds	r24, 0x0200	; 0x800200 <stopwatches+0x1>
     602:	90 91 01 02 	lds	r25, 0x0201	; 0x800201 <stopwatches+0x2>
     606:	8c 32       	cpi	r24, 0x2C	; 44
     608:	91 40       	sbci	r25, 0x01	; 1
     60a:	70 f0       	brcs	.+28     	; 0x628 <do_state_stop+0x84>
	{
		data->tileSecond = patternRead();
     60c:	0e 94 9d 04 	call	0x93a	; 0x93a <patternRead>
     610:	28 2f       	mov	r18, r24
     612:	8a 81       	ldd	r24, Y+2	; 0x02
     614:	9b 81       	ldd	r25, Y+3	; 0x03
     616:	fc 01       	movw	r30, r24
     618:	24 83       	std	Z+4, r18	; 0x04
		data->secondMeasurement = true;
     61a:	8a 81       	ldd	r24, Y+2	; 0x02
     61c:	9b 81       	ldd	r25, Y+3	; 0x03
     61e:	fc 01       	movw	r30, r24
     620:	20 81       	ld	r18, Z
     622:	20 61       	ori	r18, 0x10	; 16
     624:	fc 01       	movw	r30, r24
     626:	20 83       	st	Z, r18
	}
	
	// Warten bis Bot still steht
	if (getStopwatch1() >= DELAY_MOTOROFF)
     628:	80 91 00 02 	lds	r24, 0x0200	; 0x800200 <stopwatches+0x1>
     62c:	90 91 01 02 	lds	r25, 0x0201	; 0x800201 <stopwatches+0x2>
     630:	88 35       	cpi	r24, 0x58	; 88
     632:	92 40       	sbci	r25, 0x02	; 2
     634:	48 f0       	brcs	.+18     	; 0x648 <do_state_stop+0xa4>
	{
		motorDirection(MOT_BREAK, MOT_BREAK);
     636:	60 e0       	ldi	r22, 0x00	; 0
     638:	80 e0       	ldi	r24, 0x00	; 0
     63a:	0e 94 5d 06 	call	0xcba	; 0xcba <motorDirection>
		startStopwatch2();
     63e:	80 91 ff 01 	lds	r24, 0x01FF	; 0x8001ff <stopwatches>
     642:	82 60       	ori	r24, 0x02	; 2
     644:	80 93 ff 01 	sts	0x01FF, r24	; 0x8001ff <stopwatches>
	}
	
	if (getStopwatch2() > DELAY_STATE)
     648:	80 91 02 02 	lds	r24, 0x0202	; 0x800202 <stopwatches+0x3>
     64c:	90 91 03 02 	lds	r25, 0x0203	; 0x800203 <stopwatches+0x4>
     650:	85 3f       	cpi	r24, 0xF5	; 245
     652:	91 40       	sbci	r25, 0x01	; 1
     654:	10 f0       	brcs	.+4      	; 0x65a <do_state_stop+0xb6>
	{
		next_state = STATE_TILE_DETECTION;
     656:	84 e0       	ldi	r24, 0x04	; 4
     658:	89 83       	std	Y+1, r24	; 0x01
	}
	
	
	return next_state;
     65a:	89 81       	ldd	r24, Y+1	; 0x01
}
     65c:	0f 90       	pop	r0
     65e:	0f 90       	pop	r0
     660:	0f 90       	pop	r0
     662:	df 91       	pop	r29
     664:	cf 91       	pop	r28
     666:	08 95       	ret

00000668 <out_state_stop>:

void out_state_stop(instance_data_t *data)
{
     668:	cf 93       	push	r28
     66a:	df 93       	push	r29
     66c:	00 d0       	rcall	.+0      	; 0x66e <out_state_stop+0x6>
     66e:	cd b7       	in	r28, 0x3d	; 61
     670:	de b7       	in	r29, 0x3e	; 62
     672:	9a 83       	std	Y+2, r25	; 0x02
     674:	89 83       	std	Y+1, r24	; 0x01
	stopStopwatch1();
     676:	80 91 ff 01 	lds	r24, 0x01FF	; 0x8001ff <stopwatches>
     67a:	8e 7f       	andi	r24, 0xFE	; 254
     67c:	80 93 ff 01 	sts	0x01FF, r24	; 0x8001ff <stopwatches>
	setStopwatch1(0);
     680:	10 92 01 02 	sts	0x0201, r1	; 0x800201 <stopwatches+0x2>
     684:	10 92 00 02 	sts	0x0200, r1	; 0x800200 <stopwatches+0x1>
	//motorDirection(MOT_BREAK, MOT_BREAK);
}
     688:	00 00       	nop
     68a:	0f 90       	pop	r0
     68c:	0f 90       	pop	r0
     68e:	df 91       	pop	r29
     690:	cf 91       	pop	r28
     692:	08 95       	ret

00000694 <in_state_tile_detection>:

/************************************************************************/
/* State tile_detection	                                                */
/************************************************************************/
void in_state_tile_detection(instance_data_t *data)
{
     694:	cf 93       	push	r28
     696:	df 93       	push	r29
     698:	00 d0       	rcall	.+0      	; 0x69a <in_state_tile_detection+0x6>
     69a:	cd b7       	in	r28, 0x3d	; 61
     69c:	de b7       	in	r29, 0x3e	; 62
     69e:	9a 83       	std	Y+2, r25	; 0x02
     6a0:	89 83       	std	Y+1, r24	; 0x01
	setStatusLED(OFF);
     6a2:	8a e0       	ldi	r24, 0x0A	; 10
     6a4:	0e 94 9a 08 	call	0x1134	; 0x1134 <setStatusLED>
}
     6a8:	00 00       	nop
     6aa:	0f 90       	pop	r0
     6ac:	0f 90       	pop	r0
     6ae:	df 91       	pop	r29
     6b0:	cf 91       	pop	r28
     6b2:	08 95       	ret

000006b4 <do_state_tile_detection>:

state_t do_state_tile_detection(instance_data_t *data)
{
     6b4:	cf 93       	push	r28
     6b6:	df 93       	push	r29
     6b8:	00 d0       	rcall	.+0      	; 0x6ba <do_state_tile_detection+0x6>
     6ba:	1f 92       	push	r1
     6bc:	cd b7       	in	r28, 0x3d	; 61
     6be:	de b7       	in	r29, 0x3e	; 62
     6c0:	9b 83       	std	Y+3, r25	; 0x03
     6c2:	8a 83       	std	Y+2, r24	; 0x02
	state_t next_state = STATE_TURN;
     6c4:	85 e0       	ldi	r24, 0x05	; 5
     6c6:	89 83       	std	Y+1, r24	; 0x01
	
	
	data->lastIntersection = validateIntersection(data->tileFirst, data->tileSecond);
     6c8:	8a 81       	ldd	r24, Y+2	; 0x02
     6ca:	9b 81       	ldd	r25, Y+3	; 0x03
     6cc:	fc 01       	movw	r30, r24
     6ce:	24 81       	ldd	r18, Z+4	; 0x04
     6d0:	8a 81       	ldd	r24, Y+2	; 0x02
     6d2:	9b 81       	ldd	r25, Y+3	; 0x03
     6d4:	fc 01       	movw	r30, r24
     6d6:	83 81       	ldd	r24, Z+3	; 0x03
     6d8:	62 2f       	mov	r22, r18
     6da:	0e 94 ee 04 	call	0x9dc	; 0x9dc <validateIntersection>
     6de:	28 2f       	mov	r18, r24
     6e0:	8a 81       	ldd	r24, Y+2	; 0x02
     6e2:	9b 81       	ldd	r25, Y+3	; 0x03
     6e4:	fc 01       	movw	r30, r24
     6e6:	25 83       	std	Z+5, r18	; 0x05

	if (data->lastIntersection == I_LEFT)
     6e8:	8a 81       	ldd	r24, Y+2	; 0x02
     6ea:	9b 81       	ldd	r25, Y+3	; 0x03
     6ec:	fc 01       	movw	r30, r24
     6ee:	85 81       	ldd	r24, Z+5	; 0x05
     6f0:	81 30       	cpi	r24, 0x01	; 1
     6f2:	29 f4       	brne	.+10     	; 0x6fe <do_state_tile_detection+0x4a>
		data->nextMove = LEFT_TURN;
     6f4:	8a 81       	ldd	r24, Y+2	; 0x02
     6f6:	9b 81       	ldd	r25, Y+3	; 0x03
     6f8:	2c e4       	ldi	r18, 0x4C	; 76
     6fa:	fc 01       	movw	r30, r24
     6fc:	26 83       	std	Z+6, r18	; 0x06
	if (data->lastIntersection == I_RIGHT)
     6fe:	8a 81       	ldd	r24, Y+2	; 0x02
     700:	9b 81       	ldd	r25, Y+3	; 0x03
     702:	fc 01       	movw	r30, r24
     704:	85 81       	ldd	r24, Z+5	; 0x05
     706:	82 30       	cpi	r24, 0x02	; 2
     708:	29 f4       	brne	.+10     	; 0x714 <do_state_tile_detection+0x60>
		data->nextMove = RIGHT_TURN;	
     70a:	8a 81       	ldd	r24, Y+2	; 0x02
     70c:	9b 81       	ldd	r25, Y+3	; 0x03
     70e:	22 e5       	ldi	r18, 0x52	; 82
     710:	fc 01       	movw	r30, r24
     712:	26 83       	std	Z+6, r18	; 0x06
		
	#ifdef LOGGING
	printPattern(data->tileFirst);
     714:	8a 81       	ldd	r24, Y+2	; 0x02
     716:	9b 81       	ldd	r25, Y+3	; 0x03
     718:	fc 01       	movw	r30, r24
     71a:	83 81       	ldd	r24, Z+3	; 0x03
     71c:	0e 94 c8 04 	call	0x990	; 0x990 <printPattern>
	printPattern(data->tileSecond);
     720:	8a 81       	ldd	r24, Y+2	; 0x02
     722:	9b 81       	ldd	r25, Y+3	; 0x03
     724:	fc 01       	movw	r30, r24
     726:	84 81       	ldd	r24, Z+4	; 0x04
     728:	0e 94 c8 04 	call	0x990	; 0x990 <printPattern>
	printIntersection(data->lastIntersection);
     72c:	8a 81       	ldd	r24, Y+2	; 0x02
     72e:	9b 81       	ldd	r25, Y+3	; 0x03
     730:	fc 01       	movw	r30, r24
     732:	85 81       	ldd	r24, Z+5	; 0x05
     734:	0e 94 49 05 	call	0xa92	; 0xa92 <printIntersection>
	#endif
		

	return next_state;
     738:	89 81       	ldd	r24, Y+1	; 0x01
}
     73a:	0f 90       	pop	r0
     73c:	0f 90       	pop	r0
     73e:	0f 90       	pop	r0
     740:	df 91       	pop	r29
     742:	cf 91       	pop	r28
     744:	08 95       	ret

00000746 <out_state_tile_detection>:

void out_state_tile_detection(instance_data_t *data)
{
     746:	cf 93       	push	r28
     748:	df 93       	push	r29
     74a:	00 d0       	rcall	.+0      	; 0x74c <out_state_tile_detection+0x6>
     74c:	cd b7       	in	r28, 0x3d	; 61
     74e:	de b7       	in	r29, 0x3e	; 62
     750:	9a 83       	std	Y+2, r25	; 0x02
     752:	89 83       	std	Y+1, r24	; 0x01
	stopStopwatch1();
     754:	80 91 ff 01 	lds	r24, 0x01FF	; 0x8001ff <stopwatches>
     758:	8e 7f       	andi	r24, 0xFE	; 254
     75a:	80 93 ff 01 	sts	0x01FF, r24	; 0x8001ff <stopwatches>
}
     75e:	00 00       	nop
     760:	0f 90       	pop	r0
     762:	0f 90       	pop	r0
     764:	df 91       	pop	r29
     766:	cf 91       	pop	r28
     768:	08 95       	ret

0000076a <in_state_turn>:

/************************************************************************/
/* State Turn								                            */
/************************************************************************/
void in_state_turn(instance_data_t *data)
{
     76a:	cf 93       	push	r28
     76c:	df 93       	push	r29
     76e:	00 d0       	rcall	.+0      	; 0x770 <in_state_turn+0x6>
     770:	cd b7       	in	r28, 0x3d	; 61
     772:	de b7       	in	r29, 0x3e	; 62
     774:	9a 83       	std	Y+2, r25	; 0x02
     776:	89 83       	std	Y+1, r24	; 0x01
	#ifdef LOGGING
	uart_puts_P("\nMove: ");
     778:	89 ed       	ldi	r24, 0xD9	; 217
     77a:	90 e0       	ldi	r25, 0x00	; 0
     77c:	0e 94 59 0b 	call	0x16b2	; 0x16b2 <uart_puts_p>
	uart_putc(data->nextMove);
     780:	89 81       	ldd	r24, Y+1	; 0x01
     782:	9a 81       	ldd	r25, Y+2	; 0x02
     784:	fc 01       	movw	r30, r24
     786:	86 81       	ldd	r24, Z+6	; 0x06
     788:	0e 94 35 0b 	call	0x166a	; 0x166a <uart_putc>
	#endif
	if (data->nextMove == LEFT_TURN)
     78c:	89 81       	ldd	r24, Y+1	; 0x01
     78e:	9a 81       	ldd	r25, Y+2	; 0x02
     790:	fc 01       	movw	r30, r24
     792:	86 81       	ldd	r24, Z+6	; 0x06
     794:	8c 34       	cpi	r24, 0x4C	; 76
     796:	39 f4       	brne	.+14     	; 0x7a6 <in_state_turn+0x3c>
	{
		rotate(LEFT, 90, NO_BLOCKING);
     798:	41 e0       	ldi	r20, 0x01	; 1
     79a:	6a e5       	ldi	r22, 0x5A	; 90
     79c:	70 e0       	ldi	r23, 0x00	; 0
     79e:	80 e0       	ldi	r24, 0x00	; 0
     7a0:	0e 94 d2 06 	call	0xda4	; 0xda4 <rotate>
     7a4:	0c c0       	rjmp	.+24     	; 0x7be <in_state_turn+0x54>
	}
	else if(data->nextMove == RIGHT_TURN)
     7a6:	89 81       	ldd	r24, Y+1	; 0x01
     7a8:	9a 81       	ldd	r25, Y+2	; 0x02
     7aa:	fc 01       	movw	r30, r24
     7ac:	86 81       	ldd	r24, Z+6	; 0x06
     7ae:	82 35       	cpi	r24, 0x52	; 82
     7b0:	31 f4       	brne	.+12     	; 0x7be <in_state_turn+0x54>
	{
		rotate(RIGHT, 90, NO_BLOCKING);
     7b2:	41 e0       	ldi	r20, 0x01	; 1
     7b4:	6a e5       	ldi	r22, 0x5A	; 90
     7b6:	70 e0       	ldi	r23, 0x00	; 0
     7b8:	81 e0       	ldi	r24, 0x01	; 1
     7ba:	0e 94 d2 06 	call	0xda4	; 0xda4 <rotate>
	}
	stopStopwatch1();
     7be:	80 91 ff 01 	lds	r24, 0x01FF	; 0x8001ff <stopwatches>
     7c2:	8e 7f       	andi	r24, 0xFE	; 254
     7c4:	80 93 ff 01 	sts	0x01FF, r24	; 0x8001ff <stopwatches>
	setStopwatch1(0);
     7c8:	10 92 01 02 	sts	0x0201, r1	; 0x800201 <stopwatches+0x2>
     7cc:	10 92 00 02 	sts	0x0200, r1	; 0x800200 <stopwatches+0x1>
}
     7d0:	00 00       	nop
     7d2:	0f 90       	pop	r0
     7d4:	0f 90       	pop	r0
     7d6:	df 91       	pop	r29
     7d8:	cf 91       	pop	r28
     7da:	08 95       	ret

000007dc <do_state_turn>:

state_t do_state_turn(instance_data_t *data)
{
     7dc:	cf 93       	push	r28
     7de:	df 93       	push	r29
     7e0:	00 d0       	rcall	.+0      	; 0x7e2 <do_state_turn+0x6>
     7e2:	1f 92       	push	r1
     7e4:	cd b7       	in	r28, 0x3d	; 61
     7e6:	de b7       	in	r29, 0x3e	; 62
     7e8:	9b 83       	std	Y+3, r25	; 0x03
     7ea:	8a 83       	std	Y+2, r24	; 0x02
	state_t next_state = STATE_TURN;
     7ec:	85 e0       	ldi	r24, 0x05	; 5
     7ee:	89 83       	std	Y+1, r24	; 0x01
	
	if (!motorStatus.autoDrive)
     7f0:	80 91 c5 01 	lds	r24, 0x01C5	; 0x8001c5 <motorStatus>
     7f4:	80 71       	andi	r24, 0x10	; 16
     7f6:	88 23       	and	r24, r24
     7f8:	29 f4       	brne	.+10     	; 0x804 <do_state_turn+0x28>
		startStopwatch1();
     7fa:	80 91 ff 01 	lds	r24, 0x01FF	; 0x8001ff <stopwatches>
     7fe:	81 60       	ori	r24, 0x01	; 1
     800:	80 93 ff 01 	sts	0x01FF, r24	; 0x8001ff <stopwatches>
	
	if (getStopwatch1() >= DELAY_STATE)
     804:	80 91 00 02 	lds	r24, 0x0200	; 0x800200 <stopwatches+0x1>
     808:	90 91 01 02 	lds	r25, 0x0201	; 0x800201 <stopwatches+0x2>
     80c:	84 3f       	cpi	r24, 0xF4	; 244
     80e:	91 40       	sbci	r25, 0x01	; 1
     810:	10 f0       	brcs	.+4      	; 0x816 <do_state_turn+0x3a>
		next_state = STATE_ERROR;
     812:	86 e0       	ldi	r24, 0x06	; 6
     814:	89 83       	std	Y+1, r24	; 0x01
	

	return next_state;
     816:	89 81       	ldd	r24, Y+1	; 0x01
}
     818:	0f 90       	pop	r0
     81a:	0f 90       	pop	r0
     81c:	0f 90       	pop	r0
     81e:	df 91       	pop	r29
     820:	cf 91       	pop	r28
     822:	08 95       	ret

00000824 <out_state_turn>:

void out_state_turn(instance_data_t *data)
{
     824:	cf 93       	push	r28
     826:	df 93       	push	r29
     828:	00 d0       	rcall	.+0      	; 0x82a <out_state_turn+0x6>
     82a:	cd b7       	in	r28, 0x3d	; 61
     82c:	de b7       	in	r29, 0x3e	; 62
     82e:	9a 83       	std	Y+2, r25	; 0x02
     830:	89 83       	std	Y+1, r24	; 0x01
	stopStopwatch1();
     832:	80 91 ff 01 	lds	r24, 0x01FF	; 0x8001ff <stopwatches>
     836:	8e 7f       	andi	r24, 0xFE	; 254
     838:	80 93 ff 01 	sts	0x01FF, r24	; 0x8001ff <stopwatches>
}
     83c:	00 00       	nop
     83e:	0f 90       	pop	r0
     840:	0f 90       	pop	r0
     842:	df 91       	pop	r29
     844:	cf 91       	pop	r28
     846:	08 95       	ret

00000848 <in_state_error>:

/************************************************************************/
/* State Error                                                          */
/************************************************************************/
void in_state_error(instance_data_t *data)
{
     848:	cf 93       	push	r28
     84a:	df 93       	push	r29
     84c:	00 d0       	rcall	.+0      	; 0x84e <in_state_error+0x6>
     84e:	cd b7       	in	r28, 0x3d	; 61
     850:	de b7       	in	r29, 0x3e	; 62
     852:	9a 83       	std	Y+2, r25	; 0x02
     854:	89 83       	std	Y+1, r24	; 0x01
	//disableDevice(EN_LINE);
	clearLEDBlue();
     856:	88 e2       	ldi	r24, 0x28	; 40
     858:	90 e0       	ldi	r25, 0x00	; 0
     85a:	28 e2       	ldi	r18, 0x28	; 40
     85c:	30 e0       	ldi	r19, 0x00	; 0
     85e:	f9 01       	movw	r30, r18
     860:	20 81       	ld	r18, Z
     862:	2f 7b       	andi	r18, 0xBF	; 191
     864:	fc 01       	movw	r30, r24
     866:	20 83       	st	Z, r18
	uart_puts_P("\nError state.");
     868:	81 ee       	ldi	r24, 0xE1	; 225
     86a:	90 e0       	ldi	r25, 0x00	; 0
     86c:	0e 94 59 0b 	call	0x16b2	; 0x16b2 <uart_puts_p>
	uart_puts_P("\nBatt:");
     870:	8f ee       	ldi	r24, 0xEF	; 239
     872:	90 e0       	ldi	r25, 0x00	; 0
     874:	0e 94 59 0b 	call	0x16b2	; 0x16b2 <uart_puts_p>
	uart_putInt(systemStatus.battery);
     878:	80 91 d7 01 	lds	r24, 0x01D7	; 0x8001d7 <systemStatus+0x1>
     87c:	90 91 d8 01 	lds	r25, 0x01D8	; 0x8001d8 <systemStatus+0x2>
     880:	0e 94 34 09 	call	0x1268	; 0x1268 <uart_putInt>
	startStopwatch1();
     884:	80 91 ff 01 	lds	r24, 0x01FF	; 0x8001ff <stopwatches>
     888:	81 60       	ori	r24, 0x01	; 1
     88a:	80 93 ff 01 	sts	0x01FF, r24	; 0x8001ff <stopwatches>
	setStopwatch1(0);
     88e:	10 92 01 02 	sts	0x0201, r1	; 0x800201 <stopwatches+0x2>
     892:	10 92 00 02 	sts	0x0200, r1	; 0x800200 <stopwatches+0x1>
}
     896:	00 00       	nop
     898:	0f 90       	pop	r0
     89a:	0f 90       	pop	r0
     89c:	df 91       	pop	r29
     89e:	cf 91       	pop	r28
     8a0:	08 95       	ret

000008a2 <do_state_error>:

state_t do_state_error(instance_data_t *data)
{
     8a2:	cf 93       	push	r28
     8a4:	df 93       	push	r29
     8a6:	00 d0       	rcall	.+0      	; 0x8a8 <do_state_error+0x6>
     8a8:	00 d0       	rcall	.+0      	; 0x8aa <do_state_error+0x8>
     8aa:	cd b7       	in	r28, 0x3d	; 61
     8ac:	de b7       	in	r29, 0x3e	; 62
     8ae:	9c 83       	std	Y+4, r25	; 0x04
     8b0:	8b 83       	std	Y+3, r24	; 0x03
	state_t next_state = STATE_ERROR;
     8b2:	86 e0       	ldi	r24, 0x06	; 6
     8b4:	8a 83       	std	Y+2, r24	; 0x02
	
	bool toogle = false;
     8b6:	19 82       	std	Y+1, r1	; 0x01
	
	while(!startButton())
     8b8:	23 c0       	rjmp	.+70     	; 0x900 <do_state_error+0x5e>
	{
		if (getStopwatch1() > 500)
     8ba:	80 91 00 02 	lds	r24, 0x0200	; 0x800200 <stopwatches+0x1>
     8be:	90 91 01 02 	lds	r25, 0x0201	; 0x800201 <stopwatches+0x2>
     8c2:	85 3f       	cpi	r24, 0xF5	; 245
     8c4:	91 40       	sbci	r25, 0x01	; 1
     8c6:	e0 f0       	brcs	.+56     	; 0x900 <do_state_error+0x5e>
		{
			toogle ^= true;
     8c8:	99 81       	ldd	r25, Y+1	; 0x01
     8ca:	81 e0       	ldi	r24, 0x01	; 1
     8cc:	89 27       	eor	r24, r25
     8ce:	88 2f       	mov	r24, r24
     8d0:	90 e0       	ldi	r25, 0x00	; 0
     8d2:	21 e0       	ldi	r18, 0x01	; 1
     8d4:	89 2b       	or	r24, r25
     8d6:	09 f4       	brne	.+2      	; 0x8da <do_state_error+0x38>
     8d8:	20 e0       	ldi	r18, 0x00	; 0
     8da:	29 83       	std	Y+1, r18	; 0x01
			
			if (toogle)
     8dc:	89 81       	ldd	r24, Y+1	; 0x01
     8de:	88 23       	and	r24, r24
     8e0:	41 f0       	breq	.+16     	; 0x8f2 <do_state_error+0x50>
			{
				setStatusLED(RED);
     8e2:	81 e0       	ldi	r24, 0x01	; 1
     8e4:	0e 94 9a 08 	call	0x1134	; 0x1134 <setStatusLED>
				printPattern(patternRead());
     8e8:	0e 94 9d 04 	call	0x93a	; 0x93a <patternRead>
     8ec:	0e 94 c8 04 	call	0x990	; 0x990 <printPattern>
     8f0:	03 c0       	rjmp	.+6      	; 0x8f8 <do_state_error+0x56>
			}
			
			else
				setStatusLED(OFF);
     8f2:	8a e0       	ldi	r24, 0x0A	; 10
     8f4:	0e 94 9a 08 	call	0x1134	; 0x1134 <setStatusLED>
			setStopwatch1(0);
     8f8:	10 92 01 02 	sts	0x0201, r1	; 0x800201 <stopwatches+0x2>
     8fc:	10 92 00 02 	sts	0x0200, r1	; 0x800200 <stopwatches+0x1>
{
	state_t next_state = STATE_ERROR;
	
	bool toogle = false;
	
	while(!startButton())
     900:	83 e2       	ldi	r24, 0x23	; 35
     902:	90 e0       	ldi	r25, 0x00	; 0
     904:	fc 01       	movw	r30, r24
     906:	80 81       	ld	r24, Z
     908:	88 2f       	mov	r24, r24
     90a:	90 e0       	ldi	r25, 0x00	; 0
     90c:	80 71       	andi	r24, 0x10	; 16
     90e:	99 27       	eor	r25, r25
     910:	89 2b       	or	r24, r25
     912:	99 f6       	brne	.-90     	; 0x8ba <do_state_error+0x18>
				setStatusLED(OFF);
			setStopwatch1(0);
		}
	}
	
	return next_state;
     914:	8a 81       	ldd	r24, Y+2	; 0x02
}
     916:	0f 90       	pop	r0
     918:	0f 90       	pop	r0
     91a:	0f 90       	pop	r0
     91c:	0f 90       	pop	r0
     91e:	df 91       	pop	r29
     920:	cf 91       	pop	r28
     922:	08 95       	ret

00000924 <main>:




int main(void)
{
     924:	cf 93       	push	r28
     926:	df 93       	push	r29
     928:	cd b7       	in	r28, 0x3d	; 61
     92a:	de b7       	in	r29, 0x3e	; 62
	systemInit();
     92c:	0e 94 ff 09 	call	0x13fe	; 0x13fe <systemInit>

	while (1)
	{
		taskSystem();
     930:	0e 94 f6 09 	call	0x13ec	; 0x13ec <taskSystem>
		
		
		fsm_task();
     934:	0e 94 35 01 	call	0x26a	; 0x26a <fsm_task>
		
	}
     938:	fb cf       	rjmp	.-10     	; 0x930 <main+0xc>

0000093a <patternRead>:
pidData_t pidData;
bool drive = false;
//uint8_t LinePattern = 00010101;

uint8_t patternRead(void)
{
     93a:	cf 93       	push	r28
     93c:	df 93       	push	r29
     93e:	00 d0       	rcall	.+0      	; 0x940 <patternRead+0x6>
     940:	cd b7       	in	r28, 0x3d	; 61
     942:	de b7       	in	r29, 0x3e	; 62
	uint8_t pattern = 0;
     944:	19 82       	std	Y+1, r1	; 0x01
	for (uint8_t i=0; i<5; i++)
     946:	1a 82       	std	Y+2, r1	; 0x02
     948:	1a c0       	rjmp	.+52     	; 0x97e <patternRead+0x44>
	{
		if (lineSensors.digitalData[i])
     94a:	8a 81       	ldd	r24, Y+2	; 0x02
     94c:	88 2f       	mov	r24, r24
     94e:	90 e0       	ldi	r25, 0x00	; 0
     950:	88 51       	subi	r24, 0x18	; 24
     952:	9e 4f       	sbci	r25, 0xFE	; 254
     954:	fc 01       	movw	r30, r24
     956:	80 81       	ld	r24, Z
     958:	88 23       	and	r24, r24
     95a:	71 f0       	breq	.+28     	; 0x978 <patternRead+0x3e>
			pattern |= (1<<i);
     95c:	8a 81       	ldd	r24, Y+2	; 0x02
     95e:	28 2f       	mov	r18, r24
     960:	30 e0       	ldi	r19, 0x00	; 0
     962:	81 e0       	ldi	r24, 0x01	; 1
     964:	90 e0       	ldi	r25, 0x00	; 0
     966:	02 c0       	rjmp	.+4      	; 0x96c <patternRead+0x32>
     968:	88 0f       	add	r24, r24
     96a:	99 1f       	adc	r25, r25
     96c:	2a 95       	dec	r18
     96e:	e2 f7       	brpl	.-8      	; 0x968 <patternRead+0x2e>
     970:	98 2f       	mov	r25, r24
     972:	89 81       	ldd	r24, Y+1	; 0x01
     974:	89 2b       	or	r24, r25
     976:	89 83       	std	Y+1, r24	; 0x01
//uint8_t LinePattern = 00010101;

uint8_t patternRead(void)
{
	uint8_t pattern = 0;
	for (uint8_t i=0; i<5; i++)
     978:	8a 81       	ldd	r24, Y+2	; 0x02
     97a:	8f 5f       	subi	r24, 0xFF	; 255
     97c:	8a 83       	std	Y+2, r24	; 0x02
     97e:	8a 81       	ldd	r24, Y+2	; 0x02
     980:	85 30       	cpi	r24, 0x05	; 5
     982:	18 f3       	brcs	.-58     	; 0x94a <patternRead+0x10>
	{
		if (lineSensors.digitalData[i])
			pattern |= (1<<i);
	}
	
	return pattern;
     984:	89 81       	ldd	r24, Y+1	; 0x01
}
     986:	0f 90       	pop	r0
     988:	0f 90       	pop	r0
     98a:	df 91       	pop	r29
     98c:	cf 91       	pop	r28
     98e:	08 95       	ret

00000990 <printPattern>:

void printPattern(uint8_t data)
{
     990:	cf 93       	push	r28
     992:	df 93       	push	r29
     994:	00 d0       	rcall	.+0      	; 0x996 <printPattern+0x6>
     996:	00 d0       	rcall	.+0      	; 0x998 <printPattern+0x8>
     998:	00 d0       	rcall	.+0      	; 0x99a <printPattern+0xa>
     99a:	cd b7       	in	r28, 0x3d	; 61
     99c:	de b7       	in	r29, 0x3e	; 62
     99e:	8e 83       	std	Y+6, r24	; 0x06
	char buffer[5];
	uart_puts_P("\nPattern: ");
     9a0:	86 ef       	ldi	r24, 0xF6	; 246
     9a2:	90 e0       	ldi	r25, 0x00	; 0
     9a4:	0e 94 59 0b 	call	0x16b2	; 0x16b2 <uart_puts_p>
	itoa(data, buffer, 2);
     9a8:	8e 81       	ldd	r24, Y+6	; 0x06
     9aa:	88 2f       	mov	r24, r24
     9ac:	90 e0       	ldi	r25, 0x00	; 0
     9ae:	42 e0       	ldi	r20, 0x02	; 2
     9b0:	50 e0       	ldi	r21, 0x00	; 0
     9b2:	9e 01       	movw	r18, r28
     9b4:	2f 5f       	subi	r18, 0xFF	; 255
     9b6:	3f 4f       	sbci	r19, 0xFF	; 255
     9b8:	b9 01       	movw	r22, r18
     9ba:	0e 94 0b 0e 	call	0x1c16	; 0x1c16 <itoa>
	buffer[5] = '\0';
     9be:	1e 82       	std	Y+6, r1	; 0x06
	uart_puts(buffer);
     9c0:	ce 01       	movw	r24, r28
     9c2:	01 96       	adiw	r24, 0x01	; 1
     9c4:	0e 94 4a 0b 	call	0x1694	; 0x1694 <uart_puts>
}
     9c8:	00 00       	nop
     9ca:	26 96       	adiw	r28, 0x06	; 6
     9cc:	0f b6       	in	r0, 0x3f	; 63
     9ce:	f8 94       	cli
     9d0:	de bf       	out	0x3e, r29	; 62
     9d2:	0f be       	out	0x3f, r0	; 63
     9d4:	cd bf       	out	0x3d, r28	; 61
     9d6:	df 91       	pop	r29
     9d8:	cf 91       	pop	r28
     9da:	08 95       	ret

000009dc <validateIntersection>:


intersection_t validateIntersection(uint8_t initial, uint8_t second)
{
     9dc:	cf 93       	push	r28
     9de:	df 93       	push	r29
     9e0:	00 d0       	rcall	.+0      	; 0x9e2 <validateIntersection+0x6>
     9e2:	1f 92       	push	r1
     9e4:	cd b7       	in	r28, 0x3d	; 61
     9e6:	de b7       	in	r29, 0x3e	; 62
     9e8:	8a 83       	std	Y+2, r24	; 0x02
     9ea:	6b 83       	std	Y+3, r22	; 0x03
	intersection_t actualIntersection;
	
	// Auswertung Initial-Scan
	// Prüfen auf seitliche Wege
	if ( (initial &  P_LEFT) && (initial & P_RIGHT) )
     9ec:	8a 81       	ldd	r24, Y+2	; 0x02
     9ee:	88 2f       	mov	r24, r24
     9f0:	90 e0       	ldi	r25, 0x00	; 0
     9f2:	81 70       	andi	r24, 0x01	; 1
     9f4:	99 27       	eor	r25, r25
     9f6:	89 2b       	or	r24, r25
     9f8:	51 f0       	breq	.+20     	; 0xa0e <validateIntersection+0x32>
     9fa:	8a 81       	ldd	r24, Y+2	; 0x02
     9fc:	88 2f       	mov	r24, r24
     9fe:	90 e0       	ldi	r25, 0x00	; 0
     a00:	80 71       	andi	r24, 0x10	; 16
     a02:	99 27       	eor	r25, r25
     a04:	89 2b       	or	r24, r25
     a06:	19 f0       	breq	.+6      	; 0xa0e <validateIntersection+0x32>
		actualIntersection = I_T_CROSS;
     a08:	83 e0       	ldi	r24, 0x03	; 3
     a0a:	89 83       	std	Y+1, r24	; 0x01
     a0c:	15 c0       	rjmp	.+42     	; 0xa38 <validateIntersection+0x5c>
	else if ( initial & P_LEFT)
     a0e:	8a 81       	ldd	r24, Y+2	; 0x02
     a10:	88 2f       	mov	r24, r24
     a12:	90 e0       	ldi	r25, 0x00	; 0
     a14:	81 70       	andi	r24, 0x01	; 1
     a16:	99 27       	eor	r25, r25
     a18:	89 2b       	or	r24, r25
     a1a:	19 f0       	breq	.+6      	; 0xa22 <validateIntersection+0x46>
		actualIntersection = I_LEFT;
     a1c:	81 e0       	ldi	r24, 0x01	; 1
     a1e:	89 83       	std	Y+1, r24	; 0x01
     a20:	0b c0       	rjmp	.+22     	; 0xa38 <validateIntersection+0x5c>
	else if ( initial & P_RIGHT)
     a22:	8a 81       	ldd	r24, Y+2	; 0x02
     a24:	88 2f       	mov	r24, r24
     a26:	90 e0       	ldi	r25, 0x00	; 0
     a28:	80 71       	andi	r24, 0x10	; 16
     a2a:	99 27       	eor	r25, r25
     a2c:	89 2b       	or	r24, r25
     a2e:	19 f0       	breq	.+6      	; 0xa36 <validateIntersection+0x5a>
		actualIntersection = I_RIGHT;
     a30:	82 e0       	ldi	r24, 0x02	; 2
     a32:	89 83       	std	Y+1, r24	; 0x01
     a34:	01 c0       	rjmp	.+2      	; 0xa38 <validateIntersection+0x5c>
	else 
		actualIntersection = I_DEAD_END;
     a36:	19 82       	std	Y+1, r1	; 0x01
	
	// Auswertung sekundärer Scan
	// Prüfung auf Weg in Fahrtrichtung
	if (actualIntersection==I_T_CROSS && (second & P_FRONT))
     a38:	89 81       	ldd	r24, Y+1	; 0x01
     a3a:	83 30       	cpi	r24, 0x03	; 3
     a3c:	51 f4       	brne	.+20     	; 0xa52 <validateIntersection+0x76>
     a3e:	8b 81       	ldd	r24, Y+3	; 0x03
     a40:	88 2f       	mov	r24, r24
     a42:	90 e0       	ldi	r25, 0x00	; 0
     a44:	8e 70       	andi	r24, 0x0E	; 14
     a46:	99 27       	eor	r25, r25
     a48:	89 2b       	or	r24, r25
     a4a:	19 f0       	breq	.+6      	; 0xa52 <validateIntersection+0x76>
		actualIntersection = I_FOUR_WAY;
     a4c:	84 e0       	ldi	r24, 0x04	; 4
     a4e:	89 83       	std	Y+1, r24	; 0x01
     a50:	19 c0       	rjmp	.+50     	; 0xa84 <validateIntersection+0xa8>
	else if (actualIntersection==I_LEFT && (second & P_FRONT))
     a52:	89 81       	ldd	r24, Y+1	; 0x01
     a54:	81 30       	cpi	r24, 0x01	; 1
     a56:	51 f4       	brne	.+20     	; 0xa6c <validateIntersection+0x90>
     a58:	8b 81       	ldd	r24, Y+3	; 0x03
     a5a:	88 2f       	mov	r24, r24
     a5c:	90 e0       	ldi	r25, 0x00	; 0
     a5e:	8e 70       	andi	r24, 0x0E	; 14
     a60:	99 27       	eor	r25, r25
     a62:	89 2b       	or	r24, r25
     a64:	19 f0       	breq	.+6      	; 0xa6c <validateIntersection+0x90>
		actualIntersection = I_STRAIGHT_LEFT;
     a66:	85 e0       	ldi	r24, 0x05	; 5
     a68:	89 83       	std	Y+1, r24	; 0x01
     a6a:	0c c0       	rjmp	.+24     	; 0xa84 <validateIntersection+0xa8>
	else if (actualIntersection==I_RIGHT && (second & P_FRONT))
     a6c:	89 81       	ldd	r24, Y+1	; 0x01
     a6e:	82 30       	cpi	r24, 0x02	; 2
     a70:	49 f4       	brne	.+18     	; 0xa84 <validateIntersection+0xa8>
     a72:	8b 81       	ldd	r24, Y+3	; 0x03
     a74:	88 2f       	mov	r24, r24
     a76:	90 e0       	ldi	r25, 0x00	; 0
     a78:	8e 70       	andi	r24, 0x0E	; 14
     a7a:	99 27       	eor	r25, r25
     a7c:	89 2b       	or	r24, r25
     a7e:	11 f0       	breq	.+4      	; 0xa84 <validateIntersection+0xa8>
		actualIntersection = I_STRAIGHT_RIGHT;
     a80:	86 e0       	ldi	r24, 0x06	; 6
     a82:	89 83       	std	Y+1, r24	; 0x01
	
	//if ( (initial == P_END) && (second == P_END) )
		//actualIntersection = I_END;
	
	return actualIntersection;
     a84:	89 81       	ldd	r24, Y+1	; 0x01
}
     a86:	0f 90       	pop	r0
     a88:	0f 90       	pop	r0
     a8a:	0f 90       	pop	r0
     a8c:	df 91       	pop	r29
     a8e:	cf 91       	pop	r28
     a90:	08 95       	ret

00000a92 <printIntersection>:


void printIntersection(intersection_t intersection)
{
     a92:	cf 93       	push	r28
     a94:	df 93       	push	r29
     a96:	cd b7       	in	r28, 0x3d	; 61
     a98:	de b7       	in	r29, 0x3e	; 62
     a9a:	65 97       	sbiw	r28, 0x15	; 21
     a9c:	0f b6       	in	r0, 0x3f	; 63
     a9e:	f8 94       	cli
     aa0:	de bf       	out	0x3e, r29	; 62
     aa2:	0f be       	out	0x3f, r0	; 63
     aa4:	cd bf       	out	0x3d, r28	; 61
     aa6:	8d 8b       	std	Y+21, r24	; 0x15
	char buffer[20];
	uart_puts_P("\nIntersection: ");
     aa8:	81 e0       	ldi	r24, 0x01	; 1
     aaa:	91 e0       	ldi	r25, 0x01	; 1
     aac:	0e 94 59 0b 	call	0x16b2	; 0x16b2 <uart_puts_p>
	switch (intersection)
     ab0:	8d 89       	ldd	r24, Y+21	; 0x15
     ab2:	88 2f       	mov	r24, r24
     ab4:	90 e0       	ldi	r25, 0x00	; 0
     ab6:	09 2e       	mov	r0, r25
     ab8:	00 0c       	add	r0, r0
     aba:	aa 0b       	sbc	r26, r26
     abc:	bb 0b       	sbc	r27, r27
     abe:	40 e0       	ldi	r20, 0x00	; 0
     ac0:	50 e0       	ldi	r21, 0x00	; 0
     ac2:	27 e0       	ldi	r18, 0x07	; 7
     ac4:	30 e0       	ldi	r19, 0x00	; 0
     ac6:	84 1b       	sub	r24, r20
     ac8:	95 0b       	sbc	r25, r21
     aca:	28 17       	cp	r18, r24
     acc:	39 07       	cpc	r19, r25
     ace:	08 f4       	brcc	.+2      	; 0xad2 <printIntersection+0x40>
     ad0:	85 c0       	rjmp	.+266    	; 0xbdc <printIntersection+0x14a>
     ad2:	82 5c       	subi	r24, 0xC2	; 194
     ad4:	9f 4f       	sbci	r25, 0xFF	; 255
     ad6:	fc 01       	movw	r30, r24
     ad8:	0c 94 cf 0d 	jmp	0x1b9e	; 0x1b9e <__tablejump2__>
	{
		case I_DEAD_END:
		sprintf_P(buffer, PSTR("Dead End"));
     adc:	81 e1       	ldi	r24, 0x11	; 17
     ade:	91 e0       	ldi	r25, 0x01	; 1
     ae0:	29 2f       	mov	r18, r25
     ae2:	2f 93       	push	r18
     ae4:	8f 93       	push	r24
     ae6:	ce 01       	movw	r24, r28
     ae8:	01 96       	adiw	r24, 0x01	; 1
     aea:	9f 93       	push	r25
     aec:	8f 93       	push	r24
     aee:	0e 94 3b 0e 	call	0x1c76	; 0x1c76 <sprintf_P>
     af2:	0f 90       	pop	r0
     af4:	0f 90       	pop	r0
     af6:	0f 90       	pop	r0
     af8:	0f 90       	pop	r0
		break;
     afa:	80 c0       	rjmp	.+256    	; 0xbfc <printIntersection+0x16a>
		
		case I_END:
		sprintf_P(buffer, PSTR("Finish"));
     afc:	8a e1       	ldi	r24, 0x1A	; 26
     afe:	91 e0       	ldi	r25, 0x01	; 1
     b00:	29 2f       	mov	r18, r25
     b02:	2f 93       	push	r18
     b04:	8f 93       	push	r24
     b06:	ce 01       	movw	r24, r28
     b08:	01 96       	adiw	r24, 0x01	; 1
     b0a:	9f 93       	push	r25
     b0c:	8f 93       	push	r24
     b0e:	0e 94 3b 0e 	call	0x1c76	; 0x1c76 <sprintf_P>
     b12:	0f 90       	pop	r0
     b14:	0f 90       	pop	r0
     b16:	0f 90       	pop	r0
     b18:	0f 90       	pop	r0
		break;
     b1a:	70 c0       	rjmp	.+224    	; 0xbfc <printIntersection+0x16a>
		
		case I_FOUR_WAY:
		sprintf_P(buffer, PSTR("Four Way"));
     b1c:	81 e2       	ldi	r24, 0x21	; 33
     b1e:	91 e0       	ldi	r25, 0x01	; 1
     b20:	29 2f       	mov	r18, r25
     b22:	2f 93       	push	r18
     b24:	8f 93       	push	r24
     b26:	ce 01       	movw	r24, r28
     b28:	01 96       	adiw	r24, 0x01	; 1
     b2a:	9f 93       	push	r25
     b2c:	8f 93       	push	r24
     b2e:	0e 94 3b 0e 	call	0x1c76	; 0x1c76 <sprintf_P>
     b32:	0f 90       	pop	r0
     b34:	0f 90       	pop	r0
     b36:	0f 90       	pop	r0
     b38:	0f 90       	pop	r0
		break;
     b3a:	60 c0       	rjmp	.+192    	; 0xbfc <printIntersection+0x16a>
		
		case I_LEFT:
		sprintf_P(buffer, PSTR("Left"));
     b3c:	8a e2       	ldi	r24, 0x2A	; 42
     b3e:	91 e0       	ldi	r25, 0x01	; 1
     b40:	29 2f       	mov	r18, r25
     b42:	2f 93       	push	r18
     b44:	8f 93       	push	r24
     b46:	ce 01       	movw	r24, r28
     b48:	01 96       	adiw	r24, 0x01	; 1
     b4a:	9f 93       	push	r25
     b4c:	8f 93       	push	r24
     b4e:	0e 94 3b 0e 	call	0x1c76	; 0x1c76 <sprintf_P>
     b52:	0f 90       	pop	r0
     b54:	0f 90       	pop	r0
     b56:	0f 90       	pop	r0
     b58:	0f 90       	pop	r0
		break;
     b5a:	50 c0       	rjmp	.+160    	; 0xbfc <printIntersection+0x16a>
		
		case I_RIGHT:
		sprintf_P(buffer, PSTR("Right"));
     b5c:	8f e2       	ldi	r24, 0x2F	; 47
     b5e:	91 e0       	ldi	r25, 0x01	; 1
     b60:	29 2f       	mov	r18, r25
     b62:	2f 93       	push	r18
     b64:	8f 93       	push	r24
     b66:	ce 01       	movw	r24, r28
     b68:	01 96       	adiw	r24, 0x01	; 1
     b6a:	9f 93       	push	r25
     b6c:	8f 93       	push	r24
     b6e:	0e 94 3b 0e 	call	0x1c76	; 0x1c76 <sprintf_P>
     b72:	0f 90       	pop	r0
     b74:	0f 90       	pop	r0
     b76:	0f 90       	pop	r0
     b78:	0f 90       	pop	r0
		break;
     b7a:	40 c0       	rjmp	.+128    	; 0xbfc <printIntersection+0x16a>
		
		case I_T_CROSS:
		sprintf_P(buffer, PSTR("T-Way"));
     b7c:	85 e3       	ldi	r24, 0x35	; 53
     b7e:	91 e0       	ldi	r25, 0x01	; 1
     b80:	29 2f       	mov	r18, r25
     b82:	2f 93       	push	r18
     b84:	8f 93       	push	r24
     b86:	ce 01       	movw	r24, r28
     b88:	01 96       	adiw	r24, 0x01	; 1
     b8a:	9f 93       	push	r25
     b8c:	8f 93       	push	r24
     b8e:	0e 94 3b 0e 	call	0x1c76	; 0x1c76 <sprintf_P>
     b92:	0f 90       	pop	r0
     b94:	0f 90       	pop	r0
     b96:	0f 90       	pop	r0
     b98:	0f 90       	pop	r0
		break;
     b9a:	30 c0       	rjmp	.+96     	; 0xbfc <printIntersection+0x16a>
		
		case I_STRAIGHT_LEFT:
		sprintf_P(buffer, PSTR("Straight Left"));
     b9c:	8b e3       	ldi	r24, 0x3B	; 59
     b9e:	91 e0       	ldi	r25, 0x01	; 1
     ba0:	29 2f       	mov	r18, r25
     ba2:	2f 93       	push	r18
     ba4:	8f 93       	push	r24
     ba6:	ce 01       	movw	r24, r28
     ba8:	01 96       	adiw	r24, 0x01	; 1
     baa:	9f 93       	push	r25
     bac:	8f 93       	push	r24
     bae:	0e 94 3b 0e 	call	0x1c76	; 0x1c76 <sprintf_P>
     bb2:	0f 90       	pop	r0
     bb4:	0f 90       	pop	r0
     bb6:	0f 90       	pop	r0
     bb8:	0f 90       	pop	r0
		break;
     bba:	20 c0       	rjmp	.+64     	; 0xbfc <printIntersection+0x16a>
		
		case I_STRAIGHT_RIGHT:
		sprintf_P(buffer, PSTR("Straight Right"));
     bbc:	89 e4       	ldi	r24, 0x49	; 73
     bbe:	91 e0       	ldi	r25, 0x01	; 1
     bc0:	29 2f       	mov	r18, r25
     bc2:	2f 93       	push	r18
     bc4:	8f 93       	push	r24
     bc6:	ce 01       	movw	r24, r28
     bc8:	01 96       	adiw	r24, 0x01	; 1
     bca:	9f 93       	push	r25
     bcc:	8f 93       	push	r24
     bce:	0e 94 3b 0e 	call	0x1c76	; 0x1c76 <sprintf_P>
     bd2:	0f 90       	pop	r0
     bd4:	0f 90       	pop	r0
     bd6:	0f 90       	pop	r0
     bd8:	0f 90       	pop	r0
		break;
     bda:	10 c0       	rjmp	.+32     	; 0xbfc <printIntersection+0x16a>
		
		default:
		sprintf_P(buffer, PSTR("Unknown"));
     bdc:	88 e5       	ldi	r24, 0x58	; 88
     bde:	91 e0       	ldi	r25, 0x01	; 1
     be0:	29 2f       	mov	r18, r25
     be2:	2f 93       	push	r18
     be4:	8f 93       	push	r24
     be6:	ce 01       	movw	r24, r28
     be8:	01 96       	adiw	r24, 0x01	; 1
     bea:	9f 93       	push	r25
     bec:	8f 93       	push	r24
     bee:	0e 94 3b 0e 	call	0x1c76	; 0x1c76 <sprintf_P>
     bf2:	0f 90       	pop	r0
     bf4:	0f 90       	pop	r0
     bf6:	0f 90       	pop	r0
     bf8:	0f 90       	pop	r0
		break;
     bfa:	00 00       	nop
	}
	
	uart_puts(buffer);
     bfc:	ce 01       	movw	r24, r28
     bfe:	01 96       	adiw	r24, 0x01	; 1
     c00:	0e 94 4a 0b 	call	0x1694	; 0x1694 <uart_puts>
     c04:	00 00       	nop
     c06:	65 96       	adiw	r28, 0x15	; 21
     c08:	0f b6       	in	r0, 0x3f	; 63
     c0a:	f8 94       	cli
     c0c:	de bf       	out	0x3e, r29	; 62
     c0e:	0f be       	out	0x3f, r0	; 63
     c10:	cd bf       	out	0x3d, r28	; 61
     c12:	df 91       	pop	r29
     c14:	cf 91       	pop	r28
     c16:	08 95       	ret

00000c18 <lineRead>:
	}
}


void lineRead(void)
{
     c18:	ef 92       	push	r14
     c1a:	ff 92       	push	r15
     c1c:	0f 93       	push	r16
     c1e:	1f 93       	push	r17
     c20:	cf 93       	push	r28

static void line_pwr(uint8_t pwr)
{
	if (pwr == ON)
	{
		enableDevice(EN_LINE);
     c22:	80 e0       	ldi	r24, 0x00	; 0
     c24:	0e 94 de 08 	call	0x11bc	; 0x11bc <enableDevice>
	#else
		//round up by default
		__ticks_dc = (uint32_t)(ceil(fabs(__tmp)));
	#endif

	__builtin_avr_delay_cycles(__ticks_dc);
     c28:	8f e7       	ldi	r24, 0x7F	; 127
     c2a:	9c e0       	ldi	r25, 0x0C	; 12
     c2c:	01 97       	sbiw	r24, 0x01	; 1
     c2e:	f1 f7       	brne	.-4      	; 0xc2c <lineRead+0x14>
     c30:	00 c0       	rjmp	.+0      	; 0xc32 <lineRead+0x1a>
     c32:	00 00       	nop
     c34:	0e ed       	ldi	r16, 0xDE	; 222
     c36:	11 e0       	ldi	r17, 0x01	; 1
     c38:	78 01       	movw	r14, r16
     c3a:	c3 e0       	ldi	r28, 0x03	; 3
	uint16_t temp;
	
	line_pwr(ON);
	for (uint8_t i = 0; i < 5; i++)
	{
		lineSensors.analogData[i] = adc_Read(i+ADC3D);
     c3c:	8c 2f       	mov	r24, r28
     c3e:	0e 94 6b 08 	call	0x10d6	; 0x10d6 <adc_Read>
     c42:	d7 01       	movw	r26, r14
     c44:	8d 93       	st	X+, r24
     c46:	9d 93       	st	X+, r25
     c48:	7d 01       	movw	r14, r26
     c4a:	cf 5f       	subi	r28, 0xFF	; 255
void lineRead(void)
{
	uint16_t temp;
	
	line_pwr(ON);
	for (uint8_t i = 0; i < 5; i++)
     c4c:	c8 30       	cpi	r28, 0x08	; 8
     c4e:	b1 f7       	brne	.-20     	; 0xc3c <lineRead+0x24>
		enableDevice(EN_LINE);
		_delay_us(LINE_SENSOR_DELAY);
	}
	else
	{
		disableDevice(EN_LINE);
     c50:	80 e0       	ldi	r24, 0x00	; 0
     c52:	0e 94 09 09 	call	0x1212	; 0x1212 <disableDevice>
	for (uint8_t i = 0; i < 5; i++)
	{
		lineSensors.analogData[i] = adc_Read(i+ADC3D);
	}
	line_pwr(OFF);
	temp = lineSensors.analogData[LINE_RIGHT];
     c56:	ed ed       	ldi	r30, 0xDD	; 221
     c58:	f1 e0       	ldi	r31, 0x01	; 1
     c5a:	81 85       	ldd	r24, Z+9	; 0x09
     c5c:	92 85       	ldd	r25, Z+10	; 0x0a
	lineSensors.analogData[LINE_RIGHT] = lineSensors.analogData[LINE_CRIGHT];
     c5e:	27 81       	ldd	r18, Z+7	; 0x07
     c60:	30 85       	ldd	r19, Z+8	; 0x08
     c62:	32 87       	std	Z+10, r19	; 0x0a
     c64:	21 87       	std	Z+9, r18	; 0x09
	lineSensors.analogData[LINE_CRIGHT] = temp;
     c66:	90 87       	std	Z+8, r25	; 0x08
     c68:	87 83       	std	Z+7, r24	; 0x07
     c6a:	22 ee       	ldi	r18, 0xE2	; 226
     c6c:	31 e0       	ldi	r19, 0x01	; 1
	
	for(uint8_t i=0; i<5; i++)
	{
		if (lineSensors.analogData[i] > LINE_TRESHOLD)	lineSensors.digitalData[i] = true;
     c6e:	41 e0       	ldi	r20, 0x01	; 1
     c70:	d8 01       	movw	r26, r16
     c72:	8d 91       	ld	r24, X+
     c74:	9d 91       	ld	r25, X+
     c76:	8d 01       	movw	r16, r26
     c78:	8b 38       	cpi	r24, 0x8B	; 139
     c7a:	92 40       	sbci	r25, 0x02	; 2
     c7c:	14 f0       	brlt	.+4      	; 0xc82 <lineRead+0x6a>
     c7e:	43 87       	std	Z+11, r20	; 0x0b
     c80:	01 c0       	rjmp	.+2      	; 0xc84 <lineRead+0x6c>
		else	lineSensors.digitalData[i] = false;
     c82:	13 86       	std	Z+11, r1	; 0x0b
     c84:	31 96       	adiw	r30, 0x01	; 1
	line_pwr(OFF);
	temp = lineSensors.analogData[LINE_RIGHT];
	lineSensors.analogData[LINE_RIGHT] = lineSensors.analogData[LINE_CRIGHT];
	lineSensors.analogData[LINE_CRIGHT] = temp;
	
	for(uint8_t i=0; i<5; i++)
     c86:	e2 17       	cp	r30, r18
     c88:	f3 07       	cpc	r31, r19
     c8a:	91 f7       	brne	.-28     	; 0xc70 <lineRead+0x58>
	{
		if (lineSensors.analogData[i] > LINE_TRESHOLD)	lineSensors.digitalData[i] = true;
		else	lineSensors.digitalData[i] = false;
	}
}
     c8c:	cf 91       	pop	r28
     c8e:	1f 91       	pop	r17
     c90:	0f 91       	pop	r16
     c92:	ff 90       	pop	r15
     c94:	ef 90       	pop	r14
     c96:	08 95       	ret

00000c98 <followTrack>:

int16_t followTrack()
{
	int16_t center;
	
	center = lineSensors.analogData[LINE_LEFT] + lineSensors.analogData[LINE_CLEFT] - lineSensors.analogData[LINE_CRIGHT] - lineSensors.analogData[LINE_RIGHT];
     c98:	ed ed       	ldi	r30, 0xDD	; 221
     c9a:	f1 e0       	ldi	r31, 0x01	; 1
	//center = 1*lineSensors.analogData[LINE_LEFT] + 2*lineSensors.analogData[LINE_CLEFT] + 3*lineSensors.analogData[LINE_CENTER] + 4*lineSensors.analogData[LINE_CRIGHT] + 5*lineSensors.analogData[LINE_RIGHT];
	
	return center;
     c9c:	21 81       	ldd	r18, Z+1	; 0x01
     c9e:	32 81       	ldd	r19, Z+2	; 0x02
     ca0:	83 81       	ldd	r24, Z+3	; 0x03
     ca2:	94 81       	ldd	r25, Z+4	; 0x04
     ca4:	82 0f       	add	r24, r18
     ca6:	93 1f       	adc	r25, r19
     ca8:	27 81       	ldd	r18, Z+7	; 0x07
     caa:	30 85       	ldd	r19, Z+8	; 0x08
     cac:	82 1b       	sub	r24, r18
     cae:	93 0b       	sbc	r25, r19
     cb0:	21 85       	ldd	r18, Z+9	; 0x09
     cb2:	32 85       	ldd	r19, Z+10	; 0x0a
}
     cb4:	82 1b       	sub	r24, r18
     cb6:	93 0b       	sbc	r25, r19
     cb8:	08 95       	ret

00000cba <motorDirection>:
void motorDirection(uint8_t directionL, uint8_t directionR)
{
	/************************************************************************/
	/* Linker Motor                                                         */
	/************************************************************************/
	if (directionL == MOT_FWD)
     cba:	81 30       	cpi	r24, 0x01	; 1
     cbc:	49 f4       	brne	.+18     	; 0xcd0 <motorDirection+0x16>
	{
		PORTC |= (1<<MOTOR_DIR_LA);
     cbe:	43 9a       	sbi	0x08, 3	; 8
		PORTC &= ~(1<<MOTOR_DIR_LB);
     cc0:	44 98       	cbi	0x08, 4	; 8
		motorStatus.leftDir = MOT_FWD;
     cc2:	e5 ec       	ldi	r30, 0xC5	; 197
     cc4:	f1 e0       	ldi	r31, 0x01	; 1
     cc6:	80 81       	ld	r24, Z
     cc8:	8c 7f       	andi	r24, 0xFC	; 252
     cca:	81 60       	ori	r24, 0x01	; 1
     ccc:	80 83       	st	Z, r24
     cce:	13 c0       	rjmp	.+38     	; 0xcf6 <motorDirection+0x3c>
	}
	else if (directionL == MOT_REV)
     cd0:	82 30       	cpi	r24, 0x02	; 2
     cd2:	49 f4       	brne	.+18     	; 0xce6 <motorDirection+0x2c>
	{
		PORTC |= (1<<MOTOR_DIR_LB);
     cd4:	44 9a       	sbi	0x08, 4	; 8
		PORTC &= ~(1<<MOTOR_DIR_LA);
     cd6:	43 98       	cbi	0x08, 3	; 8
		motorStatus.leftDir = MOT_REV;
     cd8:	e5 ec       	ldi	r30, 0xC5	; 197
     cda:	f1 e0       	ldi	r31, 0x01	; 1
     cdc:	80 81       	ld	r24, Z
     cde:	8c 7f       	andi	r24, 0xFC	; 252
     ce0:	82 60       	ori	r24, 0x02	; 2
     ce2:	80 83       	st	Z, r24
     ce4:	08 c0       	rjmp	.+16     	; 0xcf6 <motorDirection+0x3c>
	}
	else
	{
		PORTC &= ~( (1<<MOTOR_DIR_LA) | (1<<MOTOR_DIR_LB) );
     ce6:	88 b1       	in	r24, 0x08	; 8
     ce8:	87 7e       	andi	r24, 0xE7	; 231
     cea:	88 b9       	out	0x08, r24	; 8
		motorStatus.leftDir = MOT_BREAK;
     cec:	e5 ec       	ldi	r30, 0xC5	; 197
     cee:	f1 e0       	ldi	r31, 0x01	; 1
     cf0:	80 81       	ld	r24, Z
     cf2:	8c 7f       	andi	r24, 0xFC	; 252
     cf4:	80 83       	st	Z, r24
	}
	
	/************************************************************************/
	/* Rechter Motor                                                        */
	/************************************************************************/
	if (directionR == MOT_FWD)
     cf6:	61 30       	cpi	r22, 0x01	; 1
     cf8:	49 f4       	brne	.+18     	; 0xd0c <motorDirection+0x52>
	{
		PORTC &= ~(1<<MOTOR_DIR_RB);
     cfa:	42 98       	cbi	0x08, 2	; 8
		PORTD |= (1<<MOTOR_DIR_RA);
     cfc:	5c 9a       	sbi	0x0b, 4	; 11
		motorStatus.rightDir = MOT_FWD;
     cfe:	e5 ec       	ldi	r30, 0xC5	; 197
     d00:	f1 e0       	ldi	r31, 0x01	; 1
     d02:	80 81       	ld	r24, Z
     d04:	83 7f       	andi	r24, 0xF3	; 243
     d06:	84 60       	ori	r24, 0x04	; 4
     d08:	80 83       	st	Z, r24
     d0a:	08 95       	ret
	}
	else if (directionR == MOT_REV)
     d0c:	62 30       	cpi	r22, 0x02	; 2
     d0e:	49 f4       	brne	.+18     	; 0xd22 <motorDirection+0x68>
	{
		PORTC |= (1<<MOTOR_DIR_RB);
     d10:	42 9a       	sbi	0x08, 2	; 8
		PORTD &= ~(1<<MOTOR_DIR_RA);
     d12:	5c 98       	cbi	0x0b, 4	; 11
		motorStatus.rightDir = MOT_REV;
     d14:	e5 ec       	ldi	r30, 0xC5	; 197
     d16:	f1 e0       	ldi	r31, 0x01	; 1
     d18:	80 81       	ld	r24, Z
     d1a:	83 7f       	andi	r24, 0xF3	; 243
     d1c:	88 60       	ori	r24, 0x08	; 8
     d1e:	80 83       	st	Z, r24
     d20:	08 95       	ret
	}
	else
	{
		PORTC &= ~(1<<MOTOR_DIR_RB);
     d22:	42 98       	cbi	0x08, 2	; 8
		PORTD &= ~(1<<MOTOR_DIR_RA);
     d24:	5c 98       	cbi	0x0b, 4	; 11
		motorStatus.rightDir = MOT_BREAK;
     d26:	e5 ec       	ldi	r30, 0xC5	; 197
     d28:	f1 e0       	ldi	r31, 0x01	; 1
     d2a:	80 81       	ld	r24, Z
     d2c:	83 7f       	andi	r24, 0xF3	; 243
     d2e:	80 83       	st	Z, r24
     d30:	08 95       	ret

00000d32 <motor_speed>:
	
}

void motor_speed(int16_t left, int16_t right)
{
	motorStatus.speedRight = right;
     d32:	e5 ec       	ldi	r30, 0xC5	; 197
     d34:	f1 e0       	ldi	r31, 0x01	; 1
     d36:	74 83       	std	Z+4, r23	; 0x04
     d38:	63 83       	std	Z+3, r22	; 0x03
	motorStatus.speedLeft = left + motorStatus.deltaLeft;
     d3a:	25 81       	ldd	r18, Z+5	; 0x05
     d3c:	82 0f       	add	r24, r18
     d3e:	91 1d       	adc	r25, r1
     d40:	27 fd       	sbrc	r18, 7
     d42:	9a 95       	dec	r25
	
	if (motorStatus.speedLeft  > UINT8_MAX)
     d44:	8f 3f       	cpi	r24, 0xFF	; 255
     d46:	91 05       	cpc	r25, r1
     d48:	41 f0       	breq	.+16     	; 0xd5a <motor_speed+0x28>
     d4a:	3c f0       	brlt	.+14     	; 0xd5a <motor_speed+0x28>
	{
		motorStatus.speedLeft  = UINT8_MAX;
     d4c:	8f ef       	ldi	r24, 0xFF	; 255
     d4e:	90 e0       	ldi	r25, 0x00	; 0
     d50:	90 93 c7 01 	sts	0x01C7, r25	; 0x8001c7 <motorStatus+0x2>
     d54:	80 93 c6 01 	sts	0x01C6, r24	; 0x8001c6 <motorStatus+0x1>
     d58:	0b c0       	rjmp	.+22     	; 0xd70 <motor_speed+0x3e>
	}
	else if (motorStatus.speedLeft  < 0)
     d5a:	99 23       	and	r25, r25
     d5c:	2c f0       	brlt	.+10     	; 0xd68 <motor_speed+0x36>
}

void motor_speed(int16_t left, int16_t right)
{
	motorStatus.speedRight = right;
	motorStatus.speedLeft = left + motorStatus.deltaLeft;
     d5e:	90 93 c7 01 	sts	0x01C7, r25	; 0x8001c7 <motorStatus+0x2>
     d62:	80 93 c6 01 	sts	0x01C6, r24	; 0x8001c6 <motorStatus+0x1>
     d66:	04 c0       	rjmp	.+8      	; 0xd70 <motor_speed+0x3e>
	{
		motorStatus.speedLeft  = UINT8_MAX;
	}
	else if (motorStatus.speedLeft  < 0)
	{
		motorStatus.speedLeft  = 0;
     d68:	10 92 c7 01 	sts	0x01C7, r1	; 0x8001c7 <motorStatus+0x2>
     d6c:	10 92 c6 01 	sts	0x01C6, r1	; 0x8001c6 <motorStatus+0x1>
	}
	
	if (motorStatus.speedRight > UINT8_MAX)
     d70:	6f 3f       	cpi	r22, 0xFF	; 255
     d72:	71 05       	cpc	r23, r1
     d74:	41 f0       	breq	.+16     	; 0xd86 <motor_speed+0x54>
     d76:	3c f0       	brlt	.+14     	; 0xd86 <motor_speed+0x54>
	{
		motorStatus.speedRight = UINT8_MAX;
     d78:	8f ef       	ldi	r24, 0xFF	; 255
     d7a:	90 e0       	ldi	r25, 0x00	; 0
     d7c:	90 93 c9 01 	sts	0x01C9, r25	; 0x8001c9 <motorStatus+0x4>
     d80:	80 93 c8 01 	sts	0x01C8, r24	; 0x8001c8 <motorStatus+0x3>
     d84:	06 c0       	rjmp	.+12     	; 0xd92 <motor_speed+0x60>
	}
	else if (motorStatus.speedRight < 0)
     d86:	77 23       	and	r23, r23
     d88:	24 f4       	brge	.+8      	; 0xd92 <motor_speed+0x60>
	{
		motorStatus.speedRight = 0;
     d8a:	10 92 c9 01 	sts	0x01C9, r1	; 0x8001c9 <motorStatus+0x4>
     d8e:	10 92 c8 01 	sts	0x01C8, r1	; 0x8001c8 <motorStatus+0x3>
	}
	
	// Set Left Motor Speed
	OCR2A = (uint8_t)motorStatus.speedLeft;
     d92:	e5 ec       	ldi	r30, 0xC5	; 197
     d94:	f1 e0       	ldi	r31, 0x01	; 1
     d96:	81 81       	ldd	r24, Z+1	; 0x01
     d98:	80 93 b3 00 	sts	0x00B3, r24	; 0x8000b3 <__TEXT_REGION_LENGTH__+0x7e00b3>
	OCR2B = (uint8_t)motorStatus.speedRight;
     d9c:	83 81       	ldd	r24, Z+3	; 0x03
     d9e:	80 93 b4 00 	sts	0x00B4, r24	; 0x8000b4 <__TEXT_REGION_LENGTH__+0x7e00b4>
     da2:	08 95       	ret

00000da4 <rotate>:
}

void rotate(uint8_t direction, uint16_t angle, uint8_t blocking)
{
     da4:	cf 92       	push	r12
     da6:	df 92       	push	r13
     da8:	ef 92       	push	r14
     daa:	ff 92       	push	r15
     dac:	0f 93       	push	r16
     dae:	1f 93       	push	r17
     db0:	cf 93       	push	r28
     db2:	df 93       	push	r29
     db4:	08 2f       	mov	r16, r24
     db6:	14 2f       	mov	r17, r20
	angle = (motorStatus.rotateGain * angle) + motorStatus.rotateOffset;
     db8:	c5 ec       	ldi	r28, 0xC5	; 197
     dba:	d1 e0       	ldi	r29, 0x01	; 1
     dbc:	80 e0       	ldi	r24, 0x00	; 0
     dbe:	90 e0       	ldi	r25, 0x00	; 0
     dc0:	0e 94 c0 0c 	call	0x1980	; 0x1980 <__floatunsisf>
     dc4:	2c 85       	ldd	r18, Y+12	; 0x0c
     dc6:	3d 85       	ldd	r19, Y+13	; 0x0d
     dc8:	4e 85       	ldd	r20, Y+14	; 0x0e
     dca:	5f 85       	ldd	r21, Y+15	; 0x0f
     dcc:	0e 94 4e 0d 	call	0x1a9c	; 0x1a9c <__mulsf3>
     dd0:	6b 01       	movw	r12, r22
     dd2:	7c 01       	movw	r14, r24
     dd4:	68 89       	ldd	r22, Y+16	; 0x10
     dd6:	70 e0       	ldi	r23, 0x00	; 0
     dd8:	80 e0       	ldi	r24, 0x00	; 0
     dda:	90 e0       	ldi	r25, 0x00	; 0
     ddc:	0e 94 c2 0c 	call	0x1984	; 0x1984 <__floatsisf>
     de0:	9b 01       	movw	r18, r22
     de2:	ac 01       	movw	r20, r24
     de4:	c7 01       	movw	r24, r14
     de6:	b6 01       	movw	r22, r12
     de8:	0e 94 25 0c 	call	0x184a	; 0x184a <__addsf3>
     dec:	0e 94 91 0c 	call	0x1922	; 0x1922 <__fixunssfsi>
     df0:	6b 01       	movw	r12, r22
     df2:	7c 01       	movw	r14, r24
     df4:	eb 01       	movw	r28, r22
	
	
		uint16_t timer;
		motor_speed(TURN_SPEED, TURN_SPEED);
     df6:	6a e5       	ldi	r22, 0x5A	; 90
     df8:	70 e0       	ldi	r23, 0x00	; 0
     dfa:	8a e5       	ldi	r24, 0x5A	; 90
     dfc:	90 e0       	ldi	r25, 0x00	; 0
     dfe:	0e 94 99 06 	call	0xd32	; 0xd32 <motor_speed>
		
		if (blocking == BLOCKING)
     e02:	11 11       	cpse	r17, r1
     e04:	3c c0       	rjmp	.+120    	; 0xe7e <rotate+0xda>
		{
			if (direction == LEFT)
     e06:	01 11       	cpse	r16, r1
     e08:	1c c0       	rjmp	.+56     	; 0xe42 <rotate+0x9e>
			{
				motorDirection(MOT_REV, MOT_FWD);
     e0a:	61 e0       	ldi	r22, 0x01	; 1
     e0c:	82 e0       	ldi	r24, 0x02	; 2
     e0e:	0e 94 5d 06 	call	0xcba	; 0xcba <motorDirection>
				setStopwatch8(0);
     e12:	ef ef       	ldi	r30, 0xFF	; 255
     e14:	f1 e0       	ldi	r31, 0x01	; 1
     e16:	10 8a       	std	Z+16, r1	; 0x10
     e18:	17 86       	std	Z+15, r1	; 0x0f
				startStopwatch8();
     e1a:	80 81       	ld	r24, Z
     e1c:	80 68       	ori	r24, 0x80	; 128
     e1e:	80 83       	st	Z, r24
    return 1;
}

static __inline__ uint8_t __iCliRetVal(void)
{
    cli();
     e20:	f8 94       	cli
				do
				{
					ATOMIC_BLOCK(ATOMIC_FORCEON)
					{
						timer = getStopwatch8();
     e22:	87 85       	ldd	r24, Z+15	; 0x0f
     e24:	90 89       	ldd	r25, Z+16	; 0x10
    return 1;
}

static __inline__ void __iSeiParam(const uint8_t *__s)
{
    sei();
     e26:	78 94       	sei
					}
				}while(timer < angle);
     e28:	8c 17       	cp	r24, r28
     e2a:	9d 07       	cpc	r25, r29
     e2c:	c8 f3       	brcs	.-14     	; 0xe20 <rotate+0x7c>
				
				motorDirection(MOT_BREAK, MOT_BREAK);
     e2e:	60 e0       	ldi	r22, 0x00	; 0
     e30:	80 e0       	ldi	r24, 0x00	; 0
     e32:	0e 94 5d 06 	call	0xcba	; 0xcba <motorDirection>
				stopStopwatch8();
     e36:	ef ef       	ldi	r30, 0xFF	; 255
     e38:	f1 e0       	ldi	r31, 0x01	; 1
     e3a:	80 81       	ld	r24, Z
     e3c:	8f 77       	andi	r24, 0x7F	; 127
     e3e:	80 83       	st	Z, r24
     e40:	3d c0       	rjmp	.+122    	; 0xebc <rotate+0x118>
			}
			else if (direction == RIGHT)
     e42:	01 30       	cpi	r16, 0x01	; 1
     e44:	d9 f5       	brne	.+118    	; 0xebc <rotate+0x118>
			{
				motorDirection(MOT_FWD, MOT_REV);
     e46:	62 e0       	ldi	r22, 0x02	; 2
     e48:	81 e0       	ldi	r24, 0x01	; 1
     e4a:	0e 94 5d 06 	call	0xcba	; 0xcba <motorDirection>
				setStopwatch8(0);
     e4e:	ef ef       	ldi	r30, 0xFF	; 255
     e50:	f1 e0       	ldi	r31, 0x01	; 1
     e52:	10 8a       	std	Z+16, r1	; 0x10
     e54:	17 86       	std	Z+15, r1	; 0x0f
				startStopwatch8();
     e56:	80 81       	ld	r24, Z
     e58:	80 68       	ori	r24, 0x80	; 128
     e5a:	80 83       	st	Z, r24
    return 1;
}

static __inline__ uint8_t __iCliRetVal(void)
{
    cli();
     e5c:	f8 94       	cli
				do
				{
					ATOMIC_BLOCK(ATOMIC_FORCEON)
					{
						timer = getStopwatch8();
     e5e:	87 85       	ldd	r24, Z+15	; 0x0f
     e60:	90 89       	ldd	r25, Z+16	; 0x10
    return 1;
}

static __inline__ void __iSeiParam(const uint8_t *__s)
{
    sei();
     e62:	78 94       	sei
					}
				}while(timer < angle);
     e64:	8c 17       	cp	r24, r28
     e66:	9d 07       	cpc	r25, r29
     e68:	c8 f3       	brcs	.-14     	; 0xe5c <rotate+0xb8>
				
				motorDirection(MOT_BREAK, MOT_BREAK);
     e6a:	60 e0       	ldi	r22, 0x00	; 0
     e6c:	80 e0       	ldi	r24, 0x00	; 0
     e6e:	0e 94 5d 06 	call	0xcba	; 0xcba <motorDirection>
				stopStopwatch8();
     e72:	ef ef       	ldi	r30, 0xFF	; 255
     e74:	f1 e0       	ldi	r31, 0x01	; 1
     e76:	80 81       	ld	r24, Z
     e78:	8f 77       	andi	r24, 0x7F	; 127
     e7a:	80 83       	st	Z, r24
     e7c:	1f c0       	rjmp	.+62     	; 0xebc <rotate+0x118>
			}
		}
		else if (blocking == NO_BLOCKING)
     e7e:	11 30       	cpi	r17, 0x01	; 1
     e80:	e9 f4       	brne	.+58     	; 0xebc <rotate+0x118>
		{
			
			if (direction == LEFT)	motorDirection(MOT_REV, MOT_FWD);
     e82:	01 11       	cpse	r16, r1
     e84:	05 c0       	rjmp	.+10     	; 0xe90 <rotate+0xec>
     e86:	61 e0       	ldi	r22, 0x01	; 1
     e88:	82 e0       	ldi	r24, 0x02	; 2
     e8a:	0e 94 5d 06 	call	0xcba	; 0xcba <motorDirection>
     e8e:	06 c0       	rjmp	.+12     	; 0xe9c <rotate+0xf8>
			else if (direction == RIGHT) motorDirection(MOT_FWD, MOT_REV);
     e90:	01 30       	cpi	r16, 0x01	; 1
     e92:	21 f4       	brne	.+8      	; 0xe9c <rotate+0xf8>
     e94:	62 e0       	ldi	r22, 0x02	; 2
     e96:	81 e0       	ldi	r24, 0x01	; 1
     e98:	0e 94 5d 06 	call	0xcba	; 0xcba <motorDirection>
			
			motorStatus.autoDrive= true;
     e9c:	e5 ec       	ldi	r30, 0xC5	; 197
     e9e:	f1 e0       	ldi	r31, 0x01	; 1
     ea0:	80 81       	ld	r24, Z
     ea2:	80 61       	ori	r24, 0x10	; 16
     ea4:	80 83       	st	Z, r24
			setStopwatch6(0);
     ea6:	af ef       	ldi	r26, 0xFF	; 255
     ea8:	b1 e0       	ldi	r27, 0x01	; 1
     eaa:	1c 96       	adiw	r26, 0x0c	; 12
     eac:	1c 92       	st	X, r1
     eae:	1e 92       	st	-X, r1
     eb0:	1b 97       	sbiw	r26, 0x0b	; 11
			startStopwatch6();
     eb2:	8c 91       	ld	r24, X
     eb4:	80 62       	ori	r24, 0x20	; 32
     eb6:	8c 93       	st	X, r24
			motorStatus.timer = angle;
     eb8:	d3 86       	std	Z+11, r13	; 0x0b
     eba:	c2 86       	std	Z+10, r12	; 0x0a
		}
	
}
     ebc:	df 91       	pop	r29
     ebe:	cf 91       	pop	r28
     ec0:	1f 91       	pop	r17
     ec2:	0f 91       	pop	r16
     ec4:	ff 90       	pop	r15
     ec6:	ef 90       	pop	r14
     ec8:	df 90       	pop	r13
     eca:	cf 90       	pop	r12
     ecc:	08 95       	ret

00000ece <motorInit>:


void motorInit(void)
{
	motorDirection(MOT_BREAK, MOT_BREAK);
     ece:	60 e0       	ldi	r22, 0x00	; 0
     ed0:	80 e0       	ldi	r24, 0x00	; 0
     ed2:	0e 94 5d 06 	call	0xcba	; 0xcba <motorDirection>
	
	// Motor PWM Treiber Timer2
	// Mode 3 Fast-PWM, Prescaler 8 f_pwm = 7812 HZ
	TCCR2A |= (1<<COM2A1) | (1<<COM0B1) | (1<<WGM21) | (1<<WGM20);
     ed6:	e0 eb       	ldi	r30, 0xB0	; 176
     ed8:	f0 e0       	ldi	r31, 0x00	; 0
     eda:	80 81       	ld	r24, Z
     edc:	83 6a       	ori	r24, 0xA3	; 163
     ede:	80 83       	st	Z, r24
	TCCR2B |= (1<<CS21);
     ee0:	e1 eb       	ldi	r30, 0xB1	; 177
     ee2:	f0 e0       	ldi	r31, 0x00	; 0
     ee4:	80 81       	ld	r24, Z
     ee6:	82 60       	ori	r24, 0x02	; 2
     ee8:	80 83       	st	Z, r24
	//TIMSK2 |= (1<<TOIE2);
	OCR2A = 0x00;
     eea:	10 92 b3 00 	sts	0x00B3, r1	; 0x8000b3 <__TEXT_REGION_LENGTH__+0x7e00b3>
	OCR2B = 0x00;
     eee:	10 92 b4 00 	sts	0x00B4, r1	; 0x8000b4 <__TEXT_REGION_LENGTH__+0x7e00b4>
	
	motorStatus.rotateGain = ROTATE_GAIN;
     ef2:	e5 ec       	ldi	r30, 0xC5	; 197
     ef4:	f1 e0       	ldi	r31, 0x01	; 1
     ef6:	83 e3       	ldi	r24, 0x33	; 51
     ef8:	93 e3       	ldi	r25, 0x33	; 51
     efa:	ab ea       	ldi	r26, 0xAB	; 171
     efc:	b0 e4       	ldi	r27, 0x40	; 64
     efe:	84 87       	std	Z+12, r24	; 0x0c
     f00:	95 87       	std	Z+13, r25	; 0x0d
     f02:	a6 87       	std	Z+14, r26	; 0x0e
     f04:	b7 87       	std	Z+15, r27	; 0x0f
	motorStatus.rotateOffset = ROTATE_OFFSET;
     f06:	84 e6       	ldi	r24, 0x64	; 100
     f08:	80 8b       	std	Z+16, r24	; 0x10
	motorStatus.deltaLeft = MOTOR_DIFF_L;
     f0a:	83 ef       	ldi	r24, 0xF3	; 243
     f0c:	85 83       	std	Z+5, r24	; 0x05
     f0e:	08 95       	ret

00000f10 <pid_Init>:
 *  \param d_factor  Derivate term.
 *  \param pid  Struct with PID status.
 */
void pid_Init(int16_t p_factor, int16_t i_factor, int16_t d_factor, struct PID_DATA *pid)
// Set up PID controller parameters
{
     f10:	cf 93       	push	r28
     f12:	df 93       	push	r29
     f14:	eb 01       	movw	r28, r22
     f16:	f9 01       	movw	r30, r18
  // Start values for PID controller
  pid->sumError = 0;
     f18:	12 82       	std	Z+2, r1	; 0x02
     f1a:	13 82       	std	Z+3, r1	; 0x03
     f1c:	14 82       	std	Z+4, r1	; 0x04
     f1e:	15 82       	std	Z+5, r1	; 0x05
  pid->lastProcessValue = 0;
     f20:	11 82       	std	Z+1, r1	; 0x01
     f22:	10 82       	st	Z, r1
  // Tuning constants for PID loop
  pid->P_Factor = p_factor;
     f24:	97 83       	std	Z+7, r25	; 0x07
     f26:	86 83       	std	Z+6, r24	; 0x06
  pid->I_Factor = i_factor;
     f28:	71 87       	std	Z+9, r23	; 0x09
     f2a:	60 87       	std	Z+8, r22	; 0x08
  pid->D_Factor = d_factor;
     f2c:	53 87       	std	Z+11, r21	; 0x0b
     f2e:	42 87       	std	Z+10, r20	; 0x0a
  // Limits to avoid overflow
  pid->maxError = MAX_INT / (pid->P_Factor + 1);
     f30:	bc 01       	movw	r22, r24
     f32:	6f 5f       	subi	r22, 0xFF	; 255
     f34:	7f 4f       	sbci	r23, 0xFF	; 255
     f36:	8f ef       	ldi	r24, 0xFF	; 255
     f38:	9f e7       	ldi	r25, 0x7F	; 127
     f3a:	0e 94 bb 0d 	call	0x1b76	; 0x1b76 <__divmodhi4>
     f3e:	75 87       	std	Z+13, r23	; 0x0d
     f40:	64 87       	std	Z+12, r22	; 0x0c
  pid->maxSumError = MAX_I_TERM / (pid->I_Factor + 1);
     f42:	be 01       	movw	r22, r28
     f44:	6f 5f       	subi	r22, 0xFF	; 255
     f46:	7f 4f       	sbci	r23, 0xFF	; 255
     f48:	8f ef       	ldi	r24, 0xFF	; 255
     f4a:	9f e3       	ldi	r25, 0x3F	; 63
     f4c:	0e 94 bb 0d 	call	0x1b76	; 0x1b76 <__divmodhi4>
     f50:	cb 01       	movw	r24, r22
     f52:	77 0f       	add	r23, r23
     f54:	aa 0b       	sbc	r26, r26
     f56:	bb 0b       	sbc	r27, r27
     f58:	86 87       	std	Z+14, r24	; 0x0e
     f5a:	97 87       	std	Z+15, r25	; 0x0f
     f5c:	a0 8b       	std	Z+16, r26	; 0x10
     f5e:	b1 8b       	std	Z+17, r27	; 0x11
}
     f60:	df 91       	pop	r29
     f62:	cf 91       	pop	r28
     f64:	08 95       	ret

00000f66 <pid_Controller>:
 *  \param setPoint  Desired value.
 *  \param processValue  Measured value.
 *  \param pid_st  PID status struct.
 */
int16_t pid_Controller(int16_t setPoint, int16_t processValue, struct PID_DATA *pid_st)
{
     f66:	ef 92       	push	r14
     f68:	ff 92       	push	r15
     f6a:	0f 93       	push	r16
     f6c:	1f 93       	push	r17
     f6e:	cf 93       	push	r28
     f70:	df 93       	push	r29
     f72:	8b 01       	movw	r16, r22
     f74:	fa 01       	movw	r30, r20
  int16_t error, p_term, d_term;
  int32_t i_term, ret, temp;

  error = setPoint - processValue;
     f76:	86 1b       	sub	r24, r22
     f78:	97 0b       	sbc	r25, r23

  // Calculate Pterm and limit error overflow
  if (error > pid_st->maxError){
     f7a:	24 85       	ldd	r18, Z+12	; 0x0c
     f7c:	35 85       	ldd	r19, Z+13	; 0x0d
     f7e:	28 17       	cp	r18, r24
     f80:	39 07       	cpc	r19, r25
     f82:	84 f0       	brlt	.+32     	; 0xfa4 <pid_Controller+0x3e>
    p_term = MAX_INT;
  }
  else if (error < -pid_st->maxError){
     f84:	31 95       	neg	r19
     f86:	21 95       	neg	r18
     f88:	31 09       	sbc	r19, r1
     f8a:	82 17       	cp	r24, r18
     f8c:	93 07       	cpc	r25, r19
     f8e:	6c f0       	brlt	.+26     	; 0xfaa <pid_Controller+0x44>
    p_term = -MAX_INT;
  }
  else{
    p_term = pid_st->P_Factor * error;
     f90:	26 81       	ldd	r18, Z+6	; 0x06
     f92:	37 81       	ldd	r19, Z+7	; 0x07
     f94:	82 9f       	mul	r24, r18
     f96:	e0 01       	movw	r28, r0
     f98:	83 9f       	mul	r24, r19
     f9a:	d0 0d       	add	r29, r0
     f9c:	92 9f       	mul	r25, r18
     f9e:	d0 0d       	add	r29, r0
     fa0:	11 24       	eor	r1, r1
     fa2:	05 c0       	rjmp	.+10     	; 0xfae <pid_Controller+0x48>

  error = setPoint - processValue;

  // Calculate Pterm and limit error overflow
  if (error > pid_st->maxError){
    p_term = MAX_INT;
     fa4:	cf ef       	ldi	r28, 0xFF	; 255
     fa6:	df e7       	ldi	r29, 0x7F	; 127
     fa8:	02 c0       	rjmp	.+4      	; 0xfae <pid_Controller+0x48>
  }
  else if (error < -pid_st->maxError){
    p_term = -MAX_INT;
     faa:	c1 e0       	ldi	r28, 0x01	; 1
     fac:	d0 e8       	ldi	r29, 0x80	; 128
  else{
    p_term = pid_st->P_Factor * error;
  }

  // Calculate Iterm and limit integral runaway
  temp = pid_st->sumError + error;
     fae:	09 2e       	mov	r0, r25
     fb0:	00 0c       	add	r0, r0
     fb2:	aa 0b       	sbc	r26, r26
     fb4:	bb 0b       	sbc	r27, r27
     fb6:	42 81       	ldd	r20, Z+2	; 0x02
     fb8:	53 81       	ldd	r21, Z+3	; 0x03
     fba:	64 81       	ldd	r22, Z+4	; 0x04
     fbc:	75 81       	ldd	r23, Z+5	; 0x05
     fbe:	9a 01       	movw	r18, r20
     fc0:	ab 01       	movw	r20, r22
     fc2:	28 0f       	add	r18, r24
     fc4:	39 1f       	adc	r19, r25
     fc6:	4a 1f       	adc	r20, r26
     fc8:	5b 1f       	adc	r21, r27
  if(temp > pid_st->maxSumError){
     fca:	86 85       	ldd	r24, Z+14	; 0x0e
     fcc:	97 85       	ldd	r25, Z+15	; 0x0f
     fce:	a0 89       	ldd	r26, Z+16	; 0x10
     fd0:	b1 89       	ldd	r27, Z+17	; 0x11
     fd2:	82 17       	cp	r24, r18
     fd4:	93 07       	cpc	r25, r19
     fd6:	a4 07       	cpc	r26, r20
     fd8:	b5 07       	cpc	r27, r21
     fda:	4c f4       	brge	.+18     	; 0xfee <pid_Controller+0x88>
    i_term = MAX_I_TERM;
    pid_st->sumError = pid_st->maxSumError;
     fdc:	82 83       	std	Z+2, r24	; 0x02
     fde:	93 83       	std	Z+3, r25	; 0x03
     fe0:	a4 83       	std	Z+4, r26	; 0x04
     fe2:	b5 83       	std	Z+5, r27	; 0x05
  }

  // Calculate Iterm and limit integral runaway
  temp = pid_st->sumError + error;
  if(temp > pid_st->maxSumError){
    i_term = MAX_I_TERM;
     fe4:	6f ef       	ldi	r22, 0xFF	; 255
     fe6:	7f e3       	ldi	r23, 0x3F	; 63
     fe8:	80 e0       	ldi	r24, 0x00	; 0
     fea:	90 e0       	ldi	r25, 0x00	; 0
     fec:	1d c0       	rjmp	.+58     	; 0x1028 <pid_Controller+0xc2>
    pid_st->sumError = pid_st->maxSumError;
  }
  else if(temp < -pid_st->maxSumError){
     fee:	b0 95       	com	r27
     ff0:	a0 95       	com	r26
     ff2:	90 95       	com	r25
     ff4:	81 95       	neg	r24
     ff6:	9f 4f       	sbci	r25, 0xFF	; 255
     ff8:	af 4f       	sbci	r26, 0xFF	; 255
     ffa:	bf 4f       	sbci	r27, 0xFF	; 255
     ffc:	28 17       	cp	r18, r24
     ffe:	39 07       	cpc	r19, r25
    1000:	4a 07       	cpc	r20, r26
    1002:	5b 07       	cpc	r21, r27
    1004:	4c f4       	brge	.+18     	; 0x1018 <pid_Controller+0xb2>
    i_term = -MAX_I_TERM;
    pid_st->sumError = -pid_st->maxSumError;
    1006:	82 83       	std	Z+2, r24	; 0x02
    1008:	93 83       	std	Z+3, r25	; 0x03
    100a:	a4 83       	std	Z+4, r26	; 0x04
    100c:	b5 83       	std	Z+5, r27	; 0x05
  if(temp > pid_st->maxSumError){
    i_term = MAX_I_TERM;
    pid_st->sumError = pid_st->maxSumError;
  }
  else if(temp < -pid_st->maxSumError){
    i_term = -MAX_I_TERM;
    100e:	61 e0       	ldi	r22, 0x01	; 1
    1010:	70 ec       	ldi	r23, 0xC0	; 192
    1012:	8f ef       	ldi	r24, 0xFF	; 255
    1014:	9f ef       	ldi	r25, 0xFF	; 255
    1016:	08 c0       	rjmp	.+16     	; 0x1028 <pid_Controller+0xc2>
    pid_st->sumError = -pid_st->maxSumError;
  }
  else{
    pid_st->sumError = temp;
    1018:	22 83       	std	Z+2, r18	; 0x02
    101a:	33 83       	std	Z+3, r19	; 0x03
    101c:	44 83       	std	Z+4, r20	; 0x04
    101e:	55 83       	std	Z+5, r21	; 0x05
    i_term = pid_st->I_Factor * pid_st->sumError;
    1020:	a0 85       	ldd	r26, Z+8	; 0x08
    1022:	b1 85       	ldd	r27, Z+9	; 0x09
    1024:	0e 94 ef 0d 	call	0x1bde	; 0x1bde <__mulshisi3>
  }

  // Calculate Dterm
  d_term = pid_st->D_Factor * (pid_st->lastProcessValue - processValue);
    1028:	20 81       	ld	r18, Z
    102a:	31 81       	ldd	r19, Z+1	; 0x01
    102c:	20 1b       	sub	r18, r16
    102e:	31 0b       	sbc	r19, r17
    1030:	a2 85       	ldd	r26, Z+10	; 0x0a
    1032:	b3 85       	ldd	r27, Z+11	; 0x0b
    1034:	2a 9f       	mul	r18, r26
    1036:	70 01       	movw	r14, r0
    1038:	2b 9f       	mul	r18, r27
    103a:	f0 0c       	add	r15, r0
    103c:	3a 9f       	mul	r19, r26
    103e:	f0 0c       	add	r15, r0
    1040:	11 24       	eor	r1, r1

  pid_st->lastProcessValue = processValue;
    1042:	11 83       	std	Z+1, r17	; 0x01
    1044:	00 83       	st	Z, r16

  ret = (p_term + i_term + d_term) / SCALING_FACTOR;
    1046:	8e 01       	movw	r16, r28
    1048:	dd 0f       	add	r29, r29
    104a:	22 0b       	sbc	r18, r18
    104c:	33 0b       	sbc	r19, r19
    104e:	ab 01       	movw	r20, r22
    1050:	bc 01       	movw	r22, r24
    1052:	40 0f       	add	r20, r16
    1054:	51 1f       	adc	r21, r17
    1056:	62 1f       	adc	r22, r18
    1058:	73 1f       	adc	r23, r19
    105a:	c7 01       	movw	r24, r14
    105c:	ff 0c       	add	r15, r15
    105e:	aa 0b       	sbc	r26, r26
    1060:	bb 0b       	sbc	r27, r27
    1062:	48 0f       	add	r20, r24
    1064:	59 1f       	adc	r21, r25
    1066:	6a 1f       	adc	r22, r26
    1068:	7b 1f       	adc	r23, r27
    106a:	db 01       	movw	r26, r22
    106c:	ca 01       	movw	r24, r20
    106e:	77 23       	and	r23, r23
    1070:	24 f4       	brge	.+8      	; 0x107a <pid_Controller+0x114>
    1072:	81 58       	subi	r24, 0x81	; 129
    1074:	9f 4f       	sbci	r25, 0xFF	; 255
    1076:	af 4f       	sbci	r26, 0xFF	; 255
    1078:	bf 4f       	sbci	r27, 0xFF	; 255
    107a:	68 94       	set
    107c:	16 f8       	bld	r1, 6
    107e:	b5 95       	asr	r27
    1080:	a7 95       	ror	r26
    1082:	97 95       	ror	r25
    1084:	87 95       	ror	r24
    1086:	16 94       	lsr	r1
    1088:	d1 f7       	brne	.-12     	; 0x107e <pid_Controller+0x118>
    108a:	81 30       	cpi	r24, 0x01	; 1
    108c:	20 e8       	ldi	r18, 0x80	; 128
    108e:	92 07       	cpc	r25, r18
    1090:	2f ef       	ldi	r18, 0xFF	; 255
    1092:	a2 07       	cpc	r26, r18
    1094:	b2 07       	cpc	r27, r18
    1096:	24 f4       	brge	.+8      	; 0x10a0 <pid_Controller+0x13a>
    1098:	81 e0       	ldi	r24, 0x01	; 1
    109a:	90 e8       	ldi	r25, 0x80	; 128
    109c:	af ef       	ldi	r26, 0xFF	; 255
    109e:	bf ef       	ldi	r27, 0xFF	; 255
  }
  else if(ret < -MAX_INT){
    ret = -MAX_INT;
  }

  return((int16_t)ret);
    10a0:	81 15       	cp	r24, r1
    10a2:	20 e8       	ldi	r18, 0x80	; 128
    10a4:	92 07       	cpc	r25, r18
    10a6:	a1 05       	cpc	r26, r1
    10a8:	b1 05       	cpc	r27, r1
    10aa:	24 f0       	brlt	.+8      	; 0x10b4 <pid_Controller+0x14e>
    10ac:	8f ef       	ldi	r24, 0xFF	; 255
    10ae:	9f e7       	ldi	r25, 0x7F	; 127
    10b0:	a0 e0       	ldi	r26, 0x00	; 0
    10b2:	b0 e0       	ldi	r27, 0x00	; 0
}
    10b4:	df 91       	pop	r29
    10b6:	cf 91       	pop	r28
    10b8:	1f 91       	pop	r17
    10ba:	0f 91       	pop	r16
    10bc:	ff 90       	pop	r15
    10be:	ef 90       	pop	r14
    10c0:	08 95       	ret

000010c2 <pid_Reset_Integrator>:
 *
 *  Calling this function will reset the integrator in the PID regulator.
 */
void pid_Reset_Integrator(pidData_t *pid_st)
{
  pid_st->sumError = 0;
    10c2:	fc 01       	movw	r30, r24
    10c4:	12 82       	std	Z+2, r1	; 0x02
    10c6:	13 82       	std	Z+3, r1	; 0x03
    10c8:	14 82       	std	Z+4, r1	; 0x04
    10ca:	15 82       	std	Z+5, r1	; 0x05
    10cc:	08 95       	ret

000010ce <line_update_DUMMY>:
 * Use this function to set the drive state change handler. 
 * 
 */
void drive_setStateChangedHandler(void (*driveHandler)(void)) 
{
	drive_stateChangedHandler = driveHandler;
    10ce:	08 95       	ret

000010d0 <battery_update_DUMMY>:
    10d0:	08 95       	ret

000010d2 <com_update_DUMMY>:
    10d2:	08 95       	ret

000010d4 <drive_update_DUMMY>:
    10d4:	08 95       	ret

000010d6 <adc_Read>:
    10d6:	ec e7       	ldi	r30, 0x7C	; 124
    10d8:	f0 e0       	ldi	r31, 0x00	; 0
    10da:	90 81       	ld	r25, Z
    10dc:	90 7e       	andi	r25, 0xE0	; 224
    10de:	8f 71       	andi	r24, 0x1F	; 31
    10e0:	89 2b       	or	r24, r25
    10e2:	80 83       	st	Z, r24
    10e4:	ea e7       	ldi	r30, 0x7A	; 122
    10e6:	f0 e0       	ldi	r31, 0x00	; 0
    10e8:	80 81       	ld	r24, Z
    10ea:	80 64       	ori	r24, 0x40	; 64
    10ec:	80 83       	st	Z, r24
    10ee:	80 81       	ld	r24, Z
    10f0:	86 fd       	sbrc	r24, 6
    10f2:	fd cf       	rjmp	.-6      	; 0x10ee <adc_Read+0x18>
    10f4:	80 91 78 00 	lds	r24, 0x0078	; 0x800078 <__TEXT_REGION_LENGTH__+0x7e0078>
    10f8:	90 91 79 00 	lds	r25, 0x0079	; 0x800079 <__TEXT_REGION_LENGTH__+0x7e0079>
    10fc:	08 95       	ret

000010fe <batt_voltage>:
    10fe:	82 e0       	ldi	r24, 0x02	; 2
    1100:	0e 94 6b 08 	call	0x10d6	; 0x10d6 <adc_Read>
    1104:	a0 e0       	ldi	r26, 0x00	; 0
    1106:	b0 e0       	ldi	r27, 0x00	; 0
    1108:	9c 01       	movw	r18, r24
    110a:	ad 01       	movw	r20, r26
    110c:	22 0f       	add	r18, r18
    110e:	33 1f       	adc	r19, r19
    1110:	44 1f       	adc	r20, r20
    1112:	55 1f       	adc	r21, r21
    1114:	a8 e8       	ldi	r26, 0x88	; 136
    1116:	b3 e1       	ldi	r27, 0x13	; 19
    1118:	0e 94 e4 0d 	call	0x1bc8	; 0x1bc8 <__muluhisi3>
    111c:	dc 01       	movw	r26, r24
    111e:	cb 01       	movw	r24, r22
    1120:	07 2e       	mov	r0, r23
    1122:	7a e0       	ldi	r23, 0x0A	; 10
    1124:	b6 95       	lsr	r27
    1126:	a7 95       	ror	r26
    1128:	97 95       	ror	r25
    112a:	87 95       	ror	r24
    112c:	7a 95       	dec	r23
    112e:	d1 f7       	brne	.-12     	; 0x1124 <__stack+0x25>
    1130:	70 2d       	mov	r23, r0
    1132:	08 95       	ret

00001134 <setStatusLED>:
    1134:	95 b1       	in	r25, 0x05	; 5
    1136:	93 60       	ori	r25, 0x03	; 3
    1138:	95 b9       	out	0x05, r25	; 5
    113a:	81 30       	cpi	r24, 0x01	; 1
    113c:	11 f4       	brne	.+4      	; 0x1142 <setStatusLED+0xe>
    113e:	29 98       	cbi	0x05, 1	; 5
    1140:	08 95       	ret
    1142:	81 11       	cpse	r24, r1
    1144:	02 c0       	rjmp	.+4      	; 0x114a <setStatusLED+0x16>
    1146:	28 98       	cbi	0x05, 0	; 5
    1148:	08 95       	ret
    114a:	83 30       	cpi	r24, 0x03	; 3
    114c:	19 f4       	brne	.+6      	; 0x1154 <setStatusLED+0x20>
    114e:	85 b1       	in	r24, 0x05	; 5
    1150:	8c 7f       	andi	r24, 0xFC	; 252
    1152:	85 b9       	out	0x05, r24	; 5
    1154:	08 95       	ret

00001156 <waitStart>:
    1156:	0f 93       	push	r16
    1158:	1f 93       	push	r17
    115a:	cf 93       	push	r28
    115c:	df 93       	push	r29
    115e:	ef ef       	ldi	r30, 0xFF	; 255
    1160:	f1 e0       	ldi	r31, 0x01	; 1
    1162:	80 81       	ld	r24, Z
    1164:	81 60       	ori	r24, 0x01	; 1
    1166:	80 83       	st	Z, r24
    1168:	10 e0       	ldi	r17, 0x00	; 0
    116a:	ef 01       	movw	r28, r30
    116c:	01 e0       	ldi	r16, 0x01	; 1
    116e:	10 c0       	rjmp	.+32     	; 0x1190 <waitStart+0x3a>
    1170:	89 81       	ldd	r24, Y+1	; 0x01
    1172:	9a 81       	ldd	r25, Y+2	; 0x02
    1174:	85 3f       	cpi	r24, 0xF5	; 245
    1176:	91 40       	sbci	r25, 0x01	; 1
    1178:	58 f0       	brcs	.+22     	; 0x1190 <waitStart+0x3a>
    117a:	10 27       	eor	r17, r16
    117c:	21 f0       	breq	.+8      	; 0x1186 <waitStart+0x30>
    117e:	80 e0       	ldi	r24, 0x00	; 0
    1180:	0e 94 9a 08 	call	0x1134	; 0x1134 <setStatusLED>
    1184:	03 c0       	rjmp	.+6      	; 0x118c <waitStart+0x36>
    1186:	8a e0       	ldi	r24, 0x0A	; 10
    1188:	0e 94 9a 08 	call	0x1134	; 0x1134 <setStatusLED>
    118c:	1a 82       	std	Y+2, r1	; 0x02
    118e:	19 82       	std	Y+1, r1	; 0x01
    1190:	1c 99       	sbic	0x03, 4	; 3
    1192:	ee cf       	rjmp	.-36     	; 0x1170 <waitStart+0x1a>
    1194:	e6 ed       	ldi	r30, 0xD6	; 214
    1196:	f1 e0       	ldi	r31, 0x01	; 1
    1198:	80 81       	ld	r24, Z
    119a:	81 60       	ori	r24, 0x01	; 1
    119c:	80 83       	st	Z, r24
    119e:	ef ef       	ldi	r30, 0xFF	; 255
    11a0:	f1 e0       	ldi	r31, 0x01	; 1
    11a2:	12 82       	std	Z+2, r1	; 0x02
    11a4:	11 82       	std	Z+1, r1	; 0x01
    11a6:	80 81       	ld	r24, Z
    11a8:	8e 7f       	andi	r24, 0xFE	; 254
    11aa:	80 83       	st	Z, r24
    11ac:	8a e0       	ldi	r24, 0x0A	; 10
    11ae:	0e 94 9a 08 	call	0x1134	; 0x1134 <setStatusLED>
    11b2:	df 91       	pop	r29
    11b4:	cf 91       	pop	r28
    11b6:	1f 91       	pop	r17
    11b8:	0f 91       	pop	r16
    11ba:	08 95       	ret

000011bc <enableDevice>:
    11bc:	81 30       	cpi	r24, 0x01	; 1
    11be:	11 f1       	breq	.+68     	; 0x1204 <enableDevice+0x48>
    11c0:	d0 f0       	brcs	.+52     	; 0x11f6 <enableDevice+0x3a>
    11c2:	83 30       	cpi	r24, 0x03	; 3
    11c4:	89 f0       	breq	.+34     	; 0x11e8 <enableDevice+0x2c>
    11c6:	8f 3f       	cpi	r24, 0xFF	; 255
    11c8:	19 f5       	brne	.+70     	; 0x1210 <enableDevice+0x54>
    11ca:	2a 98       	cbi	0x05, 2	; 5
    11cc:	47 9a       	sbi	0x08, 7	; 8
    11ce:	45 98       	cbi	0x08, 5	; 8
    11d0:	e6 ed       	ldi	r30, 0xD6	; 214
    11d2:	f1 e0       	ldi	r31, 0x01	; 1
    11d4:	80 81       	ld	r24, Z
    11d6:	84 60       	ori	r24, 0x04	; 4
    11d8:	80 61       	ori	r24, 0x10	; 16
    11da:	80 83       	st	Z, r24
    11dc:	ed ed       	ldi	r30, 0xDD	; 221
    11de:	f1 e0       	ldi	r31, 0x01	; 1
    11e0:	80 81       	ld	r24, Z
    11e2:	82 60       	ori	r24, 0x02	; 2
    11e4:	80 83       	st	Z, r24
    11e6:	08 95       	ret
    11e8:	2a 98       	cbi	0x05, 2	; 5
    11ea:	e6 ed       	ldi	r30, 0xD6	; 214
    11ec:	f1 e0       	ldi	r31, 0x01	; 1
    11ee:	80 81       	ld	r24, Z
    11f0:	80 61       	ori	r24, 0x10	; 16
    11f2:	80 83       	st	Z, r24
    11f4:	08 95       	ret
    11f6:	47 9a       	sbi	0x08, 7	; 8
    11f8:	ed ed       	ldi	r30, 0xDD	; 221
    11fa:	f1 e0       	ldi	r31, 0x01	; 1
    11fc:	80 81       	ld	r24, Z
    11fe:	82 60       	ori	r24, 0x02	; 2
    1200:	80 83       	st	Z, r24
    1202:	08 95       	ret
    1204:	45 98       	cbi	0x08, 5	; 8
    1206:	e6 ed       	ldi	r30, 0xD6	; 214
    1208:	f1 e0       	ldi	r31, 0x01	; 1
    120a:	80 81       	ld	r24, Z
    120c:	84 60       	ori	r24, 0x04	; 4
    120e:	80 83       	st	Z, r24
    1210:	08 95       	ret

00001212 <disableDevice>:
    1212:	81 30       	cpi	r24, 0x01	; 1
    1214:	11 f1       	breq	.+68     	; 0x125a <disableDevice+0x48>
    1216:	d0 f0       	brcs	.+52     	; 0x124c <disableDevice+0x3a>
    1218:	83 30       	cpi	r24, 0x03	; 3
    121a:	89 f0       	breq	.+34     	; 0x123e <disableDevice+0x2c>
    121c:	8f 3f       	cpi	r24, 0xFF	; 255
    121e:	19 f5       	brne	.+70     	; 0x1266 <disableDevice+0x54>
    1220:	2a 9a       	sbi	0x05, 2	; 5
    1222:	47 98       	cbi	0x08, 7	; 8
    1224:	45 9a       	sbi	0x08, 5	; 8
    1226:	e6 ed       	ldi	r30, 0xD6	; 214
    1228:	f1 e0       	ldi	r31, 0x01	; 1
    122a:	80 81       	ld	r24, Z
    122c:	8b 7f       	andi	r24, 0xFB	; 251
    122e:	8f 7e       	andi	r24, 0xEF	; 239
    1230:	80 83       	st	Z, r24
    1232:	ed ed       	ldi	r30, 0xDD	; 221
    1234:	f1 e0       	ldi	r31, 0x01	; 1
    1236:	80 81       	ld	r24, Z
    1238:	8d 7f       	andi	r24, 0xFD	; 253
    123a:	80 83       	st	Z, r24
    123c:	08 95       	ret
    123e:	2a 9a       	sbi	0x05, 2	; 5
    1240:	e6 ed       	ldi	r30, 0xD6	; 214
    1242:	f1 e0       	ldi	r31, 0x01	; 1
    1244:	80 81       	ld	r24, Z
    1246:	8f 7e       	andi	r24, 0xEF	; 239
    1248:	80 83       	st	Z, r24
    124a:	08 95       	ret
    124c:	47 98       	cbi	0x08, 7	; 8
    124e:	ed ed       	ldi	r30, 0xDD	; 221
    1250:	f1 e0       	ldi	r31, 0x01	; 1
    1252:	80 81       	ld	r24, Z
    1254:	8d 7f       	andi	r24, 0xFD	; 253
    1256:	80 83       	st	Z, r24
    1258:	08 95       	ret
    125a:	45 9a       	sbi	0x08, 5	; 8
    125c:	e6 ed       	ldi	r30, 0xD6	; 214
    125e:	f1 e0       	ldi	r31, 0x01	; 1
    1260:	80 81       	ld	r24, Z
    1262:	8b 7f       	andi	r24, 0xFB	; 251
    1264:	80 83       	st	Z, r24
    1266:	08 95       	ret

00001268 <uart_putInt>:
    1268:	cf 93       	push	r28
    126a:	df 93       	push	r29
    126c:	cd b7       	in	r28, 0x3d	; 61
    126e:	de b7       	in	r29, 0x3e	; 62
    1270:	2a 97       	sbiw	r28, 0x0a	; 10
    1272:	0f b6       	in	r0, 0x3f	; 63
    1274:	f8 94       	cli
    1276:	de bf       	out	0x3e, r29	; 62
    1278:	0f be       	out	0x3f, r0	; 63
    127a:	cd bf       	out	0x3d, r28	; 61
    127c:	4a e0       	ldi	r20, 0x0A	; 10
    127e:	be 01       	movw	r22, r28
    1280:	6f 5f       	subi	r22, 0xFF	; 255
    1282:	7f 4f       	sbci	r23, 0xFF	; 255
    1284:	0e 94 16 0e 	call	0x1c2c	; 0x1c2c <__itoa_ncheck>
    1288:	ce 01       	movw	r24, r28
    128a:	01 96       	adiw	r24, 0x01	; 1
    128c:	0e 94 4a 0b 	call	0x1694	; 0x1694 <uart_puts>
    1290:	2a 96       	adiw	r28, 0x0a	; 10
    1292:	0f b6       	in	r0, 0x3f	; 63
    1294:	f8 94       	cli
    1296:	de bf       	out	0x3e, r29	; 62
    1298:	0f be       	out	0x3f, r0	; 63
    129a:	cd bf       	out	0x3d, r28	; 61
    129c:	df 91       	pop	r29
    129e:	cf 91       	pop	r28
    12a0:	08 95       	ret

000012a2 <taskLineSensors>:
    12a2:	80 91 d6 01 	lds	r24, 0x01D6	; 0x8001d6 <systemStatus>
    12a6:	80 ff       	sbrs	r24, 0
    12a8:	07 c0       	rjmp	.+14     	; 0x12b8 <taskLineSensors+0x16>
    12aa:	0e 94 0c 06 	call	0xc18	; 0xc18 <lineRead>
    12ae:	e0 91 06 01 	lds	r30, 0x0106	; 0x800106 <line_stateChangedHandler>
    12b2:	f0 91 07 01 	lds	r31, 0x0107	; 0x800107 <line_stateChangedHandler+0x1>
    12b6:	09 95       	icall
    12b8:	08 95       	ret

000012ba <taskBattery>:
    12ba:	cf 93       	push	r28
    12bc:	ef ef       	ldi	r30, 0xFF	; 255
    12be:	f1 e0       	ldi	r31, 0x01	; 1
    12c0:	80 81       	ld	r24, Z
    12c2:	80 64       	ori	r24, 0x40	; 64
    12c4:	80 83       	st	Z, r24
    12c6:	85 85       	ldd	r24, Z+13	; 0x0d
    12c8:	96 85       	ldd	r25, Z+14	; 0x0e
    12ca:	85 3f       	cpi	r24, 0xF5	; 245
    12cc:	91 40       	sbci	r25, 0x01	; 1
    12ce:	90 f0       	brcs	.+36     	; 0x12f4 <taskBattery+0x3a>
    12d0:	10 92 0d 02 	sts	0x020D, r1	; 0x80020d <stopwatches+0xe>
    12d4:	10 92 0c 02 	sts	0x020C, r1	; 0x80020c <stopwatches+0xd>
    12d8:	0e 94 7f 08 	call	0x10fe	; 0x10fe <batt_voltage>
    12dc:	90 93 d8 01 	sts	0x01D8, r25	; 0x8001d8 <systemStatus+0x2>
    12e0:	80 93 d7 01 	sts	0x01D7, r24	; 0x8001d7 <systemStatus+0x1>
    12e4:	80 39       	cpi	r24, 0x90	; 144
    12e6:	9a 41       	sbci	r25, 0x1A	; 26
    12e8:	28 f4       	brcc	.+10     	; 0x12f4 <taskBattery+0x3a>
    12ea:	e6 ed       	ldi	r30, 0xD6	; 214
    12ec:	f1 e0       	ldi	r31, 0x01	; 1
    12ee:	80 81       	ld	r24, Z
    12f0:	88 60       	ori	r24, 0x08	; 8
    12f2:	80 83       	st	Z, r24
    12f4:	80 91 d6 01 	lds	r24, 0x01D6	; 0x8001d6 <systemStatus>
    12f8:	83 ff       	sbrs	r24, 3
    12fa:	49 c0       	rjmp	.+146    	; 0x138e <taskBattery+0xd4>
    12fc:	e0 91 04 01 	lds	r30, 0x0104	; 0x800104 <battery_stateChangedHandler>
    1300:	f0 91 05 01 	lds	r31, 0x0105	; 0x800105 <battery_stateChangedHandler+0x1>
    1304:	09 95       	icall
    1306:	60 e0       	ldi	r22, 0x00	; 0
    1308:	80 e0       	ldi	r24, 0x00	; 0
    130a:	0e 94 5d 06 	call	0xcba	; 0xcba <motorDirection>
    130e:	83 e0       	ldi	r24, 0x03	; 3
    1310:	0e 94 09 09 	call	0x1212	; 0x1212 <disableDevice>
    1314:	80 e0       	ldi	r24, 0x00	; 0
    1316:	0e 94 09 09 	call	0x1212	; 0x1212 <disableDevice>
    131a:	46 98       	cbi	0x08, 6	; 8
    131c:	e6 ed       	ldi	r30, 0xD6	; 214
    131e:	f1 e0       	ldi	r31, 0x01	; 1
    1320:	80 81       	ld	r24, Z
    1322:	8e 7f       	andi	r24, 0xFE	; 254
    1324:	80 83       	st	Z, r24
    1326:	8a e0       	ldi	r24, 0x0A	; 10
    1328:	0e 94 9a 08 	call	0x1134	; 0x1134 <setStatusLED>
    132c:	80 e6       	ldi	r24, 0x60	; 96
    132e:	91 e0       	ldi	r25, 0x01	; 1
    1330:	0e 94 59 0b 	call	0x16b2	; 0x16b2 <uart_puts_p>
    1334:	c4 e1       	ldi	r28, 0x14	; 20
    1336:	81 e0       	ldi	r24, 0x01	; 1
    1338:	0e 94 9a 08 	call	0x1134	; 0x1134 <setStatusLED>
    133c:	8f ef       	ldi	r24, 0xFF	; 255
    133e:	93 ec       	ldi	r25, 0xC3	; 195
    1340:	29 e0       	ldi	r18, 0x09	; 9
    1342:	81 50       	subi	r24, 0x01	; 1
    1344:	90 40       	sbci	r25, 0x00	; 0
    1346:	20 40       	sbci	r18, 0x00	; 0
    1348:	e1 f7       	brne	.-8      	; 0x1342 <taskBattery+0x88>
    134a:	00 c0       	rjmp	.+0      	; 0x134c <taskBattery+0x92>
    134c:	00 00       	nop
    134e:	8a e0       	ldi	r24, 0x0A	; 10
    1350:	0e 94 9a 08 	call	0x1134	; 0x1134 <setStatusLED>
    1354:	8f ef       	ldi	r24, 0xFF	; 255
    1356:	93 ec       	ldi	r25, 0xC3	; 195
    1358:	29 e0       	ldi	r18, 0x09	; 9
    135a:	81 50       	subi	r24, 0x01	; 1
    135c:	90 40       	sbci	r25, 0x00	; 0
    135e:	20 40       	sbci	r18, 0x00	; 0
    1360:	e1 f7       	brne	.-8      	; 0x135a <taskBattery+0xa0>
    1362:	00 c0       	rjmp	.+0      	; 0x1364 <taskBattery+0xaa>
    1364:	00 00       	nop
    1366:	c1 50       	subi	r28, 0x01	; 1
    1368:	31 f7       	brne	.-52     	; 0x1336 <taskBattery+0x7c>
    136a:	8f ef       	ldi	r24, 0xFF	; 255
    136c:	0e 94 09 09 	call	0x1212	; 0x1212 <disableDevice>
    1370:	8a e0       	ldi	r24, 0x0A	; 10
    1372:	0e 94 9a 08 	call	0x1134	; 0x1134 <setStatusLED>
    1376:	83 b7       	in	r24, 0x33	; 51
    1378:	81 7f       	andi	r24, 0xF1	; 241
    137a:	84 60       	ori	r24, 0x04	; 4
    137c:	83 bf       	out	0x33, r24	; 51
    137e:	83 b7       	in	r24, 0x33	; 51
    1380:	81 60       	ori	r24, 0x01	; 1
    1382:	83 bf       	out	0x33, r24	; 51
    1384:	88 95       	sleep
    1386:	83 b7       	in	r24, 0x33	; 51
    1388:	8e 7f       	andi	r24, 0xFE	; 254
    138a:	83 bf       	out	0x33, r24	; 51
    138c:	f8 cf       	rjmp	.-16     	; 0x137e <taskBattery+0xc4>
    138e:	cf 91       	pop	r28
    1390:	08 95       	ret

00001392 <taskComunication>:
    1392:	e0 91 02 01 	lds	r30, 0x0102	; 0x800102 <com_stateChangedHandler>
    1396:	f0 91 03 01 	lds	r31, 0x0103	; 0x800103 <com_stateChangedHandler+0x1>
    139a:	09 95       	icall
    139c:	08 95       	ret

0000139e <taskDrive>:

// Wenn die Motoren im NON_BLOCKING Modus sind wird überprüft wann
// die Fahrzeit abgelaufen ist, wenn ja werden die Motoren angehalten
void taskDrive(void)
{
	if ( motorStatus.autoDrive && systemStatus.pwrON)
    139e:	80 91 c5 01 	lds	r24, 0x01C5	; 0x8001c5 <motorStatus>
    13a2:	84 ff       	sbrs	r24, 4
    13a4:	1d c0       	rjmp	.+58     	; 0x13e0 <taskDrive+0x42>
    13a6:	80 91 d6 01 	lds	r24, 0x01D6	; 0x8001d6 <systemStatus>
    13aa:	80 ff       	sbrs	r24, 0
    13ac:	19 c0       	rjmp	.+50     	; 0x13e0 <taskDrive+0x42>
	{
		if (getStopwatch6() >= motorStatus.timer)
    13ae:	20 91 0a 02 	lds	r18, 0x020A	; 0x80020a <stopwatches+0xb>
    13b2:	30 91 0b 02 	lds	r19, 0x020B	; 0x80020b <stopwatches+0xc>
    13b6:	80 91 cf 01 	lds	r24, 0x01CF	; 0x8001cf <motorStatus+0xa>
    13ba:	90 91 d0 01 	lds	r25, 0x01D0	; 0x8001d0 <motorStatus+0xb>
    13be:	28 17       	cp	r18, r24
    13c0:	39 07       	cpc	r19, r25
    13c2:	70 f0       	brcs	.+28     	; 0x13e0 <taskDrive+0x42>
		{
			motorDirection(MOT_BREAK, MOT_BREAK);
    13c4:	60 e0       	ldi	r22, 0x00	; 0
    13c6:	80 e0       	ldi	r24, 0x00	; 0
    13c8:	0e 94 5d 06 	call	0xcba	; 0xcba <motorDirection>
			motorStatus.autoDrive = false;
    13cc:	e5 ec       	ldi	r30, 0xC5	; 197
    13ce:	f1 e0       	ldi	r31, 0x01	; 1
    13d0:	80 81       	ld	r24, Z
    13d2:	8f 7e       	andi	r24, 0xEF	; 239
    13d4:	80 83       	st	Z, r24
			stopStopwatch6();
    13d6:	ef ef       	ldi	r30, 0xFF	; 255
    13d8:	f1 e0       	ldi	r31, 0x01	; 1
    13da:	80 81       	ld	r24, Z
    13dc:	8f 7d       	andi	r24, 0xDF	; 223
    13de:	80 83       	st	Z, r24
		}
	}
	drive_stateChangedHandler();
    13e0:	e0 91 00 01 	lds	r30, 0x0100	; 0x800100 <__data_start>
    13e4:	f0 91 01 01 	lds	r31, 0x0101	; 0x800101 <__data_start+0x1>
    13e8:	09 95       	icall
    13ea:	08 95       	ret

000013ec <taskSystem>:
// ------------------------------------------------------------------------


void taskSystem(void)
{
	taskBattery();
    13ec:	0e 94 5d 09 	call	0x12ba	; 0x12ba <taskBattery>
	taskComunication();
    13f0:	0e 94 c9 09 	call	0x1392	; 0x1392 <taskComunication>
	taskLineSensors();
    13f4:	0e 94 51 09 	call	0x12a2	; 0x12a2 <taskLineSensors>
	taskDrive();
    13f8:	0e 94 cf 09 	call	0x139e	; 0x139e <taskDrive>
    13fc:	08 95       	ret

000013fe <systemInit>:
	
	Diese Funktion muss als erstes aufgerufen werden.
*/
void systemInit(void)
{
	cli();
    13fe:	f8 94       	cli
	
	// PORTB initialisieren
	DDRB |= (1<<PINB0) | (1<<PINB1) | (1<<PINB2) | (1<<PINB0);
    1400:	84 b1       	in	r24, 0x04	; 4
    1402:	87 60       	ori	r24, 0x07	; 7
    1404:	84 b9       	out	0x04, r24	; 4
	
	// PORTC initialisieren
	DDRC |= (1<<PINC2) | (1<<PINC3) | (1<<PINC4) | (1<<PINC5) | (1<<PINC6) | (1<<PINC7);
    1406:	87 b1       	in	r24, 0x07	; 7
    1408:	8c 6f       	ori	r24, 0xFC	; 252
    140a:	87 b9       	out	0x07, r24	; 7
	
	// PORTD initialisieren
	DDRD |= (1<<PIND4) | (1<<PIND5) | (1<<PIND6) | (1<<PIND7);
    140c:	8a b1       	in	r24, 0x0a	; 10
    140e:	80 6f       	ori	r24, 0xF0	; 240
    1410:	8a b9       	out	0x0a, r24	; 10
	
	// Interne PullUps der Schalter aktivieren
	PORTB |= (1<<PINB4) | (1<<PINB3);
    1412:	85 b1       	in	r24, 0x05	; 5
    1414:	88 61       	ori	r24, 0x18	; 24
    1416:	85 b9       	out	0x05, r24	; 5
	

	// Benutze AVCC als Referenz
	// ADC Prescaler @ 128
	// ADC-Clock @ 125kHz / 13 = 9,62kHz sampling rate, 104µs Sampling time
	ADMUX |= (1<< REFS0);
    1418:	ec e7       	ldi	r30, 0x7C	; 124
    141a:	f0 e0       	ldi	r31, 0x00	; 0
    141c:	80 81       	ld	r24, Z
    141e:	80 64       	ori	r24, 0x40	; 64
    1420:	80 83       	st	Z, r24
	ADCSRA |= ( (1<<ADEN) | (1<<ADPS2) | (1<<ADPS1) | (1<<ADPS0) );
    1422:	ea e7       	ldi	r30, 0x7A	; 122
    1424:	f0 e0       	ldi	r31, 0x00	; 0
    1426:	80 81       	ld	r24, Z
    1428:	87 68       	ori	r24, 0x87	; 135
    142a:	80 83       	st	Z, r24
	ADCSRA |= (1<<ADSC);                  // eine ADC-Wandlung 
    142c:	80 81       	ld	r24, Z
    142e:	80 64       	ori	r24, 0x40	; 64
    1430:	80 83       	st	Z, r24
	while (ADCSRA & (1<<ADSC) ) {         // auf Abschluss der Konvertierung warten
    1432:	80 81       	ld	r24, Z
    1434:	86 fd       	sbrc	r24, 6
    1436:	fd cf       	rjmp	.-6      	; 0x1432 <systemInit+0x34>
	}
	/*	ADCW muss einmal gelesen werden, sonst wird Ergebnis der nächsten
		Wandlung nicht übernommen. */
	(void) ADCW;
    1438:	80 91 78 00 	lds	r24, 0x0078	; 0x800078 <__TEXT_REGION_LENGTH__+0x7e0078>
    143c:	90 91 79 00 	lds	r25, 0x0079	; 0x800079 <__TEXT_REGION_LENGTH__+0x7e0079>
	//// ADC Offsetabgleich mit Hilfe der internen 1,1V Bandgap Referenz
	//systemStatus.adc_kalibration = adc_Read_Avg(0x0E, 16) - BANDGAP_REF;
	
	// Timer0 wird als Systemtimer mit einer Auflösung von 1ms verwendet
	// Timer 0 im CTC Mode2, Prescaler 64, Timer0A1 Interupt alle 1ms 
	TCCR0A |= (1<<WGM01);
    1440:	84 b5       	in	r24, 0x24	; 36
    1442:	82 60       	ori	r24, 0x02	; 2
    1444:	84 bd       	out	0x24, r24	; 36
	TCCR0B |= (1<<CS01) | (1<<CS00);
    1446:	85 b5       	in	r24, 0x25	; 37
    1448:	83 60       	ori	r24, 0x03	; 3
    144a:	85 bd       	out	0x25, r24	; 37
	TIMSK0 |= (1<<OCIE0A);
    144c:	ee e6       	ldi	r30, 0x6E	; 110
    144e:	f0 e0       	ldi	r31, 0x00	; 0
    1450:	80 81       	ld	r24, Z
    1452:	82 60       	ori	r24, 0x02	; 2
    1454:	80 83       	st	Z, r24
	OCR0A = 0xF9;
    1456:	89 ef       	ldi	r24, 0xF9	; 249
    1458:	87 bd       	out	0x27, r24	; 39
	
	systemStatus.battery = batt_voltage();
    145a:	0e 94 7f 08 	call	0x10fe	; 0x10fe <batt_voltage>
    145e:	e6 ed       	ldi	r30, 0xD6	; 214
    1460:	f1 e0       	ldi	r31, 0x01	; 1
    1462:	92 83       	std	Z+2, r25	; 0x02
    1464:	81 83       	std	Z+1, r24	; 0x01
	systemStatus.time = 0;
    1466:	13 82       	std	Z+3, r1	; 0x03
    1468:	14 82       	std	Z+4, r1	; 0x04
    146a:	15 82       	std	Z+5, r1	; 0x05
    146c:	16 82       	std	Z+6, r1	; 0x06
	systemStatus.byte = 0;
    146e:	10 82       	st	Z, r1
	
	disableDevice(EN_ALL);
    1470:	8f ef       	ldi	r24, 0xFF	; 255
    1472:	0e 94 09 09 	call	0x1212	; 0x1212 <disableDevice>
	clearLEDBlue();
    1476:	46 98       	cbi	0x08, 6	; 8
	setStatusLED(OFF);
    1478:	8a e0       	ldi	r24, 0x0A	; 10
    147a:	0e 94 9a 08 	call	0x1134	; 0x1134 <setStatusLED>
	motorInit();
    147e:	0e 94 67 07 	call	0xece	; 0xece <motorInit>
	encoderInit();
    1482:	0e 94 c3 0b 	call	0x1786	; 0x1786 <encoderInit>
	uart_init(UART_BAUD_SELECT(UART_BAUD_RATE, F_CPU));
    1486:	80 e1       	ldi	r24, 0x10	; 16
    1488:	90 e0       	ldi	r25, 0x00	; 0
    148a:	0e 94 1c 0b 	call	0x1638	; 0x1638 <uart_init>
		
	sei();
    148e:	78 94       	sei
    1490:	08 95       	ret

00001492 <__vector_16>:
}

ISR(TIMER0_COMPA_vect)
{
    1492:	1f 92       	push	r1
    1494:	0f 92       	push	r0
    1496:	0f b6       	in	r0, 0x3f	; 63
    1498:	0f 92       	push	r0
    149a:	11 24       	eor	r1, r1
    149c:	8f 93       	push	r24
    149e:	9f 93       	push	r25
    14a0:	af 93       	push	r26
    14a2:	bf 93       	push	r27
    14a4:	ef 93       	push	r30
    14a6:	ff 93       	push	r31
	// 32bit timer (1ms resolution)
	systemStatus.time++;
    14a8:	e6 ed       	ldi	r30, 0xD6	; 214
    14aa:	f1 e0       	ldi	r31, 0x01	; 1
    14ac:	83 81       	ldd	r24, Z+3	; 0x03
    14ae:	94 81       	ldd	r25, Z+4	; 0x04
    14b0:	a5 81       	ldd	r26, Z+5	; 0x05
    14b2:	b6 81       	ldd	r27, Z+6	; 0x06
    14b4:	01 96       	adiw	r24, 0x01	; 1
    14b6:	a1 1d       	adc	r26, r1
    14b8:	b1 1d       	adc	r27, r1
    14ba:	83 83       	std	Z+3, r24	; 0x03
    14bc:	94 83       	std	Z+4, r25	; 0x04
    14be:	a5 83       	std	Z+5, r26	; 0x05
    14c0:	b6 83       	std	Z+6, r27	; 0x06
	
	// All 1ms based timing stuff
	// 16bit Stopwatches:
	if(stopwatches.watches & STOPWATCH1)
    14c2:	80 91 ff 01 	lds	r24, 0x01FF	; 0x8001ff <stopwatches>
    14c6:	80 ff       	sbrs	r24, 0
    14c8:	07 c0       	rjmp	.+14     	; 0x14d8 <__vector_16+0x46>
	stopwatches.watch1++;
    14ca:	ef ef       	ldi	r30, 0xFF	; 255
    14cc:	f1 e0       	ldi	r31, 0x01	; 1
    14ce:	81 81       	ldd	r24, Z+1	; 0x01
    14d0:	92 81       	ldd	r25, Z+2	; 0x02
    14d2:	01 96       	adiw	r24, 0x01	; 1
    14d4:	92 83       	std	Z+2, r25	; 0x02
    14d6:	81 83       	std	Z+1, r24	; 0x01
	if(stopwatches.watches & STOPWATCH2)
    14d8:	80 91 ff 01 	lds	r24, 0x01FF	; 0x8001ff <stopwatches>
    14dc:	81 ff       	sbrs	r24, 1
    14de:	07 c0       	rjmp	.+14     	; 0x14ee <__vector_16+0x5c>
	stopwatches.watch2++;
    14e0:	ef ef       	ldi	r30, 0xFF	; 255
    14e2:	f1 e0       	ldi	r31, 0x01	; 1
    14e4:	83 81       	ldd	r24, Z+3	; 0x03
    14e6:	94 81       	ldd	r25, Z+4	; 0x04
    14e8:	01 96       	adiw	r24, 0x01	; 1
    14ea:	94 83       	std	Z+4, r25	; 0x04
    14ec:	83 83       	std	Z+3, r24	; 0x03
	if(stopwatches.watches & STOPWATCH3)
    14ee:	80 91 ff 01 	lds	r24, 0x01FF	; 0x8001ff <stopwatches>
    14f2:	82 ff       	sbrs	r24, 2
    14f4:	07 c0       	rjmp	.+14     	; 0x1504 <__vector_16+0x72>
	stopwatches.watch3++;
    14f6:	ef ef       	ldi	r30, 0xFF	; 255
    14f8:	f1 e0       	ldi	r31, 0x01	; 1
    14fa:	85 81       	ldd	r24, Z+5	; 0x05
    14fc:	96 81       	ldd	r25, Z+6	; 0x06
    14fe:	01 96       	adiw	r24, 0x01	; 1
    1500:	96 83       	std	Z+6, r25	; 0x06
    1502:	85 83       	std	Z+5, r24	; 0x05
	if(stopwatches.watches & STOPWATCH4)
    1504:	80 91 ff 01 	lds	r24, 0x01FF	; 0x8001ff <stopwatches>
    1508:	83 ff       	sbrs	r24, 3
    150a:	07 c0       	rjmp	.+14     	; 0x151a <__vector_16+0x88>
	stopwatches.watch4++;
    150c:	ef ef       	ldi	r30, 0xFF	; 255
    150e:	f1 e0       	ldi	r31, 0x01	; 1
    1510:	87 81       	ldd	r24, Z+7	; 0x07
    1512:	90 85       	ldd	r25, Z+8	; 0x08
    1514:	01 96       	adiw	r24, 0x01	; 1
    1516:	90 87       	std	Z+8, r25	; 0x08
    1518:	87 83       	std	Z+7, r24	; 0x07
	if(stopwatches.watches & STOPWATCH5)
    151a:	80 91 ff 01 	lds	r24, 0x01FF	; 0x8001ff <stopwatches>
    151e:	84 ff       	sbrs	r24, 4
    1520:	07 c0       	rjmp	.+14     	; 0x1530 <__vector_16+0x9e>
	stopwatches.watch5++;
    1522:	ef ef       	ldi	r30, 0xFF	; 255
    1524:	f1 e0       	ldi	r31, 0x01	; 1
    1526:	81 85       	ldd	r24, Z+9	; 0x09
    1528:	92 85       	ldd	r25, Z+10	; 0x0a
    152a:	01 96       	adiw	r24, 0x01	; 1
    152c:	92 87       	std	Z+10, r25	; 0x0a
    152e:	81 87       	std	Z+9, r24	; 0x09
	if(stopwatches.watches & STOPWATCH6)
    1530:	80 91 ff 01 	lds	r24, 0x01FF	; 0x8001ff <stopwatches>
    1534:	85 ff       	sbrs	r24, 5
    1536:	07 c0       	rjmp	.+14     	; 0x1546 <__vector_16+0xb4>
	stopwatches.watch6++;
    1538:	ef ef       	ldi	r30, 0xFF	; 255
    153a:	f1 e0       	ldi	r31, 0x01	; 1
    153c:	83 85       	ldd	r24, Z+11	; 0x0b
    153e:	94 85       	ldd	r25, Z+12	; 0x0c
    1540:	01 96       	adiw	r24, 0x01	; 1
    1542:	94 87       	std	Z+12, r25	; 0x0c
    1544:	83 87       	std	Z+11, r24	; 0x0b
	if(stopwatches.watches & STOPWATCH7)
    1546:	80 91 ff 01 	lds	r24, 0x01FF	; 0x8001ff <stopwatches>
    154a:	86 ff       	sbrs	r24, 6
    154c:	07 c0       	rjmp	.+14     	; 0x155c <__vector_16+0xca>
	stopwatches.watch7++;
    154e:	ef ef       	ldi	r30, 0xFF	; 255
    1550:	f1 e0       	ldi	r31, 0x01	; 1
    1552:	85 85       	ldd	r24, Z+13	; 0x0d
    1554:	96 85       	ldd	r25, Z+14	; 0x0e
    1556:	01 96       	adiw	r24, 0x01	; 1
    1558:	96 87       	std	Z+14, r25	; 0x0e
    155a:	85 87       	std	Z+13, r24	; 0x0d
	if(stopwatches.watches & STOPWATCH8)
    155c:	80 91 ff 01 	lds	r24, 0x01FF	; 0x8001ff <stopwatches>
    1560:	88 23       	and	r24, r24
    1562:	3c f4       	brge	.+14     	; 0x1572 <__vector_16+0xe0>
	stopwatches.watch8++;
    1564:	ef ef       	ldi	r30, 0xFF	; 255
    1566:	f1 e0       	ldi	r31, 0x01	; 1
    1568:	87 85       	ldd	r24, Z+15	; 0x0f
    156a:	90 89       	ldd	r25, Z+16	; 0x10
    156c:	01 96       	adiw	r24, 0x01	; 1
    156e:	90 8b       	std	Z+16, r25	; 0x10
    1570:	87 87       	std	Z+15, r24	; 0x0f
    1572:	ff 91       	pop	r31
    1574:	ef 91       	pop	r30
    1576:	bf 91       	pop	r27
    1578:	af 91       	pop	r26
    157a:	9f 91       	pop	r25
    157c:	8f 91       	pop	r24
    157e:	0f 90       	pop	r0
    1580:	0f be       	out	0x3f, r0	; 63
    1582:	0f 90       	pop	r0
    1584:	1f 90       	pop	r1
    1586:	18 95       	reti

00001588 <__vector_20>:
    UART_RxTail = tmptail; 
    
    UART_LastRxError = 0;
    return (lastRxError << 8) + data;

}/* uart_getc */
    1588:	1f 92       	push	r1
    158a:	0f 92       	push	r0
    158c:	0f b6       	in	r0, 0x3f	; 63
    158e:	0f 92       	push	r0
    1590:	11 24       	eor	r1, r1
    1592:	2f 93       	push	r18
    1594:	8f 93       	push	r24
    1596:	9f 93       	push	r25
    1598:	ef 93       	push	r30
    159a:	ff 93       	push	r31
    159c:	80 91 c0 00 	lds	r24, 0x00C0	; 0x8000c0 <__TEXT_REGION_LENGTH__+0x7e00c0>
    15a0:	20 91 c6 00 	lds	r18, 0x00C6	; 0x8000c6 <__TEXT_REGION_LENGTH__+0x7e00c6>
    15a4:	8c 71       	andi	r24, 0x1C	; 28
    15a6:	e0 91 82 01 	lds	r30, 0x0182	; 0x800182 <UART_RxHead>
    15aa:	ef 5f       	subi	r30, 0xFF	; 255
    15ac:	ef 71       	andi	r30, 0x1F	; 31
    15ae:	90 91 81 01 	lds	r25, 0x0181	; 0x800181 <UART_RxTail>
    15b2:	e9 17       	cp	r30, r25
    15b4:	39 f0       	breq	.+14     	; 0x15c4 <__vector_20+0x3c>
    15b6:	e0 93 82 01 	sts	0x0182, r30	; 0x800182 <UART_RxHead>
    15ba:	f0 e0       	ldi	r31, 0x00	; 0
    15bc:	eb 57       	subi	r30, 0x7B	; 123
    15be:	fe 4f       	sbci	r31, 0xFE	; 254
    15c0:	20 83       	st	Z, r18
    15c2:	01 c0       	rjmp	.+2      	; 0x15c6 <__vector_20+0x3e>
    15c4:	82 e0       	ldi	r24, 0x02	; 2
    15c6:	90 91 80 01 	lds	r25, 0x0180	; 0x800180 <UART_LastRxError>
    15ca:	89 2b       	or	r24, r25
    15cc:	80 93 80 01 	sts	0x0180, r24	; 0x800180 <UART_LastRxError>
    15d0:	ff 91       	pop	r31
    15d2:	ef 91       	pop	r30
    15d4:	9f 91       	pop	r25
    15d6:	8f 91       	pop	r24
    15d8:	2f 91       	pop	r18
    15da:	0f 90       	pop	r0
    15dc:	0f be       	out	0x3f, r0	; 63
    15de:	0f 90       	pop	r0
    15e0:	1f 90       	pop	r1
    15e2:	18 95       	reti

000015e4 <__vector_21>:
    15e4:	1f 92       	push	r1
    15e6:	0f 92       	push	r0
    15e8:	0f b6       	in	r0, 0x3f	; 63
    15ea:	0f 92       	push	r0
    15ec:	11 24       	eor	r1, r1
    15ee:	8f 93       	push	r24
    15f0:	9f 93       	push	r25
    15f2:	ef 93       	push	r30
    15f4:	ff 93       	push	r31
    15f6:	90 91 84 01 	lds	r25, 0x0184	; 0x800184 <UART_TxHead>
    15fa:	80 91 83 01 	lds	r24, 0x0183	; 0x800183 <UART_TxTail>
    15fe:	98 17       	cp	r25, r24
    1600:	69 f0       	breq	.+26     	; 0x161c <__vector_21+0x38>
    1602:	e0 91 83 01 	lds	r30, 0x0183	; 0x800183 <UART_TxTail>
    1606:	ef 5f       	subi	r30, 0xFF	; 255
    1608:	ef 71       	andi	r30, 0x1F	; 31
    160a:	e0 93 83 01 	sts	0x0183, r30	; 0x800183 <UART_TxTail>
    160e:	f0 e0       	ldi	r31, 0x00	; 0
    1610:	eb 55       	subi	r30, 0x5B	; 91
    1612:	fe 4f       	sbci	r31, 0xFE	; 254
    1614:	80 81       	ld	r24, Z
    1616:	80 93 c6 00 	sts	0x00C6, r24	; 0x8000c6 <__TEXT_REGION_LENGTH__+0x7e00c6>
    161a:	05 c0       	rjmp	.+10     	; 0x1626 <__vector_21+0x42>
    161c:	e1 ec       	ldi	r30, 0xC1	; 193
    161e:	f0 e0       	ldi	r31, 0x00	; 0
    1620:	80 81       	ld	r24, Z
    1622:	8f 7d       	andi	r24, 0xDF	; 223
    1624:	80 83       	st	Z, r24
    1626:	ff 91       	pop	r31
    1628:	ef 91       	pop	r30
    162a:	9f 91       	pop	r25
    162c:	8f 91       	pop	r24
    162e:	0f 90       	pop	r0
    1630:	0f be       	out	0x3f, r0	; 63
    1632:	0f 90       	pop	r0
    1634:	1f 90       	pop	r1
    1636:	18 95       	reti

00001638 <uart_init>:
    1638:	10 92 84 01 	sts	0x0184, r1	; 0x800184 <UART_TxHead>
    163c:	10 92 83 01 	sts	0x0183, r1	; 0x800183 <UART_TxTail>
    1640:	10 92 82 01 	sts	0x0182, r1	; 0x800182 <UART_RxHead>
    1644:	10 92 81 01 	sts	0x0181, r1	; 0x800181 <UART_RxTail>
    1648:	99 23       	and	r25, r25
    164a:	1c f4       	brge	.+6      	; 0x1652 <uart_init+0x1a>
    164c:	22 e0       	ldi	r18, 0x02	; 2
    164e:	20 93 c0 00 	sts	0x00C0, r18	; 0x8000c0 <__TEXT_REGION_LENGTH__+0x7e00c0>
    1652:	90 78       	andi	r25, 0x80	; 128
    1654:	90 93 c5 00 	sts	0x00C5, r25	; 0x8000c5 <__TEXT_REGION_LENGTH__+0x7e00c5>
    1658:	80 93 c4 00 	sts	0x00C4, r24	; 0x8000c4 <__TEXT_REGION_LENGTH__+0x7e00c4>
    165c:	88 e9       	ldi	r24, 0x98	; 152
    165e:	80 93 c1 00 	sts	0x00C1, r24	; 0x8000c1 <__TEXT_REGION_LENGTH__+0x7e00c1>
    1662:	86 e0       	ldi	r24, 0x06	; 6
    1664:	80 93 c2 00 	sts	0x00C2, r24	; 0x8000c2 <__TEXT_REGION_LENGTH__+0x7e00c2>
    1668:	08 95       	ret

0000166a <uart_putc>:
void uart_putc(unsigned char data)
{
    unsigned char tmphead;

    
    tmphead  = (UART_TxHead + 1) & UART_TX_BUFFER_MASK;
    166a:	20 91 84 01 	lds	r18, 0x0184	; 0x800184 <UART_TxHead>
    166e:	2f 5f       	subi	r18, 0xFF	; 255
    1670:	2f 71       	andi	r18, 0x1F	; 31
    
    while ( tmphead == UART_TxTail ){
    1672:	90 91 83 01 	lds	r25, 0x0183	; 0x800183 <UART_TxTail>
    1676:	29 17       	cp	r18, r25
    1678:	e1 f3       	breq	.-8      	; 0x1672 <uart_putc+0x8>
        ;/* wait for free space in buffer */
    }
    
    UART_TxBuf[tmphead] = data;
    167a:	e2 2f       	mov	r30, r18
    167c:	f0 e0       	ldi	r31, 0x00	; 0
    167e:	eb 55       	subi	r30, 0x5B	; 91
    1680:	fe 4f       	sbci	r31, 0xFE	; 254
    1682:	80 83       	st	Z, r24
    UART_TxHead = tmphead;
    1684:	20 93 84 01 	sts	0x0184, r18	; 0x800184 <UART_TxHead>

    /* enable UDRE interrupt */
    UART0_CONTROL    |= _BV(UART0_UDRIE);
    1688:	e1 ec       	ldi	r30, 0xC1	; 193
    168a:	f0 e0       	ldi	r31, 0x00	; 0
    168c:	80 81       	ld	r24, Z
    168e:	80 62       	ori	r24, 0x20	; 32
    1690:	80 83       	st	Z, r24
    1692:	08 95       	ret

00001694 <uart_puts>:
Purpose:  transmit string to UART
Input:    string to be transmitted
Returns:  none          
**************************************************************************/
void uart_puts(const char *s )
{
    1694:	cf 93       	push	r28
    1696:	df 93       	push	r29
    1698:	ec 01       	movw	r28, r24
    while (*s) 
    169a:	88 81       	ld	r24, Y
    169c:	88 23       	and	r24, r24
    169e:	31 f0       	breq	.+12     	; 0x16ac <uart_puts+0x18>
    16a0:	21 96       	adiw	r28, 0x01	; 1
      uart_putc(*s++);
    16a2:	0e 94 35 0b 	call	0x166a	; 0x166a <uart_putc>
Input:    string to be transmitted
Returns:  none          
**************************************************************************/
void uart_puts(const char *s )
{
    while (*s) 
    16a6:	89 91       	ld	r24, Y+
    16a8:	81 11       	cpse	r24, r1
    16aa:	fb cf       	rjmp	.-10     	; 0x16a2 <uart_puts+0xe>
      uart_putc(*s++);

}/* uart_puts */
    16ac:	df 91       	pop	r29
    16ae:	cf 91       	pop	r28
    16b0:	08 95       	ret

000016b2 <uart_puts_p>:
Purpose:  transmit string from program memory to UART
Input:    program memory string to be transmitted
Returns:  none
**************************************************************************/
void uart_puts_p(const char *progmem_s )
{
    16b2:	cf 93       	push	r28
    16b4:	df 93       	push	r29
    register char c;
    
    while ( (c = pgm_read_byte(progmem_s++)) ) 
    16b6:	ec 01       	movw	r28, r24
    16b8:	21 96       	adiw	r28, 0x01	; 1
    16ba:	fc 01       	movw	r30, r24
    16bc:	84 91       	lpm	r24, Z
    16be:	88 23       	and	r24, r24
    16c0:	39 f0       	breq	.+14     	; 0x16d0 <uart_puts_p+0x1e>
      uart_putc(c);
    16c2:	0e 94 35 0b 	call	0x166a	; 0x166a <uart_putc>
**************************************************************************/
void uart_puts_p(const char *progmem_s )
{
    register char c;
    
    while ( (c = pgm_read_byte(progmem_s++)) ) 
    16c6:	fe 01       	movw	r30, r28
    16c8:	84 91       	lpm	r24, Z
    16ca:	21 96       	adiw	r28, 0x01	; 1
    16cc:	81 11       	cpse	r24, r1
    16ce:	f9 cf       	rjmp	.-14     	; 0x16c2 <uart_puts_p+0x10>
      uart_putc(c);

}/* uart_puts_p */
    16d0:	df 91       	pop	r29
    16d2:	cf 91       	pop	r28
    16d4:	08 95       	ret

000016d6 <__vector_28>:
ISR(UART1_RECEIVE_INTERRUPT)
/*************************************************************************
Function: UART1 Receive Complete interrupt
Purpose:  called when the UART1 has received a character
**************************************************************************/
{
    16d6:	1f 92       	push	r1
    16d8:	0f 92       	push	r0
    16da:	0f b6       	in	r0, 0x3f	; 63
    16dc:	0f 92       	push	r0
    16de:	11 24       	eor	r1, r1
    16e0:	2f 93       	push	r18
    16e2:	8f 93       	push	r24
    16e4:	9f 93       	push	r25
    16e6:	ef 93       	push	r30
    16e8:	ff 93       	push	r31
    unsigned char usr;
    unsigned char lastRxError;
 
 
    /* read UART status register and UART data register */ 
    usr  = UART1_STATUS;
    16ea:	80 91 c8 00 	lds	r24, 0x00C8	; 0x8000c8 <__TEXT_REGION_LENGTH__+0x7e00c8>
    data = UART1_DATA;
    16ee:	20 91 ce 00 	lds	r18, 0x00CE	; 0x8000ce <__TEXT_REGION_LENGTH__+0x7e00ce>
    
    /* get FEn (Frame Error) DORn (Data OverRun) UPEn (USART Parity Error) bits */
    lastRxError = usr & (_BV(FE1)|_BV(DOR1)|_BV(UPE1) );
    16f2:	8c 71       	andi	r24, 0x1C	; 28
            
    /* calculate buffer index */ 
    tmphead = ( UART1_RxHead + 1) & UART_RX_BUFFER_MASK;
    16f4:	e0 91 3d 01 	lds	r30, 0x013D	; 0x80013d <UART1_RxHead>
    16f8:	ef 5f       	subi	r30, 0xFF	; 255
    16fa:	ef 71       	andi	r30, 0x1F	; 31
    
    if ( tmphead == UART1_RxTail ) {
    16fc:	90 91 3c 01 	lds	r25, 0x013C	; 0x80013c <UART1_RxTail>
    1700:	e9 17       	cp	r30, r25
    1702:	39 f0       	breq	.+14     	; 0x1712 <__vector_28+0x3c>
        /* error: receive buffer overflow */
        lastRxError = UART_BUFFER_OVERFLOW >> 8;
    }else{
        /* store new index */
        UART1_RxHead = tmphead;
    1704:	e0 93 3d 01 	sts	0x013D, r30	; 0x80013d <UART1_RxHead>
        /* store received data in buffer */
        UART1_RxBuf[tmphead] = data;
    1708:	f0 e0       	ldi	r31, 0x00	; 0
    170a:	e0 5c       	subi	r30, 0xC0	; 192
    170c:	fe 4f       	sbci	r31, 0xFE	; 254
    170e:	20 83       	st	Z, r18
    1710:	01 c0       	rjmp	.+2      	; 0x1714 <__vector_28+0x3e>
    /* calculate buffer index */ 
    tmphead = ( UART1_RxHead + 1) & UART_RX_BUFFER_MASK;
    
    if ( tmphead == UART1_RxTail ) {
        /* error: receive buffer overflow */
        lastRxError = UART_BUFFER_OVERFLOW >> 8;
    1712:	82 e0       	ldi	r24, 0x02	; 2
        /* store new index */
        UART1_RxHead = tmphead;
        /* store received data in buffer */
        UART1_RxBuf[tmphead] = data;
    }
    UART1_LastRxError |= lastRxError;   
    1714:	90 91 3b 01 	lds	r25, 0x013B	; 0x80013b <UART1_LastRxError>
    1718:	89 2b       	or	r24, r25
    171a:	80 93 3b 01 	sts	0x013B, r24	; 0x80013b <UART1_LastRxError>
}
    171e:	ff 91       	pop	r31
    1720:	ef 91       	pop	r30
    1722:	9f 91       	pop	r25
    1724:	8f 91       	pop	r24
    1726:	2f 91       	pop	r18
    1728:	0f 90       	pop	r0
    172a:	0f be       	out	0x3f, r0	; 63
    172c:	0f 90       	pop	r0
    172e:	1f 90       	pop	r1
    1730:	18 95       	reti

00001732 <__vector_29>:
ISR(UART1_TRANSMIT_INTERRUPT)
/*************************************************************************
Function: UART1 Data Register Empty interrupt
Purpose:  called when the UART1 is ready to transmit the next byte
**************************************************************************/
{
    1732:	1f 92       	push	r1
    1734:	0f 92       	push	r0
    1736:	0f b6       	in	r0, 0x3f	; 63
    1738:	0f 92       	push	r0
    173a:	11 24       	eor	r1, r1
    173c:	8f 93       	push	r24
    173e:	9f 93       	push	r25
    1740:	ef 93       	push	r30
    1742:	ff 93       	push	r31
    unsigned char tmptail;

    
    if ( UART1_TxHead != UART1_TxTail) {
    1744:	90 91 3f 01 	lds	r25, 0x013F	; 0x80013f <UART1_TxHead>
    1748:	80 91 3e 01 	lds	r24, 0x013E	; 0x80013e <UART1_TxTail>
    174c:	98 17       	cp	r25, r24
    174e:	69 f0       	breq	.+26     	; 0x176a <__vector_29+0x38>
        /* calculate and store new buffer index */
        tmptail = (UART1_TxTail + 1) & UART_TX_BUFFER_MASK;
    1750:	e0 91 3e 01 	lds	r30, 0x013E	; 0x80013e <UART1_TxTail>
    1754:	ef 5f       	subi	r30, 0xFF	; 255
    1756:	ef 71       	andi	r30, 0x1F	; 31
        UART1_TxTail = tmptail;
    1758:	e0 93 3e 01 	sts	0x013E, r30	; 0x80013e <UART1_TxTail>
        /* get one byte from buffer and write it to UART */
        UART1_DATA = UART1_TxBuf[tmptail];  /* start transmission */
    175c:	f0 e0       	ldi	r31, 0x00	; 0
    175e:	e0 5a       	subi	r30, 0xA0	; 160
    1760:	fe 4f       	sbci	r31, 0xFE	; 254
    1762:	80 81       	ld	r24, Z
    1764:	80 93 ce 00 	sts	0x00CE, r24	; 0x8000ce <__TEXT_REGION_LENGTH__+0x7e00ce>
    1768:	05 c0       	rjmp	.+10     	; 0x1774 <__vector_29+0x42>
    }else{
        /* tx buffer empty, disable UDRE interrupt */
        UART1_CONTROL &= ~_BV(UART1_UDRIE);
    176a:	e9 ec       	ldi	r30, 0xC9	; 201
    176c:	f0 e0       	ldi	r31, 0x00	; 0
    176e:	80 81       	ld	r24, Z
    1770:	8f 7d       	andi	r24, 0xDF	; 223
    1772:	80 83       	st	Z, r24
    }
}
    1774:	ff 91       	pop	r31
    1776:	ef 91       	pop	r30
    1778:	9f 91       	pop	r25
    177a:	8f 91       	pop	r24
    177c:	0f 90       	pop	r0
    177e:	0f be       	out	0x3f, r0	; 63
    1780:	0f 90       	pop	r0
    1782:	1f 90       	pop	r1
    1784:	18 95       	reti

00001786 <encoderInit>:
    __asm__ volatile ("" ::: "memory");
    1786:	e9 e6       	ldi	r30, 0x69	; 105
    1788:	f0 e0       	ldi	r31, 0x00	; 0
    178a:	80 81       	ld	r24, Z
    178c:	85 60       	ori	r24, 0x05	; 5
    178e:	80 83       	st	Z, r24
    1790:	8d b3       	in	r24, 0x1d	; 29
    1792:	83 60       	ori	r24, 0x03	; 3
    1794:	8d bb       	out	0x1d, r24	; 29
    1796:	08 95       	ret

00001798 <__vector_1>:
/* Interrupt Service Routinen                                           */
/************************************************************************/

// Linker Motor
ISR(INT0_vect)
{
    1798:	1f 92       	push	r1
    179a:	0f 92       	push	r0
    179c:	0f b6       	in	r0, 0x3f	; 63
    179e:	0f 92       	push	r0
    17a0:	11 24       	eor	r1, r1
    17a2:	8f 93       	push	r24
    17a4:	9f 93       	push	r25
    17a6:	ef 93       	push	r30
    17a8:	ff 93       	push	r31
	if (systemStatus.encoders == true)
    17aa:	80 91 d6 01 	lds	r24, 0x01D6	; 0x8001d6 <systemStatus>
    17ae:	84 ff       	sbrs	r24, 4
    17b0:	16 c0       	rjmp	.+44     	; 0x17de <__vector_1+0x46>
	{
		if (motorStatus.leftDir == MOT_FWD)
    17b2:	80 91 c5 01 	lds	r24, 0x01C5	; 0x8001c5 <motorStatus>
    17b6:	83 70       	andi	r24, 0x03	; 3
    17b8:	81 30       	cpi	r24, 0x01	; 1
    17ba:	41 f4       	brne	.+16     	; 0x17cc <__vector_1+0x34>
			motorStatus.encoder[LEFT]++;
    17bc:	e5 ec       	ldi	r30, 0xC5	; 197
    17be:	f1 e0       	ldi	r31, 0x01	; 1
    17c0:	86 81       	ldd	r24, Z+6	; 0x06
    17c2:	97 81       	ldd	r25, Z+7	; 0x07
    17c4:	01 96       	adiw	r24, 0x01	; 1
    17c6:	97 83       	std	Z+7, r25	; 0x07
    17c8:	86 83       	std	Z+6, r24	; 0x06
    17ca:	09 c0       	rjmp	.+18     	; 0x17de <__vector_1+0x46>
		else if (motorStatus.leftDir == MOT_REV)
    17cc:	82 30       	cpi	r24, 0x02	; 2
    17ce:	39 f4       	brne	.+14     	; 0x17de <__vector_1+0x46>
			motorStatus.encoder[LEFT]--;
    17d0:	e5 ec       	ldi	r30, 0xC5	; 197
    17d2:	f1 e0       	ldi	r31, 0x01	; 1
    17d4:	86 81       	ldd	r24, Z+6	; 0x06
    17d6:	97 81       	ldd	r25, Z+7	; 0x07
    17d8:	01 97       	sbiw	r24, 0x01	; 1
    17da:	97 83       	std	Z+7, r25	; 0x07
    17dc:	86 83       	std	Z+6, r24	; 0x06
	}
}
    17de:	ff 91       	pop	r31
    17e0:	ef 91       	pop	r30
    17e2:	9f 91       	pop	r25
    17e4:	8f 91       	pop	r24
    17e6:	0f 90       	pop	r0
    17e8:	0f be       	out	0x3f, r0	; 63
    17ea:	0f 90       	pop	r0
    17ec:	1f 90       	pop	r1
    17ee:	18 95       	reti

000017f0 <__vector_2>:

// Rechter Motor
ISR(INT1_vect)
{
    17f0:	1f 92       	push	r1
    17f2:	0f 92       	push	r0
    17f4:	0f b6       	in	r0, 0x3f	; 63
    17f6:	0f 92       	push	r0
    17f8:	11 24       	eor	r1, r1
    17fa:	8f 93       	push	r24
    17fc:	9f 93       	push	r25
    17fe:	ef 93       	push	r30
    1800:	ff 93       	push	r31
	if (systemStatus.encoders == true)
    1802:	80 91 d6 01 	lds	r24, 0x01D6	; 0x8001d6 <systemStatus>
    1806:	84 ff       	sbrs	r24, 4
    1808:	16 c0       	rjmp	.+44     	; 0x1836 <__vector_2+0x46>
	{
		if (motorStatus.rightDir == MOT_FWD)
    180a:	80 91 c5 01 	lds	r24, 0x01C5	; 0x8001c5 <motorStatus>
    180e:	8c 70       	andi	r24, 0x0C	; 12
    1810:	84 30       	cpi	r24, 0x04	; 4
    1812:	41 f4       	brne	.+16     	; 0x1824 <__vector_2+0x34>
		motorStatus.encoder[RIGHT]++;
    1814:	e5 ec       	ldi	r30, 0xC5	; 197
    1816:	f1 e0       	ldi	r31, 0x01	; 1
    1818:	80 85       	ldd	r24, Z+8	; 0x08
    181a:	91 85       	ldd	r25, Z+9	; 0x09
    181c:	01 96       	adiw	r24, 0x01	; 1
    181e:	91 87       	std	Z+9, r25	; 0x09
    1820:	80 87       	std	Z+8, r24	; 0x08
    1822:	09 c0       	rjmp	.+18     	; 0x1836 <__vector_2+0x46>
		else if (motorStatus.rightDir == MOT_REV)
    1824:	88 30       	cpi	r24, 0x08	; 8
    1826:	39 f4       	brne	.+14     	; 0x1836 <__vector_2+0x46>
		motorStatus.encoder[RIGHT]--;
    1828:	e5 ec       	ldi	r30, 0xC5	; 197
    182a:	f1 e0       	ldi	r31, 0x01	; 1
    182c:	80 85       	ldd	r24, Z+8	; 0x08
    182e:	91 85       	ldd	r25, Z+9	; 0x09
    1830:	01 97       	sbiw	r24, 0x01	; 1
    1832:	91 87       	std	Z+9, r25	; 0x09
    1834:	80 87       	std	Z+8, r24	; 0x08
	}
    1836:	ff 91       	pop	r31
    1838:	ef 91       	pop	r30
    183a:	9f 91       	pop	r25
    183c:	8f 91       	pop	r24
    183e:	0f 90       	pop	r0
    1840:	0f be       	out	0x3f, r0	; 63
    1842:	0f 90       	pop	r0
    1844:	1f 90       	pop	r1
    1846:	18 95       	reti

00001848 <__subsf3>:
    1848:	50 58       	subi	r21, 0x80	; 128

0000184a <__addsf3>:
    184a:	bb 27       	eor	r27, r27
    184c:	aa 27       	eor	r26, r26
    184e:	0e 94 3c 0c 	call	0x1878	; 0x1878 <__addsf3x>
    1852:	0c 94 14 0d 	jmp	0x1a28	; 0x1a28 <__fp_round>
    1856:	0e 94 06 0d 	call	0x1a0c	; 0x1a0c <__fp_pscA>
    185a:	38 f0       	brcs	.+14     	; 0x186a <__addsf3+0x20>
    185c:	0e 94 0d 0d 	call	0x1a1a	; 0x1a1a <__fp_pscB>
    1860:	20 f0       	brcs	.+8      	; 0x186a <__addsf3+0x20>
    1862:	39 f4       	brne	.+14     	; 0x1872 <__addsf3+0x28>
    1864:	9f 3f       	cpi	r25, 0xFF	; 255
    1866:	19 f4       	brne	.+6      	; 0x186e <__addsf3+0x24>
    1868:	26 f4       	brtc	.+8      	; 0x1872 <__addsf3+0x28>
    186a:	0c 94 03 0d 	jmp	0x1a06	; 0x1a06 <__fp_nan>
    186e:	0e f4       	brtc	.+2      	; 0x1872 <__addsf3+0x28>
    1870:	e0 95       	com	r30
    1872:	e7 fb       	bst	r30, 7
    1874:	0c 94 fd 0c 	jmp	0x19fa	; 0x19fa <__fp_inf>

00001878 <__addsf3x>:
    1878:	e9 2f       	mov	r30, r25
    187a:	0e 94 25 0d 	call	0x1a4a	; 0x1a4a <__fp_split3>
    187e:	58 f3       	brcs	.-42     	; 0x1856 <__addsf3+0xc>
    1880:	ba 17       	cp	r27, r26
    1882:	62 07       	cpc	r22, r18
    1884:	73 07       	cpc	r23, r19
    1886:	84 07       	cpc	r24, r20
    1888:	95 07       	cpc	r25, r21
    188a:	20 f0       	brcs	.+8      	; 0x1894 <__addsf3x+0x1c>
    188c:	79 f4       	brne	.+30     	; 0x18ac <__addsf3x+0x34>
    188e:	a6 f5       	brtc	.+104    	; 0x18f8 <__addsf3x+0x80>
    1890:	0c 94 47 0d 	jmp	0x1a8e	; 0x1a8e <__fp_zero>
    1894:	0e f4       	brtc	.+2      	; 0x1898 <__addsf3x+0x20>
    1896:	e0 95       	com	r30
    1898:	0b 2e       	mov	r0, r27
    189a:	ba 2f       	mov	r27, r26
    189c:	a0 2d       	mov	r26, r0
    189e:	0b 01       	movw	r0, r22
    18a0:	b9 01       	movw	r22, r18
    18a2:	90 01       	movw	r18, r0
    18a4:	0c 01       	movw	r0, r24
    18a6:	ca 01       	movw	r24, r20
    18a8:	a0 01       	movw	r20, r0
    18aa:	11 24       	eor	r1, r1
    18ac:	ff 27       	eor	r31, r31
    18ae:	59 1b       	sub	r21, r25
    18b0:	99 f0       	breq	.+38     	; 0x18d8 <__addsf3x+0x60>
    18b2:	59 3f       	cpi	r21, 0xF9	; 249
    18b4:	50 f4       	brcc	.+20     	; 0x18ca <__addsf3x+0x52>
    18b6:	50 3e       	cpi	r21, 0xE0	; 224
    18b8:	68 f1       	brcs	.+90     	; 0x1914 <__addsf3x+0x9c>
    18ba:	1a 16       	cp	r1, r26
    18bc:	f0 40       	sbci	r31, 0x00	; 0
    18be:	a2 2f       	mov	r26, r18
    18c0:	23 2f       	mov	r18, r19
    18c2:	34 2f       	mov	r19, r20
    18c4:	44 27       	eor	r20, r20
    18c6:	58 5f       	subi	r21, 0xF8	; 248
    18c8:	f3 cf       	rjmp	.-26     	; 0x18b0 <__addsf3x+0x38>
    18ca:	46 95       	lsr	r20
    18cc:	37 95       	ror	r19
    18ce:	27 95       	ror	r18
    18d0:	a7 95       	ror	r26
    18d2:	f0 40       	sbci	r31, 0x00	; 0
    18d4:	53 95       	inc	r21
    18d6:	c9 f7       	brne	.-14     	; 0x18ca <__addsf3x+0x52>
    18d8:	7e f4       	brtc	.+30     	; 0x18f8 <__addsf3x+0x80>
    18da:	1f 16       	cp	r1, r31
    18dc:	ba 0b       	sbc	r27, r26
    18de:	62 0b       	sbc	r22, r18
    18e0:	73 0b       	sbc	r23, r19
    18e2:	84 0b       	sbc	r24, r20
    18e4:	ba f0       	brmi	.+46     	; 0x1914 <__addsf3x+0x9c>
    18e6:	91 50       	subi	r25, 0x01	; 1
    18e8:	a1 f0       	breq	.+40     	; 0x1912 <__addsf3x+0x9a>
    18ea:	ff 0f       	add	r31, r31
    18ec:	bb 1f       	adc	r27, r27
    18ee:	66 1f       	adc	r22, r22
    18f0:	77 1f       	adc	r23, r23
    18f2:	88 1f       	adc	r24, r24
    18f4:	c2 f7       	brpl	.-16     	; 0x18e6 <__addsf3x+0x6e>
    18f6:	0e c0       	rjmp	.+28     	; 0x1914 <__addsf3x+0x9c>
    18f8:	ba 0f       	add	r27, r26
    18fa:	62 1f       	adc	r22, r18
    18fc:	73 1f       	adc	r23, r19
    18fe:	84 1f       	adc	r24, r20
    1900:	48 f4       	brcc	.+18     	; 0x1914 <__addsf3x+0x9c>
    1902:	87 95       	ror	r24
    1904:	77 95       	ror	r23
    1906:	67 95       	ror	r22
    1908:	b7 95       	ror	r27
    190a:	f7 95       	ror	r31
    190c:	9e 3f       	cpi	r25, 0xFE	; 254
    190e:	08 f0       	brcs	.+2      	; 0x1912 <__addsf3x+0x9a>
    1910:	b0 cf       	rjmp	.-160    	; 0x1872 <__addsf3+0x28>
    1912:	93 95       	inc	r25
    1914:	88 0f       	add	r24, r24
    1916:	08 f0       	brcs	.+2      	; 0x191a <__addsf3x+0xa2>
    1918:	99 27       	eor	r25, r25
    191a:	ee 0f       	add	r30, r30
    191c:	97 95       	ror	r25
    191e:	87 95       	ror	r24
    1920:	08 95       	ret

00001922 <__fixunssfsi>:
    1922:	0e 94 2d 0d 	call	0x1a5a	; 0x1a5a <__fp_splitA>
    1926:	88 f0       	brcs	.+34     	; 0x194a <__fixunssfsi+0x28>
    1928:	9f 57       	subi	r25, 0x7F	; 127
    192a:	98 f0       	brcs	.+38     	; 0x1952 <__fixunssfsi+0x30>
    192c:	b9 2f       	mov	r27, r25
    192e:	99 27       	eor	r25, r25
    1930:	b7 51       	subi	r27, 0x17	; 23
    1932:	b0 f0       	brcs	.+44     	; 0x1960 <__fixunssfsi+0x3e>
    1934:	e1 f0       	breq	.+56     	; 0x196e <__fixunssfsi+0x4c>
    1936:	66 0f       	add	r22, r22
    1938:	77 1f       	adc	r23, r23
    193a:	88 1f       	adc	r24, r24
    193c:	99 1f       	adc	r25, r25
    193e:	1a f0       	brmi	.+6      	; 0x1946 <__fixunssfsi+0x24>
    1940:	ba 95       	dec	r27
    1942:	c9 f7       	brne	.-14     	; 0x1936 <__fixunssfsi+0x14>
    1944:	14 c0       	rjmp	.+40     	; 0x196e <__fixunssfsi+0x4c>
    1946:	b1 30       	cpi	r27, 0x01	; 1
    1948:	91 f0       	breq	.+36     	; 0x196e <__fixunssfsi+0x4c>
    194a:	0e 94 47 0d 	call	0x1a8e	; 0x1a8e <__fp_zero>
    194e:	b1 e0       	ldi	r27, 0x01	; 1
    1950:	08 95       	ret
    1952:	0c 94 47 0d 	jmp	0x1a8e	; 0x1a8e <__fp_zero>
    1956:	67 2f       	mov	r22, r23
    1958:	78 2f       	mov	r23, r24
    195a:	88 27       	eor	r24, r24
    195c:	b8 5f       	subi	r27, 0xF8	; 248
    195e:	39 f0       	breq	.+14     	; 0x196e <__fixunssfsi+0x4c>
    1960:	b9 3f       	cpi	r27, 0xF9	; 249
    1962:	cc f3       	brlt	.-14     	; 0x1956 <__fixunssfsi+0x34>
    1964:	86 95       	lsr	r24
    1966:	77 95       	ror	r23
    1968:	67 95       	ror	r22
    196a:	b3 95       	inc	r27
    196c:	d9 f7       	brne	.-10     	; 0x1964 <__fixunssfsi+0x42>
    196e:	3e f4       	brtc	.+14     	; 0x197e <__fixunssfsi+0x5c>
    1970:	90 95       	com	r25
    1972:	80 95       	com	r24
    1974:	70 95       	com	r23
    1976:	61 95       	neg	r22
    1978:	7f 4f       	sbci	r23, 0xFF	; 255
    197a:	8f 4f       	sbci	r24, 0xFF	; 255
    197c:	9f 4f       	sbci	r25, 0xFF	; 255
    197e:	08 95       	ret

00001980 <__floatunsisf>:
    1980:	e8 94       	clt
    1982:	09 c0       	rjmp	.+18     	; 0x1996 <__floatsisf+0x12>

00001984 <__floatsisf>:
    1984:	97 fb       	bst	r25, 7
    1986:	3e f4       	brtc	.+14     	; 0x1996 <__floatsisf+0x12>
    1988:	90 95       	com	r25
    198a:	80 95       	com	r24
    198c:	70 95       	com	r23
    198e:	61 95       	neg	r22
    1990:	7f 4f       	sbci	r23, 0xFF	; 255
    1992:	8f 4f       	sbci	r24, 0xFF	; 255
    1994:	9f 4f       	sbci	r25, 0xFF	; 255
    1996:	99 23       	and	r25, r25
    1998:	a9 f0       	breq	.+42     	; 0x19c4 <__floatsisf+0x40>
    199a:	f9 2f       	mov	r31, r25
    199c:	96 e9       	ldi	r25, 0x96	; 150
    199e:	bb 27       	eor	r27, r27
    19a0:	93 95       	inc	r25
    19a2:	f6 95       	lsr	r31
    19a4:	87 95       	ror	r24
    19a6:	77 95       	ror	r23
    19a8:	67 95       	ror	r22
    19aa:	b7 95       	ror	r27
    19ac:	f1 11       	cpse	r31, r1
    19ae:	f8 cf       	rjmp	.-16     	; 0x19a0 <__floatsisf+0x1c>
    19b0:	fa f4       	brpl	.+62     	; 0x19f0 <__floatsisf+0x6c>
    19b2:	bb 0f       	add	r27, r27
    19b4:	11 f4       	brne	.+4      	; 0x19ba <__floatsisf+0x36>
    19b6:	60 ff       	sbrs	r22, 0
    19b8:	1b c0       	rjmp	.+54     	; 0x19f0 <__floatsisf+0x6c>
    19ba:	6f 5f       	subi	r22, 0xFF	; 255
    19bc:	7f 4f       	sbci	r23, 0xFF	; 255
    19be:	8f 4f       	sbci	r24, 0xFF	; 255
    19c0:	9f 4f       	sbci	r25, 0xFF	; 255
    19c2:	16 c0       	rjmp	.+44     	; 0x19f0 <__floatsisf+0x6c>
    19c4:	88 23       	and	r24, r24
    19c6:	11 f0       	breq	.+4      	; 0x19cc <__floatsisf+0x48>
    19c8:	96 e9       	ldi	r25, 0x96	; 150
    19ca:	11 c0       	rjmp	.+34     	; 0x19ee <__floatsisf+0x6a>
    19cc:	77 23       	and	r23, r23
    19ce:	21 f0       	breq	.+8      	; 0x19d8 <__floatsisf+0x54>
    19d0:	9e e8       	ldi	r25, 0x8E	; 142
    19d2:	87 2f       	mov	r24, r23
    19d4:	76 2f       	mov	r23, r22
    19d6:	05 c0       	rjmp	.+10     	; 0x19e2 <__floatsisf+0x5e>
    19d8:	66 23       	and	r22, r22
    19da:	71 f0       	breq	.+28     	; 0x19f8 <__floatsisf+0x74>
    19dc:	96 e8       	ldi	r25, 0x86	; 134
    19de:	86 2f       	mov	r24, r22
    19e0:	70 e0       	ldi	r23, 0x00	; 0
    19e2:	60 e0       	ldi	r22, 0x00	; 0
    19e4:	2a f0       	brmi	.+10     	; 0x19f0 <__floatsisf+0x6c>
    19e6:	9a 95       	dec	r25
    19e8:	66 0f       	add	r22, r22
    19ea:	77 1f       	adc	r23, r23
    19ec:	88 1f       	adc	r24, r24
    19ee:	da f7       	brpl	.-10     	; 0x19e6 <__floatsisf+0x62>
    19f0:	88 0f       	add	r24, r24
    19f2:	96 95       	lsr	r25
    19f4:	87 95       	ror	r24
    19f6:	97 f9       	bld	r25, 7
    19f8:	08 95       	ret

000019fa <__fp_inf>:
    19fa:	97 f9       	bld	r25, 7
    19fc:	9f 67       	ori	r25, 0x7F	; 127
    19fe:	80 e8       	ldi	r24, 0x80	; 128
    1a00:	70 e0       	ldi	r23, 0x00	; 0
    1a02:	60 e0       	ldi	r22, 0x00	; 0
    1a04:	08 95       	ret

00001a06 <__fp_nan>:
    1a06:	9f ef       	ldi	r25, 0xFF	; 255
    1a08:	80 ec       	ldi	r24, 0xC0	; 192
    1a0a:	08 95       	ret

00001a0c <__fp_pscA>:
    1a0c:	00 24       	eor	r0, r0
    1a0e:	0a 94       	dec	r0
    1a10:	16 16       	cp	r1, r22
    1a12:	17 06       	cpc	r1, r23
    1a14:	18 06       	cpc	r1, r24
    1a16:	09 06       	cpc	r0, r25
    1a18:	08 95       	ret

00001a1a <__fp_pscB>:
    1a1a:	00 24       	eor	r0, r0
    1a1c:	0a 94       	dec	r0
    1a1e:	12 16       	cp	r1, r18
    1a20:	13 06       	cpc	r1, r19
    1a22:	14 06       	cpc	r1, r20
    1a24:	05 06       	cpc	r0, r21
    1a26:	08 95       	ret

00001a28 <__fp_round>:
    1a28:	09 2e       	mov	r0, r25
    1a2a:	03 94       	inc	r0
    1a2c:	00 0c       	add	r0, r0
    1a2e:	11 f4       	brne	.+4      	; 0x1a34 <__fp_round+0xc>
    1a30:	88 23       	and	r24, r24
    1a32:	52 f0       	brmi	.+20     	; 0x1a48 <__fp_round+0x20>
    1a34:	bb 0f       	add	r27, r27
    1a36:	40 f4       	brcc	.+16     	; 0x1a48 <__fp_round+0x20>
    1a38:	bf 2b       	or	r27, r31
    1a3a:	11 f4       	brne	.+4      	; 0x1a40 <__fp_round+0x18>
    1a3c:	60 ff       	sbrs	r22, 0
    1a3e:	04 c0       	rjmp	.+8      	; 0x1a48 <__fp_round+0x20>
    1a40:	6f 5f       	subi	r22, 0xFF	; 255
    1a42:	7f 4f       	sbci	r23, 0xFF	; 255
    1a44:	8f 4f       	sbci	r24, 0xFF	; 255
    1a46:	9f 4f       	sbci	r25, 0xFF	; 255
    1a48:	08 95       	ret

00001a4a <__fp_split3>:
    1a4a:	57 fd       	sbrc	r21, 7
    1a4c:	90 58       	subi	r25, 0x80	; 128
    1a4e:	44 0f       	add	r20, r20
    1a50:	55 1f       	adc	r21, r21
    1a52:	59 f0       	breq	.+22     	; 0x1a6a <__fp_splitA+0x10>
    1a54:	5f 3f       	cpi	r21, 0xFF	; 255
    1a56:	71 f0       	breq	.+28     	; 0x1a74 <__fp_splitA+0x1a>
    1a58:	47 95       	ror	r20

00001a5a <__fp_splitA>:
    1a5a:	88 0f       	add	r24, r24
    1a5c:	97 fb       	bst	r25, 7
    1a5e:	99 1f       	adc	r25, r25
    1a60:	61 f0       	breq	.+24     	; 0x1a7a <__fp_splitA+0x20>
    1a62:	9f 3f       	cpi	r25, 0xFF	; 255
    1a64:	79 f0       	breq	.+30     	; 0x1a84 <__fp_splitA+0x2a>
    1a66:	87 95       	ror	r24
    1a68:	08 95       	ret
    1a6a:	12 16       	cp	r1, r18
    1a6c:	13 06       	cpc	r1, r19
    1a6e:	14 06       	cpc	r1, r20
    1a70:	55 1f       	adc	r21, r21
    1a72:	f2 cf       	rjmp	.-28     	; 0x1a58 <__fp_split3+0xe>
    1a74:	46 95       	lsr	r20
    1a76:	f1 df       	rcall	.-30     	; 0x1a5a <__fp_splitA>
    1a78:	08 c0       	rjmp	.+16     	; 0x1a8a <__fp_splitA+0x30>
    1a7a:	16 16       	cp	r1, r22
    1a7c:	17 06       	cpc	r1, r23
    1a7e:	18 06       	cpc	r1, r24
    1a80:	99 1f       	adc	r25, r25
    1a82:	f1 cf       	rjmp	.-30     	; 0x1a66 <__fp_splitA+0xc>
    1a84:	86 95       	lsr	r24
    1a86:	71 05       	cpc	r23, r1
    1a88:	61 05       	cpc	r22, r1
    1a8a:	08 94       	sec
    1a8c:	08 95       	ret

00001a8e <__fp_zero>:
    1a8e:	e8 94       	clt

00001a90 <__fp_szero>:
    1a90:	bb 27       	eor	r27, r27
    1a92:	66 27       	eor	r22, r22
    1a94:	77 27       	eor	r23, r23
    1a96:	cb 01       	movw	r24, r22
    1a98:	97 f9       	bld	r25, 7
    1a9a:	08 95       	ret

00001a9c <__mulsf3>:
    1a9c:	0e 94 61 0d 	call	0x1ac2	; 0x1ac2 <__mulsf3x>
    1aa0:	0c 94 14 0d 	jmp	0x1a28	; 0x1a28 <__fp_round>
    1aa4:	0e 94 06 0d 	call	0x1a0c	; 0x1a0c <__fp_pscA>
    1aa8:	38 f0       	brcs	.+14     	; 0x1ab8 <__mulsf3+0x1c>
    1aaa:	0e 94 0d 0d 	call	0x1a1a	; 0x1a1a <__fp_pscB>
    1aae:	20 f0       	brcs	.+8      	; 0x1ab8 <__mulsf3+0x1c>
    1ab0:	95 23       	and	r25, r21
    1ab2:	11 f0       	breq	.+4      	; 0x1ab8 <__mulsf3+0x1c>
    1ab4:	0c 94 fd 0c 	jmp	0x19fa	; 0x19fa <__fp_inf>
    1ab8:	0c 94 03 0d 	jmp	0x1a06	; 0x1a06 <__fp_nan>
    1abc:	11 24       	eor	r1, r1
    1abe:	0c 94 48 0d 	jmp	0x1a90	; 0x1a90 <__fp_szero>

00001ac2 <__mulsf3x>:
    1ac2:	0e 94 25 0d 	call	0x1a4a	; 0x1a4a <__fp_split3>
    1ac6:	70 f3       	brcs	.-36     	; 0x1aa4 <__mulsf3+0x8>

00001ac8 <__mulsf3_pse>:
    1ac8:	95 9f       	mul	r25, r21
    1aca:	c1 f3       	breq	.-16     	; 0x1abc <__mulsf3+0x20>
    1acc:	95 0f       	add	r25, r21
    1ace:	50 e0       	ldi	r21, 0x00	; 0
    1ad0:	55 1f       	adc	r21, r21
    1ad2:	62 9f       	mul	r22, r18
    1ad4:	f0 01       	movw	r30, r0
    1ad6:	72 9f       	mul	r23, r18
    1ad8:	bb 27       	eor	r27, r27
    1ada:	f0 0d       	add	r31, r0
    1adc:	b1 1d       	adc	r27, r1
    1ade:	63 9f       	mul	r22, r19
    1ae0:	aa 27       	eor	r26, r26
    1ae2:	f0 0d       	add	r31, r0
    1ae4:	b1 1d       	adc	r27, r1
    1ae6:	aa 1f       	adc	r26, r26
    1ae8:	64 9f       	mul	r22, r20
    1aea:	66 27       	eor	r22, r22
    1aec:	b0 0d       	add	r27, r0
    1aee:	a1 1d       	adc	r26, r1
    1af0:	66 1f       	adc	r22, r22
    1af2:	82 9f       	mul	r24, r18
    1af4:	22 27       	eor	r18, r18
    1af6:	b0 0d       	add	r27, r0
    1af8:	a1 1d       	adc	r26, r1
    1afa:	62 1f       	adc	r22, r18
    1afc:	73 9f       	mul	r23, r19
    1afe:	b0 0d       	add	r27, r0
    1b00:	a1 1d       	adc	r26, r1
    1b02:	62 1f       	adc	r22, r18
    1b04:	83 9f       	mul	r24, r19
    1b06:	a0 0d       	add	r26, r0
    1b08:	61 1d       	adc	r22, r1
    1b0a:	22 1f       	adc	r18, r18
    1b0c:	74 9f       	mul	r23, r20
    1b0e:	33 27       	eor	r19, r19
    1b10:	a0 0d       	add	r26, r0
    1b12:	61 1d       	adc	r22, r1
    1b14:	23 1f       	adc	r18, r19
    1b16:	84 9f       	mul	r24, r20
    1b18:	60 0d       	add	r22, r0
    1b1a:	21 1d       	adc	r18, r1
    1b1c:	82 2f       	mov	r24, r18
    1b1e:	76 2f       	mov	r23, r22
    1b20:	6a 2f       	mov	r22, r26
    1b22:	11 24       	eor	r1, r1
    1b24:	9f 57       	subi	r25, 0x7F	; 127
    1b26:	50 40       	sbci	r21, 0x00	; 0
    1b28:	9a f0       	brmi	.+38     	; 0x1b50 <__mulsf3_pse+0x88>
    1b2a:	f1 f0       	breq	.+60     	; 0x1b68 <__mulsf3_pse+0xa0>
    1b2c:	88 23       	and	r24, r24
    1b2e:	4a f0       	brmi	.+18     	; 0x1b42 <__mulsf3_pse+0x7a>
    1b30:	ee 0f       	add	r30, r30
    1b32:	ff 1f       	adc	r31, r31
    1b34:	bb 1f       	adc	r27, r27
    1b36:	66 1f       	adc	r22, r22
    1b38:	77 1f       	adc	r23, r23
    1b3a:	88 1f       	adc	r24, r24
    1b3c:	91 50       	subi	r25, 0x01	; 1
    1b3e:	50 40       	sbci	r21, 0x00	; 0
    1b40:	a9 f7       	brne	.-22     	; 0x1b2c <__mulsf3_pse+0x64>
    1b42:	9e 3f       	cpi	r25, 0xFE	; 254
    1b44:	51 05       	cpc	r21, r1
    1b46:	80 f0       	brcs	.+32     	; 0x1b68 <__mulsf3_pse+0xa0>
    1b48:	0c 94 fd 0c 	jmp	0x19fa	; 0x19fa <__fp_inf>
    1b4c:	0c 94 48 0d 	jmp	0x1a90	; 0x1a90 <__fp_szero>
    1b50:	5f 3f       	cpi	r21, 0xFF	; 255
    1b52:	e4 f3       	brlt	.-8      	; 0x1b4c <__mulsf3_pse+0x84>
    1b54:	98 3e       	cpi	r25, 0xE8	; 232
    1b56:	d4 f3       	brlt	.-12     	; 0x1b4c <__mulsf3_pse+0x84>
    1b58:	86 95       	lsr	r24
    1b5a:	77 95       	ror	r23
    1b5c:	67 95       	ror	r22
    1b5e:	b7 95       	ror	r27
    1b60:	f7 95       	ror	r31
    1b62:	e7 95       	ror	r30
    1b64:	9f 5f       	subi	r25, 0xFF	; 255
    1b66:	c1 f7       	brne	.-16     	; 0x1b58 <__mulsf3_pse+0x90>
    1b68:	fe 2b       	or	r31, r30
    1b6a:	88 0f       	add	r24, r24
    1b6c:	91 1d       	adc	r25, r1
    1b6e:	96 95       	lsr	r25
    1b70:	87 95       	ror	r24
    1b72:	97 f9       	bld	r25, 7
    1b74:	08 95       	ret

00001b76 <__divmodhi4>:
    1b76:	97 fb       	bst	r25, 7
    1b78:	07 2e       	mov	r0, r23
    1b7a:	16 f4       	brtc	.+4      	; 0x1b80 <__divmodhi4+0xa>
    1b7c:	00 94       	com	r0
    1b7e:	07 d0       	rcall	.+14     	; 0x1b8e <__divmodhi4_neg1>
    1b80:	77 fd       	sbrc	r23, 7
    1b82:	09 d0       	rcall	.+18     	; 0x1b96 <__divmodhi4_neg2>
    1b84:	0e 94 f7 0d 	call	0x1bee	; 0x1bee <__udivmodhi4>
    1b88:	07 fc       	sbrc	r0, 7
    1b8a:	05 d0       	rcall	.+10     	; 0x1b96 <__divmodhi4_neg2>
    1b8c:	3e f4       	brtc	.+14     	; 0x1b9c <__divmodhi4_exit>

00001b8e <__divmodhi4_neg1>:
    1b8e:	90 95       	com	r25
    1b90:	81 95       	neg	r24
    1b92:	9f 4f       	sbci	r25, 0xFF	; 255
    1b94:	08 95       	ret

00001b96 <__divmodhi4_neg2>:
    1b96:	70 95       	com	r23
    1b98:	61 95       	neg	r22
    1b9a:	7f 4f       	sbci	r23, 0xFF	; 255

00001b9c <__divmodhi4_exit>:
    1b9c:	08 95       	ret

00001b9e <__tablejump2__>:
    1b9e:	ee 0f       	add	r30, r30
    1ba0:	ff 1f       	adc	r31, r31
    1ba2:	05 90       	lpm	r0, Z+
    1ba4:	f4 91       	lpm	r31, Z
    1ba6:	e0 2d       	mov	r30, r0
    1ba8:	09 94       	ijmp

00001baa <__umulhisi3>:
    1baa:	a2 9f       	mul	r26, r18
    1bac:	b0 01       	movw	r22, r0
    1bae:	b3 9f       	mul	r27, r19
    1bb0:	c0 01       	movw	r24, r0
    1bb2:	a3 9f       	mul	r26, r19
    1bb4:	70 0d       	add	r23, r0
    1bb6:	81 1d       	adc	r24, r1
    1bb8:	11 24       	eor	r1, r1
    1bba:	91 1d       	adc	r25, r1
    1bbc:	b2 9f       	mul	r27, r18
    1bbe:	70 0d       	add	r23, r0
    1bc0:	81 1d       	adc	r24, r1
    1bc2:	11 24       	eor	r1, r1
    1bc4:	91 1d       	adc	r25, r1
    1bc6:	08 95       	ret

00001bc8 <__muluhisi3>:
    1bc8:	0e 94 d5 0d 	call	0x1baa	; 0x1baa <__umulhisi3>
    1bcc:	a5 9f       	mul	r26, r21
    1bce:	90 0d       	add	r25, r0
    1bd0:	b4 9f       	mul	r27, r20
    1bd2:	90 0d       	add	r25, r0
    1bd4:	a4 9f       	mul	r26, r20
    1bd6:	80 0d       	add	r24, r0
    1bd8:	91 1d       	adc	r25, r1
    1bda:	11 24       	eor	r1, r1
    1bdc:	08 95       	ret

00001bde <__mulshisi3>:
    1bde:	b7 ff       	sbrs	r27, 7
    1be0:	0c 94 e4 0d 	jmp	0x1bc8	; 0x1bc8 <__muluhisi3>

00001be4 <__mulohisi3>:
    1be4:	0e 94 e4 0d 	call	0x1bc8	; 0x1bc8 <__muluhisi3>
    1be8:	82 1b       	sub	r24, r18
    1bea:	93 0b       	sbc	r25, r19
    1bec:	08 95       	ret

00001bee <__udivmodhi4>:
    1bee:	aa 1b       	sub	r26, r26
    1bf0:	bb 1b       	sub	r27, r27
    1bf2:	51 e1       	ldi	r21, 0x11	; 17
    1bf4:	07 c0       	rjmp	.+14     	; 0x1c04 <__udivmodhi4_ep>

00001bf6 <__udivmodhi4_loop>:
    1bf6:	aa 1f       	adc	r26, r26
    1bf8:	bb 1f       	adc	r27, r27
    1bfa:	a6 17       	cp	r26, r22
    1bfc:	b7 07       	cpc	r27, r23
    1bfe:	10 f0       	brcs	.+4      	; 0x1c04 <__udivmodhi4_ep>
    1c00:	a6 1b       	sub	r26, r22
    1c02:	b7 0b       	sbc	r27, r23

00001c04 <__udivmodhi4_ep>:
    1c04:	88 1f       	adc	r24, r24
    1c06:	99 1f       	adc	r25, r25
    1c08:	5a 95       	dec	r21
    1c0a:	a9 f7       	brne	.-22     	; 0x1bf6 <__udivmodhi4_loop>
    1c0c:	80 95       	com	r24
    1c0e:	90 95       	com	r25
    1c10:	bc 01       	movw	r22, r24
    1c12:	cd 01       	movw	r24, r26
    1c14:	08 95       	ret

00001c16 <itoa>:
    1c16:	45 32       	cpi	r20, 0x25	; 37
    1c18:	51 05       	cpc	r21, r1
    1c1a:	20 f4       	brcc	.+8      	; 0x1c24 <itoa+0xe>
    1c1c:	42 30       	cpi	r20, 0x02	; 2
    1c1e:	10 f0       	brcs	.+4      	; 0x1c24 <itoa+0xe>
    1c20:	0c 94 16 0e 	jmp	0x1c2c	; 0x1c2c <__itoa_ncheck>
    1c24:	fb 01       	movw	r30, r22
    1c26:	10 82       	st	Z, r1
    1c28:	cb 01       	movw	r24, r22
    1c2a:	08 95       	ret

00001c2c <__itoa_ncheck>:
    1c2c:	bb 27       	eor	r27, r27
    1c2e:	4a 30       	cpi	r20, 0x0A	; 10
    1c30:	31 f4       	brne	.+12     	; 0x1c3e <__itoa_ncheck+0x12>
    1c32:	99 23       	and	r25, r25
    1c34:	22 f4       	brpl	.+8      	; 0x1c3e <__itoa_ncheck+0x12>
    1c36:	bd e2       	ldi	r27, 0x2D	; 45
    1c38:	90 95       	com	r25
    1c3a:	81 95       	neg	r24
    1c3c:	9f 4f       	sbci	r25, 0xFF	; 255
    1c3e:	0c 94 22 0e 	jmp	0x1c44	; 0x1c44 <__utoa_common>

00001c42 <__utoa_ncheck>:
    1c42:	bb 27       	eor	r27, r27

00001c44 <__utoa_common>:
    1c44:	fb 01       	movw	r30, r22
    1c46:	55 27       	eor	r21, r21
    1c48:	aa 27       	eor	r26, r26
    1c4a:	88 0f       	add	r24, r24
    1c4c:	99 1f       	adc	r25, r25
    1c4e:	aa 1f       	adc	r26, r26
    1c50:	a4 17       	cp	r26, r20
    1c52:	10 f0       	brcs	.+4      	; 0x1c58 <__utoa_common+0x14>
    1c54:	a4 1b       	sub	r26, r20
    1c56:	83 95       	inc	r24
    1c58:	50 51       	subi	r21, 0x10	; 16
    1c5a:	b9 f7       	brne	.-18     	; 0x1c4a <__utoa_common+0x6>
    1c5c:	a0 5d       	subi	r26, 0xD0	; 208
    1c5e:	aa 33       	cpi	r26, 0x3A	; 58
    1c60:	08 f0       	brcs	.+2      	; 0x1c64 <__utoa_common+0x20>
    1c62:	a9 5d       	subi	r26, 0xD9	; 217
    1c64:	a1 93       	st	Z+, r26
    1c66:	00 97       	sbiw	r24, 0x00	; 0
    1c68:	79 f7       	brne	.-34     	; 0x1c48 <__utoa_common+0x4>
    1c6a:	b1 11       	cpse	r27, r1
    1c6c:	b1 93       	st	Z+, r27
    1c6e:	11 92       	st	Z+, r1
    1c70:	cb 01       	movw	r24, r22
    1c72:	0c 94 54 10 	jmp	0x20a8	; 0x20a8 <strrev>

00001c76 <sprintf_P>:
    1c76:	ae e0       	ldi	r26, 0x0E	; 14
    1c78:	b0 e0       	ldi	r27, 0x00	; 0
    1c7a:	e1 e4       	ldi	r30, 0x41	; 65
    1c7c:	fe e0       	ldi	r31, 0x0E	; 14
    1c7e:	0c 94 0c 11 	jmp	0x2218	; 0x2218 <__prologue_saves__+0x1c>
    1c82:	0d 89       	ldd	r16, Y+21	; 0x15
    1c84:	1e 89       	ldd	r17, Y+22	; 0x16
    1c86:	8e e0       	ldi	r24, 0x0E	; 14
    1c88:	8c 83       	std	Y+4, r24	; 0x04
    1c8a:	1a 83       	std	Y+2, r17	; 0x02
    1c8c:	09 83       	std	Y+1, r16	; 0x01
    1c8e:	8f ef       	ldi	r24, 0xFF	; 255
    1c90:	9f e7       	ldi	r25, 0x7F	; 127
    1c92:	9e 83       	std	Y+6, r25	; 0x06
    1c94:	8d 83       	std	Y+5, r24	; 0x05
    1c96:	ae 01       	movw	r20, r28
    1c98:	47 5e       	subi	r20, 0xE7	; 231
    1c9a:	5f 4f       	sbci	r21, 0xFF	; 255
    1c9c:	6f 89       	ldd	r22, Y+23	; 0x17
    1c9e:	78 8d       	ldd	r23, Y+24	; 0x18
    1ca0:	ce 01       	movw	r24, r28
    1ca2:	01 96       	adiw	r24, 0x01	; 1
    1ca4:	0e 94 5d 0e 	call	0x1cba	; 0x1cba <vfprintf>
    1ca8:	ef 81       	ldd	r30, Y+7	; 0x07
    1caa:	f8 85       	ldd	r31, Y+8	; 0x08
    1cac:	e0 0f       	add	r30, r16
    1cae:	f1 1f       	adc	r31, r17
    1cb0:	10 82       	st	Z, r1
    1cb2:	2e 96       	adiw	r28, 0x0e	; 14
    1cb4:	e4 e0       	ldi	r30, 0x04	; 4
    1cb6:	0c 94 28 11 	jmp	0x2250	; 0x2250 <__epilogue_restores__+0x1c>

00001cba <vfprintf>:
    1cba:	ab e0       	ldi	r26, 0x0B	; 11
    1cbc:	b0 e0       	ldi	r27, 0x00	; 0
    1cbe:	e3 e6       	ldi	r30, 0x63	; 99
    1cc0:	fe e0       	ldi	r31, 0x0E	; 14
    1cc2:	0c 94 fe 10 	jmp	0x21fc	; 0x21fc <__prologue_saves__>
    1cc6:	6c 01       	movw	r12, r24
    1cc8:	7b 01       	movw	r14, r22
    1cca:	8a 01       	movw	r16, r20
    1ccc:	fc 01       	movw	r30, r24
    1cce:	17 82       	std	Z+7, r1	; 0x07
    1cd0:	16 82       	std	Z+6, r1	; 0x06
    1cd2:	83 81       	ldd	r24, Z+3	; 0x03
    1cd4:	81 ff       	sbrs	r24, 1
    1cd6:	cc c1       	rjmp	.+920    	; 0x2070 <vfprintf+0x3b6>
    1cd8:	ce 01       	movw	r24, r28
    1cda:	01 96       	adiw	r24, 0x01	; 1
    1cdc:	3c 01       	movw	r6, r24
    1cde:	f6 01       	movw	r30, r12
    1ce0:	93 81       	ldd	r25, Z+3	; 0x03
    1ce2:	f7 01       	movw	r30, r14
    1ce4:	93 fd       	sbrc	r25, 3
    1ce6:	85 91       	lpm	r24, Z+
    1ce8:	93 ff       	sbrs	r25, 3
    1cea:	81 91       	ld	r24, Z+
    1cec:	7f 01       	movw	r14, r30
    1cee:	88 23       	and	r24, r24
    1cf0:	09 f4       	brne	.+2      	; 0x1cf4 <vfprintf+0x3a>
    1cf2:	ba c1       	rjmp	.+884    	; 0x2068 <vfprintf+0x3ae>
    1cf4:	85 32       	cpi	r24, 0x25	; 37
    1cf6:	39 f4       	brne	.+14     	; 0x1d06 <vfprintf+0x4c>
    1cf8:	93 fd       	sbrc	r25, 3
    1cfa:	85 91       	lpm	r24, Z+
    1cfc:	93 ff       	sbrs	r25, 3
    1cfe:	81 91       	ld	r24, Z+
    1d00:	7f 01       	movw	r14, r30
    1d02:	85 32       	cpi	r24, 0x25	; 37
    1d04:	29 f4       	brne	.+10     	; 0x1d10 <vfprintf+0x56>
    1d06:	b6 01       	movw	r22, r12
    1d08:	90 e0       	ldi	r25, 0x00	; 0
    1d0a:	0e 94 64 10 	call	0x20c8	; 0x20c8 <fputc>
    1d0e:	e7 cf       	rjmp	.-50     	; 0x1cde <vfprintf+0x24>
    1d10:	91 2c       	mov	r9, r1
    1d12:	21 2c       	mov	r2, r1
    1d14:	31 2c       	mov	r3, r1
    1d16:	ff e1       	ldi	r31, 0x1F	; 31
    1d18:	f3 15       	cp	r31, r3
    1d1a:	d8 f0       	brcs	.+54     	; 0x1d52 <vfprintf+0x98>
    1d1c:	8b 32       	cpi	r24, 0x2B	; 43
    1d1e:	79 f0       	breq	.+30     	; 0x1d3e <vfprintf+0x84>
    1d20:	38 f4       	brcc	.+14     	; 0x1d30 <vfprintf+0x76>
    1d22:	80 32       	cpi	r24, 0x20	; 32
    1d24:	79 f0       	breq	.+30     	; 0x1d44 <vfprintf+0x8a>
    1d26:	83 32       	cpi	r24, 0x23	; 35
    1d28:	a1 f4       	brne	.+40     	; 0x1d52 <vfprintf+0x98>
    1d2a:	23 2d       	mov	r18, r3
    1d2c:	20 61       	ori	r18, 0x10	; 16
    1d2e:	1d c0       	rjmp	.+58     	; 0x1d6a <vfprintf+0xb0>
    1d30:	8d 32       	cpi	r24, 0x2D	; 45
    1d32:	61 f0       	breq	.+24     	; 0x1d4c <vfprintf+0x92>
    1d34:	80 33       	cpi	r24, 0x30	; 48
    1d36:	69 f4       	brne	.+26     	; 0x1d52 <vfprintf+0x98>
    1d38:	23 2d       	mov	r18, r3
    1d3a:	21 60       	ori	r18, 0x01	; 1
    1d3c:	16 c0       	rjmp	.+44     	; 0x1d6a <vfprintf+0xb0>
    1d3e:	83 2d       	mov	r24, r3
    1d40:	82 60       	ori	r24, 0x02	; 2
    1d42:	38 2e       	mov	r3, r24
    1d44:	e3 2d       	mov	r30, r3
    1d46:	e4 60       	ori	r30, 0x04	; 4
    1d48:	3e 2e       	mov	r3, r30
    1d4a:	2a c0       	rjmp	.+84     	; 0x1da0 <vfprintf+0xe6>
    1d4c:	f3 2d       	mov	r31, r3
    1d4e:	f8 60       	ori	r31, 0x08	; 8
    1d50:	1d c0       	rjmp	.+58     	; 0x1d8c <vfprintf+0xd2>
    1d52:	37 fc       	sbrc	r3, 7
    1d54:	2d c0       	rjmp	.+90     	; 0x1db0 <vfprintf+0xf6>
    1d56:	20 ed       	ldi	r18, 0xD0	; 208
    1d58:	28 0f       	add	r18, r24
    1d5a:	2a 30       	cpi	r18, 0x0A	; 10
    1d5c:	40 f0       	brcs	.+16     	; 0x1d6e <vfprintf+0xb4>
    1d5e:	8e 32       	cpi	r24, 0x2E	; 46
    1d60:	b9 f4       	brne	.+46     	; 0x1d90 <vfprintf+0xd6>
    1d62:	36 fc       	sbrc	r3, 6
    1d64:	81 c1       	rjmp	.+770    	; 0x2068 <vfprintf+0x3ae>
    1d66:	23 2d       	mov	r18, r3
    1d68:	20 64       	ori	r18, 0x40	; 64
    1d6a:	32 2e       	mov	r3, r18
    1d6c:	19 c0       	rjmp	.+50     	; 0x1da0 <vfprintf+0xe6>
    1d6e:	36 fe       	sbrs	r3, 6
    1d70:	06 c0       	rjmp	.+12     	; 0x1d7e <vfprintf+0xc4>
    1d72:	8a e0       	ldi	r24, 0x0A	; 10
    1d74:	98 9e       	mul	r9, r24
    1d76:	20 0d       	add	r18, r0
    1d78:	11 24       	eor	r1, r1
    1d7a:	92 2e       	mov	r9, r18
    1d7c:	11 c0       	rjmp	.+34     	; 0x1da0 <vfprintf+0xe6>
    1d7e:	ea e0       	ldi	r30, 0x0A	; 10
    1d80:	2e 9e       	mul	r2, r30
    1d82:	20 0d       	add	r18, r0
    1d84:	11 24       	eor	r1, r1
    1d86:	22 2e       	mov	r2, r18
    1d88:	f3 2d       	mov	r31, r3
    1d8a:	f0 62       	ori	r31, 0x20	; 32
    1d8c:	3f 2e       	mov	r3, r31
    1d8e:	08 c0       	rjmp	.+16     	; 0x1da0 <vfprintf+0xe6>
    1d90:	8c 36       	cpi	r24, 0x6C	; 108
    1d92:	21 f4       	brne	.+8      	; 0x1d9c <vfprintf+0xe2>
    1d94:	83 2d       	mov	r24, r3
    1d96:	80 68       	ori	r24, 0x80	; 128
    1d98:	38 2e       	mov	r3, r24
    1d9a:	02 c0       	rjmp	.+4      	; 0x1da0 <vfprintf+0xe6>
    1d9c:	88 36       	cpi	r24, 0x68	; 104
    1d9e:	41 f4       	brne	.+16     	; 0x1db0 <vfprintf+0xf6>
    1da0:	f7 01       	movw	r30, r14
    1da2:	93 fd       	sbrc	r25, 3
    1da4:	85 91       	lpm	r24, Z+
    1da6:	93 ff       	sbrs	r25, 3
    1da8:	81 91       	ld	r24, Z+
    1daa:	7f 01       	movw	r14, r30
    1dac:	81 11       	cpse	r24, r1
    1dae:	b3 cf       	rjmp	.-154    	; 0x1d16 <vfprintf+0x5c>
    1db0:	98 2f       	mov	r25, r24
    1db2:	9f 7d       	andi	r25, 0xDF	; 223
    1db4:	95 54       	subi	r25, 0x45	; 69
    1db6:	93 30       	cpi	r25, 0x03	; 3
    1db8:	28 f4       	brcc	.+10     	; 0x1dc4 <vfprintf+0x10a>
    1dba:	0c 5f       	subi	r16, 0xFC	; 252
    1dbc:	1f 4f       	sbci	r17, 0xFF	; 255
    1dbe:	9f e3       	ldi	r25, 0x3F	; 63
    1dc0:	99 83       	std	Y+1, r25	; 0x01
    1dc2:	0d c0       	rjmp	.+26     	; 0x1dde <vfprintf+0x124>
    1dc4:	83 36       	cpi	r24, 0x63	; 99
    1dc6:	31 f0       	breq	.+12     	; 0x1dd4 <vfprintf+0x11a>
    1dc8:	83 37       	cpi	r24, 0x73	; 115
    1dca:	71 f0       	breq	.+28     	; 0x1de8 <vfprintf+0x12e>
    1dcc:	83 35       	cpi	r24, 0x53	; 83
    1dce:	09 f0       	breq	.+2      	; 0x1dd2 <vfprintf+0x118>
    1dd0:	59 c0       	rjmp	.+178    	; 0x1e84 <vfprintf+0x1ca>
    1dd2:	21 c0       	rjmp	.+66     	; 0x1e16 <vfprintf+0x15c>
    1dd4:	f8 01       	movw	r30, r16
    1dd6:	80 81       	ld	r24, Z
    1dd8:	89 83       	std	Y+1, r24	; 0x01
    1dda:	0e 5f       	subi	r16, 0xFE	; 254
    1ddc:	1f 4f       	sbci	r17, 0xFF	; 255
    1dde:	88 24       	eor	r8, r8
    1de0:	83 94       	inc	r8
    1de2:	91 2c       	mov	r9, r1
    1de4:	53 01       	movw	r10, r6
    1de6:	13 c0       	rjmp	.+38     	; 0x1e0e <vfprintf+0x154>
    1de8:	28 01       	movw	r4, r16
    1dea:	f2 e0       	ldi	r31, 0x02	; 2
    1dec:	4f 0e       	add	r4, r31
    1dee:	51 1c       	adc	r5, r1
    1df0:	f8 01       	movw	r30, r16
    1df2:	a0 80       	ld	r10, Z
    1df4:	b1 80       	ldd	r11, Z+1	; 0x01
    1df6:	36 fe       	sbrs	r3, 6
    1df8:	03 c0       	rjmp	.+6      	; 0x1e00 <vfprintf+0x146>
    1dfa:	69 2d       	mov	r22, r9
    1dfc:	70 e0       	ldi	r23, 0x00	; 0
    1dfe:	02 c0       	rjmp	.+4      	; 0x1e04 <vfprintf+0x14a>
    1e00:	6f ef       	ldi	r22, 0xFF	; 255
    1e02:	7f ef       	ldi	r23, 0xFF	; 255
    1e04:	c5 01       	movw	r24, r10
    1e06:	0e 94 49 10 	call	0x2092	; 0x2092 <strnlen>
    1e0a:	4c 01       	movw	r8, r24
    1e0c:	82 01       	movw	r16, r4
    1e0e:	f3 2d       	mov	r31, r3
    1e10:	ff 77       	andi	r31, 0x7F	; 127
    1e12:	3f 2e       	mov	r3, r31
    1e14:	16 c0       	rjmp	.+44     	; 0x1e42 <vfprintf+0x188>
    1e16:	28 01       	movw	r4, r16
    1e18:	22 e0       	ldi	r18, 0x02	; 2
    1e1a:	42 0e       	add	r4, r18
    1e1c:	51 1c       	adc	r5, r1
    1e1e:	f8 01       	movw	r30, r16
    1e20:	a0 80       	ld	r10, Z
    1e22:	b1 80       	ldd	r11, Z+1	; 0x01
    1e24:	36 fe       	sbrs	r3, 6
    1e26:	03 c0       	rjmp	.+6      	; 0x1e2e <vfprintf+0x174>
    1e28:	69 2d       	mov	r22, r9
    1e2a:	70 e0       	ldi	r23, 0x00	; 0
    1e2c:	02 c0       	rjmp	.+4      	; 0x1e32 <vfprintf+0x178>
    1e2e:	6f ef       	ldi	r22, 0xFF	; 255
    1e30:	7f ef       	ldi	r23, 0xFF	; 255
    1e32:	c5 01       	movw	r24, r10
    1e34:	0e 94 3e 10 	call	0x207c	; 0x207c <strnlen_P>
    1e38:	4c 01       	movw	r8, r24
    1e3a:	f3 2d       	mov	r31, r3
    1e3c:	f0 68       	ori	r31, 0x80	; 128
    1e3e:	3f 2e       	mov	r3, r31
    1e40:	82 01       	movw	r16, r4
    1e42:	33 fc       	sbrc	r3, 3
    1e44:	1b c0       	rjmp	.+54     	; 0x1e7c <vfprintf+0x1c2>
    1e46:	82 2d       	mov	r24, r2
    1e48:	90 e0       	ldi	r25, 0x00	; 0
    1e4a:	88 16       	cp	r8, r24
    1e4c:	99 06       	cpc	r9, r25
    1e4e:	b0 f4       	brcc	.+44     	; 0x1e7c <vfprintf+0x1c2>
    1e50:	b6 01       	movw	r22, r12
    1e52:	80 e2       	ldi	r24, 0x20	; 32
    1e54:	90 e0       	ldi	r25, 0x00	; 0
    1e56:	0e 94 64 10 	call	0x20c8	; 0x20c8 <fputc>
    1e5a:	2a 94       	dec	r2
    1e5c:	f4 cf       	rjmp	.-24     	; 0x1e46 <vfprintf+0x18c>
    1e5e:	f5 01       	movw	r30, r10
    1e60:	37 fc       	sbrc	r3, 7
    1e62:	85 91       	lpm	r24, Z+
    1e64:	37 fe       	sbrs	r3, 7
    1e66:	81 91       	ld	r24, Z+
    1e68:	5f 01       	movw	r10, r30
    1e6a:	b6 01       	movw	r22, r12
    1e6c:	90 e0       	ldi	r25, 0x00	; 0
    1e6e:	0e 94 64 10 	call	0x20c8	; 0x20c8 <fputc>
    1e72:	21 10       	cpse	r2, r1
    1e74:	2a 94       	dec	r2
    1e76:	21 e0       	ldi	r18, 0x01	; 1
    1e78:	82 1a       	sub	r8, r18
    1e7a:	91 08       	sbc	r9, r1
    1e7c:	81 14       	cp	r8, r1
    1e7e:	91 04       	cpc	r9, r1
    1e80:	71 f7       	brne	.-36     	; 0x1e5e <vfprintf+0x1a4>
    1e82:	e8 c0       	rjmp	.+464    	; 0x2054 <vfprintf+0x39a>
    1e84:	84 36       	cpi	r24, 0x64	; 100
    1e86:	11 f0       	breq	.+4      	; 0x1e8c <vfprintf+0x1d2>
    1e88:	89 36       	cpi	r24, 0x69	; 105
    1e8a:	41 f5       	brne	.+80     	; 0x1edc <vfprintf+0x222>
    1e8c:	f8 01       	movw	r30, r16
    1e8e:	37 fe       	sbrs	r3, 7
    1e90:	07 c0       	rjmp	.+14     	; 0x1ea0 <vfprintf+0x1e6>
    1e92:	60 81       	ld	r22, Z
    1e94:	71 81       	ldd	r23, Z+1	; 0x01
    1e96:	82 81       	ldd	r24, Z+2	; 0x02
    1e98:	93 81       	ldd	r25, Z+3	; 0x03
    1e9a:	0c 5f       	subi	r16, 0xFC	; 252
    1e9c:	1f 4f       	sbci	r17, 0xFF	; 255
    1e9e:	08 c0       	rjmp	.+16     	; 0x1eb0 <vfprintf+0x1f6>
    1ea0:	60 81       	ld	r22, Z
    1ea2:	71 81       	ldd	r23, Z+1	; 0x01
    1ea4:	07 2e       	mov	r0, r23
    1ea6:	00 0c       	add	r0, r0
    1ea8:	88 0b       	sbc	r24, r24
    1eaa:	99 0b       	sbc	r25, r25
    1eac:	0e 5f       	subi	r16, 0xFE	; 254
    1eae:	1f 4f       	sbci	r17, 0xFF	; 255
    1eb0:	f3 2d       	mov	r31, r3
    1eb2:	ff 76       	andi	r31, 0x6F	; 111
    1eb4:	3f 2e       	mov	r3, r31
    1eb6:	97 ff       	sbrs	r25, 7
    1eb8:	09 c0       	rjmp	.+18     	; 0x1ecc <vfprintf+0x212>
    1eba:	90 95       	com	r25
    1ebc:	80 95       	com	r24
    1ebe:	70 95       	com	r23
    1ec0:	61 95       	neg	r22
    1ec2:	7f 4f       	sbci	r23, 0xFF	; 255
    1ec4:	8f 4f       	sbci	r24, 0xFF	; 255
    1ec6:	9f 4f       	sbci	r25, 0xFF	; 255
    1ec8:	f0 68       	ori	r31, 0x80	; 128
    1eca:	3f 2e       	mov	r3, r31
    1ecc:	2a e0       	ldi	r18, 0x0A	; 10
    1ece:	30 e0       	ldi	r19, 0x00	; 0
    1ed0:	a3 01       	movw	r20, r6
    1ed2:	0e 94 a0 10 	call	0x2140	; 0x2140 <__ultoa_invert>
    1ed6:	88 2e       	mov	r8, r24
    1ed8:	86 18       	sub	r8, r6
    1eda:	45 c0       	rjmp	.+138    	; 0x1f66 <vfprintf+0x2ac>
    1edc:	85 37       	cpi	r24, 0x75	; 117
    1ede:	31 f4       	brne	.+12     	; 0x1eec <vfprintf+0x232>
    1ee0:	23 2d       	mov	r18, r3
    1ee2:	2f 7e       	andi	r18, 0xEF	; 239
    1ee4:	b2 2e       	mov	r11, r18
    1ee6:	2a e0       	ldi	r18, 0x0A	; 10
    1ee8:	30 e0       	ldi	r19, 0x00	; 0
    1eea:	25 c0       	rjmp	.+74     	; 0x1f36 <vfprintf+0x27c>
    1eec:	93 2d       	mov	r25, r3
    1eee:	99 7f       	andi	r25, 0xF9	; 249
    1ef0:	b9 2e       	mov	r11, r25
    1ef2:	8f 36       	cpi	r24, 0x6F	; 111
    1ef4:	c1 f0       	breq	.+48     	; 0x1f26 <vfprintf+0x26c>
    1ef6:	18 f4       	brcc	.+6      	; 0x1efe <vfprintf+0x244>
    1ef8:	88 35       	cpi	r24, 0x58	; 88
    1efa:	79 f0       	breq	.+30     	; 0x1f1a <vfprintf+0x260>
    1efc:	b5 c0       	rjmp	.+362    	; 0x2068 <vfprintf+0x3ae>
    1efe:	80 37       	cpi	r24, 0x70	; 112
    1f00:	19 f0       	breq	.+6      	; 0x1f08 <vfprintf+0x24e>
    1f02:	88 37       	cpi	r24, 0x78	; 120
    1f04:	21 f0       	breq	.+8      	; 0x1f0e <vfprintf+0x254>
    1f06:	b0 c0       	rjmp	.+352    	; 0x2068 <vfprintf+0x3ae>
    1f08:	e9 2f       	mov	r30, r25
    1f0a:	e0 61       	ori	r30, 0x10	; 16
    1f0c:	be 2e       	mov	r11, r30
    1f0e:	b4 fe       	sbrs	r11, 4
    1f10:	0d c0       	rjmp	.+26     	; 0x1f2c <vfprintf+0x272>
    1f12:	fb 2d       	mov	r31, r11
    1f14:	f4 60       	ori	r31, 0x04	; 4
    1f16:	bf 2e       	mov	r11, r31
    1f18:	09 c0       	rjmp	.+18     	; 0x1f2c <vfprintf+0x272>
    1f1a:	34 fe       	sbrs	r3, 4
    1f1c:	0a c0       	rjmp	.+20     	; 0x1f32 <vfprintf+0x278>
    1f1e:	29 2f       	mov	r18, r25
    1f20:	26 60       	ori	r18, 0x06	; 6
    1f22:	b2 2e       	mov	r11, r18
    1f24:	06 c0       	rjmp	.+12     	; 0x1f32 <vfprintf+0x278>
    1f26:	28 e0       	ldi	r18, 0x08	; 8
    1f28:	30 e0       	ldi	r19, 0x00	; 0
    1f2a:	05 c0       	rjmp	.+10     	; 0x1f36 <vfprintf+0x27c>
    1f2c:	20 e1       	ldi	r18, 0x10	; 16
    1f2e:	30 e0       	ldi	r19, 0x00	; 0
    1f30:	02 c0       	rjmp	.+4      	; 0x1f36 <vfprintf+0x27c>
    1f32:	20 e1       	ldi	r18, 0x10	; 16
    1f34:	32 e0       	ldi	r19, 0x02	; 2
    1f36:	f8 01       	movw	r30, r16
    1f38:	b7 fe       	sbrs	r11, 7
    1f3a:	07 c0       	rjmp	.+14     	; 0x1f4a <vfprintf+0x290>
    1f3c:	60 81       	ld	r22, Z
    1f3e:	71 81       	ldd	r23, Z+1	; 0x01
    1f40:	82 81       	ldd	r24, Z+2	; 0x02
    1f42:	93 81       	ldd	r25, Z+3	; 0x03
    1f44:	0c 5f       	subi	r16, 0xFC	; 252
    1f46:	1f 4f       	sbci	r17, 0xFF	; 255
    1f48:	06 c0       	rjmp	.+12     	; 0x1f56 <vfprintf+0x29c>
    1f4a:	60 81       	ld	r22, Z
    1f4c:	71 81       	ldd	r23, Z+1	; 0x01
    1f4e:	80 e0       	ldi	r24, 0x00	; 0
    1f50:	90 e0       	ldi	r25, 0x00	; 0
    1f52:	0e 5f       	subi	r16, 0xFE	; 254
    1f54:	1f 4f       	sbci	r17, 0xFF	; 255
    1f56:	a3 01       	movw	r20, r6
    1f58:	0e 94 a0 10 	call	0x2140	; 0x2140 <__ultoa_invert>
    1f5c:	88 2e       	mov	r8, r24
    1f5e:	86 18       	sub	r8, r6
    1f60:	fb 2d       	mov	r31, r11
    1f62:	ff 77       	andi	r31, 0x7F	; 127
    1f64:	3f 2e       	mov	r3, r31
    1f66:	36 fe       	sbrs	r3, 6
    1f68:	0d c0       	rjmp	.+26     	; 0x1f84 <vfprintf+0x2ca>
    1f6a:	23 2d       	mov	r18, r3
    1f6c:	2e 7f       	andi	r18, 0xFE	; 254
    1f6e:	a2 2e       	mov	r10, r18
    1f70:	89 14       	cp	r8, r9
    1f72:	58 f4       	brcc	.+22     	; 0x1f8a <vfprintf+0x2d0>
    1f74:	34 fe       	sbrs	r3, 4
    1f76:	0b c0       	rjmp	.+22     	; 0x1f8e <vfprintf+0x2d4>
    1f78:	32 fc       	sbrc	r3, 2
    1f7a:	09 c0       	rjmp	.+18     	; 0x1f8e <vfprintf+0x2d4>
    1f7c:	83 2d       	mov	r24, r3
    1f7e:	8e 7e       	andi	r24, 0xEE	; 238
    1f80:	a8 2e       	mov	r10, r24
    1f82:	05 c0       	rjmp	.+10     	; 0x1f8e <vfprintf+0x2d4>
    1f84:	b8 2c       	mov	r11, r8
    1f86:	a3 2c       	mov	r10, r3
    1f88:	03 c0       	rjmp	.+6      	; 0x1f90 <vfprintf+0x2d6>
    1f8a:	b8 2c       	mov	r11, r8
    1f8c:	01 c0       	rjmp	.+2      	; 0x1f90 <vfprintf+0x2d6>
    1f8e:	b9 2c       	mov	r11, r9
    1f90:	a4 fe       	sbrs	r10, 4
    1f92:	0f c0       	rjmp	.+30     	; 0x1fb2 <vfprintf+0x2f8>
    1f94:	fe 01       	movw	r30, r28
    1f96:	e8 0d       	add	r30, r8
    1f98:	f1 1d       	adc	r31, r1
    1f9a:	80 81       	ld	r24, Z
    1f9c:	80 33       	cpi	r24, 0x30	; 48
    1f9e:	21 f4       	brne	.+8      	; 0x1fa8 <vfprintf+0x2ee>
    1fa0:	9a 2d       	mov	r25, r10
    1fa2:	99 7e       	andi	r25, 0xE9	; 233
    1fa4:	a9 2e       	mov	r10, r25
    1fa6:	09 c0       	rjmp	.+18     	; 0x1fba <vfprintf+0x300>
    1fa8:	a2 fe       	sbrs	r10, 2
    1faa:	06 c0       	rjmp	.+12     	; 0x1fb8 <vfprintf+0x2fe>
    1fac:	b3 94       	inc	r11
    1fae:	b3 94       	inc	r11
    1fb0:	04 c0       	rjmp	.+8      	; 0x1fba <vfprintf+0x300>
    1fb2:	8a 2d       	mov	r24, r10
    1fb4:	86 78       	andi	r24, 0x86	; 134
    1fb6:	09 f0       	breq	.+2      	; 0x1fba <vfprintf+0x300>
    1fb8:	b3 94       	inc	r11
    1fba:	a3 fc       	sbrc	r10, 3
    1fbc:	11 c0       	rjmp	.+34     	; 0x1fe0 <vfprintf+0x326>
    1fbe:	a0 fe       	sbrs	r10, 0
    1fc0:	06 c0       	rjmp	.+12     	; 0x1fce <vfprintf+0x314>
    1fc2:	b2 14       	cp	r11, r2
    1fc4:	88 f4       	brcc	.+34     	; 0x1fe8 <vfprintf+0x32e>
    1fc6:	28 0c       	add	r2, r8
    1fc8:	92 2c       	mov	r9, r2
    1fca:	9b 18       	sub	r9, r11
    1fcc:	0e c0       	rjmp	.+28     	; 0x1fea <vfprintf+0x330>
    1fce:	b2 14       	cp	r11, r2
    1fd0:	60 f4       	brcc	.+24     	; 0x1fea <vfprintf+0x330>
    1fd2:	b6 01       	movw	r22, r12
    1fd4:	80 e2       	ldi	r24, 0x20	; 32
    1fd6:	90 e0       	ldi	r25, 0x00	; 0
    1fd8:	0e 94 64 10 	call	0x20c8	; 0x20c8 <fputc>
    1fdc:	b3 94       	inc	r11
    1fde:	f7 cf       	rjmp	.-18     	; 0x1fce <vfprintf+0x314>
    1fe0:	b2 14       	cp	r11, r2
    1fe2:	18 f4       	brcc	.+6      	; 0x1fea <vfprintf+0x330>
    1fe4:	2b 18       	sub	r2, r11
    1fe6:	02 c0       	rjmp	.+4      	; 0x1fec <vfprintf+0x332>
    1fe8:	98 2c       	mov	r9, r8
    1fea:	21 2c       	mov	r2, r1
    1fec:	a4 fe       	sbrs	r10, 4
    1fee:	10 c0       	rjmp	.+32     	; 0x2010 <vfprintf+0x356>
    1ff0:	b6 01       	movw	r22, r12
    1ff2:	80 e3       	ldi	r24, 0x30	; 48
    1ff4:	90 e0       	ldi	r25, 0x00	; 0
    1ff6:	0e 94 64 10 	call	0x20c8	; 0x20c8 <fputc>
    1ffa:	a2 fe       	sbrs	r10, 2
    1ffc:	17 c0       	rjmp	.+46     	; 0x202c <vfprintf+0x372>
    1ffe:	a1 fc       	sbrc	r10, 1
    2000:	03 c0       	rjmp	.+6      	; 0x2008 <vfprintf+0x34e>
    2002:	88 e7       	ldi	r24, 0x78	; 120
    2004:	90 e0       	ldi	r25, 0x00	; 0
    2006:	02 c0       	rjmp	.+4      	; 0x200c <vfprintf+0x352>
    2008:	88 e5       	ldi	r24, 0x58	; 88
    200a:	90 e0       	ldi	r25, 0x00	; 0
    200c:	b6 01       	movw	r22, r12
    200e:	0c c0       	rjmp	.+24     	; 0x2028 <vfprintf+0x36e>
    2010:	8a 2d       	mov	r24, r10
    2012:	86 78       	andi	r24, 0x86	; 134
    2014:	59 f0       	breq	.+22     	; 0x202c <vfprintf+0x372>
    2016:	a1 fe       	sbrs	r10, 1
    2018:	02 c0       	rjmp	.+4      	; 0x201e <vfprintf+0x364>
    201a:	8b e2       	ldi	r24, 0x2B	; 43
    201c:	01 c0       	rjmp	.+2      	; 0x2020 <vfprintf+0x366>
    201e:	80 e2       	ldi	r24, 0x20	; 32
    2020:	a7 fc       	sbrc	r10, 7
    2022:	8d e2       	ldi	r24, 0x2D	; 45
    2024:	b6 01       	movw	r22, r12
    2026:	90 e0       	ldi	r25, 0x00	; 0
    2028:	0e 94 64 10 	call	0x20c8	; 0x20c8 <fputc>
    202c:	89 14       	cp	r8, r9
    202e:	38 f4       	brcc	.+14     	; 0x203e <vfprintf+0x384>
    2030:	b6 01       	movw	r22, r12
    2032:	80 e3       	ldi	r24, 0x30	; 48
    2034:	90 e0       	ldi	r25, 0x00	; 0
    2036:	0e 94 64 10 	call	0x20c8	; 0x20c8 <fputc>
    203a:	9a 94       	dec	r9
    203c:	f7 cf       	rjmp	.-18     	; 0x202c <vfprintf+0x372>
    203e:	8a 94       	dec	r8
    2040:	f3 01       	movw	r30, r6
    2042:	e8 0d       	add	r30, r8
    2044:	f1 1d       	adc	r31, r1
    2046:	80 81       	ld	r24, Z
    2048:	b6 01       	movw	r22, r12
    204a:	90 e0       	ldi	r25, 0x00	; 0
    204c:	0e 94 64 10 	call	0x20c8	; 0x20c8 <fputc>
    2050:	81 10       	cpse	r8, r1
    2052:	f5 cf       	rjmp	.-22     	; 0x203e <vfprintf+0x384>
    2054:	22 20       	and	r2, r2
    2056:	09 f4       	brne	.+2      	; 0x205a <vfprintf+0x3a0>
    2058:	42 ce       	rjmp	.-892    	; 0x1cde <vfprintf+0x24>
    205a:	b6 01       	movw	r22, r12
    205c:	80 e2       	ldi	r24, 0x20	; 32
    205e:	90 e0       	ldi	r25, 0x00	; 0
    2060:	0e 94 64 10 	call	0x20c8	; 0x20c8 <fputc>
    2064:	2a 94       	dec	r2
    2066:	f6 cf       	rjmp	.-20     	; 0x2054 <vfprintf+0x39a>
    2068:	f6 01       	movw	r30, r12
    206a:	86 81       	ldd	r24, Z+6	; 0x06
    206c:	97 81       	ldd	r25, Z+7	; 0x07
    206e:	02 c0       	rjmp	.+4      	; 0x2074 <vfprintf+0x3ba>
    2070:	8f ef       	ldi	r24, 0xFF	; 255
    2072:	9f ef       	ldi	r25, 0xFF	; 255
    2074:	2b 96       	adiw	r28, 0x0b	; 11
    2076:	e2 e1       	ldi	r30, 0x12	; 18
    2078:	0c 94 1a 11 	jmp	0x2234	; 0x2234 <__epilogue_restores__>

0000207c <strnlen_P>:
    207c:	fc 01       	movw	r30, r24
    207e:	05 90       	lpm	r0, Z+
    2080:	61 50       	subi	r22, 0x01	; 1
    2082:	70 40       	sbci	r23, 0x00	; 0
    2084:	01 10       	cpse	r0, r1
    2086:	d8 f7       	brcc	.-10     	; 0x207e <strnlen_P+0x2>
    2088:	80 95       	com	r24
    208a:	90 95       	com	r25
    208c:	8e 0f       	add	r24, r30
    208e:	9f 1f       	adc	r25, r31
    2090:	08 95       	ret

00002092 <strnlen>:
    2092:	fc 01       	movw	r30, r24
    2094:	61 50       	subi	r22, 0x01	; 1
    2096:	70 40       	sbci	r23, 0x00	; 0
    2098:	01 90       	ld	r0, Z+
    209a:	01 10       	cpse	r0, r1
    209c:	d8 f7       	brcc	.-10     	; 0x2094 <strnlen+0x2>
    209e:	80 95       	com	r24
    20a0:	90 95       	com	r25
    20a2:	8e 0f       	add	r24, r30
    20a4:	9f 1f       	adc	r25, r31
    20a6:	08 95       	ret

000020a8 <strrev>:
    20a8:	dc 01       	movw	r26, r24
    20aa:	fc 01       	movw	r30, r24
    20ac:	67 2f       	mov	r22, r23
    20ae:	71 91       	ld	r23, Z+
    20b0:	77 23       	and	r23, r23
    20b2:	e1 f7       	brne	.-8      	; 0x20ac <strrev+0x4>
    20b4:	32 97       	sbiw	r30, 0x02	; 2
    20b6:	04 c0       	rjmp	.+8      	; 0x20c0 <strrev+0x18>
    20b8:	7c 91       	ld	r23, X
    20ba:	6d 93       	st	X+, r22
    20bc:	70 83       	st	Z, r23
    20be:	62 91       	ld	r22, -Z
    20c0:	ae 17       	cp	r26, r30
    20c2:	bf 07       	cpc	r27, r31
    20c4:	c8 f3       	brcs	.-14     	; 0x20b8 <strrev+0x10>
    20c6:	08 95       	ret

000020c8 <fputc>:
    20c8:	0f 93       	push	r16
    20ca:	1f 93       	push	r17
    20cc:	cf 93       	push	r28
    20ce:	df 93       	push	r29
    20d0:	fb 01       	movw	r30, r22
    20d2:	23 81       	ldd	r18, Z+3	; 0x03
    20d4:	21 fd       	sbrc	r18, 1
    20d6:	03 c0       	rjmp	.+6      	; 0x20de <fputc+0x16>
    20d8:	8f ef       	ldi	r24, 0xFF	; 255
    20da:	9f ef       	ldi	r25, 0xFF	; 255
    20dc:	2c c0       	rjmp	.+88     	; 0x2136 <fputc+0x6e>
    20de:	22 ff       	sbrs	r18, 2
    20e0:	16 c0       	rjmp	.+44     	; 0x210e <fputc+0x46>
    20e2:	46 81       	ldd	r20, Z+6	; 0x06
    20e4:	57 81       	ldd	r21, Z+7	; 0x07
    20e6:	24 81       	ldd	r18, Z+4	; 0x04
    20e8:	35 81       	ldd	r19, Z+5	; 0x05
    20ea:	42 17       	cp	r20, r18
    20ec:	53 07       	cpc	r21, r19
    20ee:	44 f4       	brge	.+16     	; 0x2100 <fputc+0x38>
    20f0:	a0 81       	ld	r26, Z
    20f2:	b1 81       	ldd	r27, Z+1	; 0x01
    20f4:	9d 01       	movw	r18, r26
    20f6:	2f 5f       	subi	r18, 0xFF	; 255
    20f8:	3f 4f       	sbci	r19, 0xFF	; 255
    20fa:	31 83       	std	Z+1, r19	; 0x01
    20fc:	20 83       	st	Z, r18
    20fe:	8c 93       	st	X, r24
    2100:	26 81       	ldd	r18, Z+6	; 0x06
    2102:	37 81       	ldd	r19, Z+7	; 0x07
    2104:	2f 5f       	subi	r18, 0xFF	; 255
    2106:	3f 4f       	sbci	r19, 0xFF	; 255
    2108:	37 83       	std	Z+7, r19	; 0x07
    210a:	26 83       	std	Z+6, r18	; 0x06
    210c:	14 c0       	rjmp	.+40     	; 0x2136 <fputc+0x6e>
    210e:	8b 01       	movw	r16, r22
    2110:	ec 01       	movw	r28, r24
    2112:	fb 01       	movw	r30, r22
    2114:	00 84       	ldd	r0, Z+8	; 0x08
    2116:	f1 85       	ldd	r31, Z+9	; 0x09
    2118:	e0 2d       	mov	r30, r0
    211a:	09 95       	icall
    211c:	89 2b       	or	r24, r25
    211e:	e1 f6       	brne	.-72     	; 0x20d8 <fputc+0x10>
    2120:	d8 01       	movw	r26, r16
    2122:	16 96       	adiw	r26, 0x06	; 6
    2124:	8d 91       	ld	r24, X+
    2126:	9c 91       	ld	r25, X
    2128:	17 97       	sbiw	r26, 0x07	; 7
    212a:	01 96       	adiw	r24, 0x01	; 1
    212c:	17 96       	adiw	r26, 0x07	; 7
    212e:	9c 93       	st	X, r25
    2130:	8e 93       	st	-X, r24
    2132:	16 97       	sbiw	r26, 0x06	; 6
    2134:	ce 01       	movw	r24, r28
    2136:	df 91       	pop	r29
    2138:	cf 91       	pop	r28
    213a:	1f 91       	pop	r17
    213c:	0f 91       	pop	r16
    213e:	08 95       	ret

00002140 <__ultoa_invert>:
    2140:	fa 01       	movw	r30, r20
    2142:	aa 27       	eor	r26, r26
    2144:	28 30       	cpi	r18, 0x08	; 8
    2146:	51 f1       	breq	.+84     	; 0x219c <__ultoa_invert+0x5c>
    2148:	20 31       	cpi	r18, 0x10	; 16
    214a:	81 f1       	breq	.+96     	; 0x21ac <__ultoa_invert+0x6c>
    214c:	e8 94       	clt
    214e:	6f 93       	push	r22
    2150:	6e 7f       	andi	r22, 0xFE	; 254
    2152:	6e 5f       	subi	r22, 0xFE	; 254
    2154:	7f 4f       	sbci	r23, 0xFF	; 255
    2156:	8f 4f       	sbci	r24, 0xFF	; 255
    2158:	9f 4f       	sbci	r25, 0xFF	; 255
    215a:	af 4f       	sbci	r26, 0xFF	; 255
    215c:	b1 e0       	ldi	r27, 0x01	; 1
    215e:	3e d0       	rcall	.+124    	; 0x21dc <__ultoa_invert+0x9c>
    2160:	b4 e0       	ldi	r27, 0x04	; 4
    2162:	3c d0       	rcall	.+120    	; 0x21dc <__ultoa_invert+0x9c>
    2164:	67 0f       	add	r22, r23
    2166:	78 1f       	adc	r23, r24
    2168:	89 1f       	adc	r24, r25
    216a:	9a 1f       	adc	r25, r26
    216c:	a1 1d       	adc	r26, r1
    216e:	68 0f       	add	r22, r24
    2170:	79 1f       	adc	r23, r25
    2172:	8a 1f       	adc	r24, r26
    2174:	91 1d       	adc	r25, r1
    2176:	a1 1d       	adc	r26, r1
    2178:	6a 0f       	add	r22, r26
    217a:	71 1d       	adc	r23, r1
    217c:	81 1d       	adc	r24, r1
    217e:	91 1d       	adc	r25, r1
    2180:	a1 1d       	adc	r26, r1
    2182:	20 d0       	rcall	.+64     	; 0x21c4 <__ultoa_invert+0x84>
    2184:	09 f4       	brne	.+2      	; 0x2188 <__ultoa_invert+0x48>
    2186:	68 94       	set
    2188:	3f 91       	pop	r19
    218a:	2a e0       	ldi	r18, 0x0A	; 10
    218c:	26 9f       	mul	r18, r22
    218e:	11 24       	eor	r1, r1
    2190:	30 19       	sub	r19, r0
    2192:	30 5d       	subi	r19, 0xD0	; 208
    2194:	31 93       	st	Z+, r19
    2196:	de f6       	brtc	.-74     	; 0x214e <__ultoa_invert+0xe>
    2198:	cf 01       	movw	r24, r30
    219a:	08 95       	ret
    219c:	46 2f       	mov	r20, r22
    219e:	47 70       	andi	r20, 0x07	; 7
    21a0:	40 5d       	subi	r20, 0xD0	; 208
    21a2:	41 93       	st	Z+, r20
    21a4:	b3 e0       	ldi	r27, 0x03	; 3
    21a6:	0f d0       	rcall	.+30     	; 0x21c6 <__ultoa_invert+0x86>
    21a8:	c9 f7       	brne	.-14     	; 0x219c <__ultoa_invert+0x5c>
    21aa:	f6 cf       	rjmp	.-20     	; 0x2198 <__ultoa_invert+0x58>
    21ac:	46 2f       	mov	r20, r22
    21ae:	4f 70       	andi	r20, 0x0F	; 15
    21b0:	40 5d       	subi	r20, 0xD0	; 208
    21b2:	4a 33       	cpi	r20, 0x3A	; 58
    21b4:	18 f0       	brcs	.+6      	; 0x21bc <__ultoa_invert+0x7c>
    21b6:	49 5d       	subi	r20, 0xD9	; 217
    21b8:	31 fd       	sbrc	r19, 1
    21ba:	40 52       	subi	r20, 0x20	; 32
    21bc:	41 93       	st	Z+, r20
    21be:	02 d0       	rcall	.+4      	; 0x21c4 <__ultoa_invert+0x84>
    21c0:	a9 f7       	brne	.-22     	; 0x21ac <__ultoa_invert+0x6c>
    21c2:	ea cf       	rjmp	.-44     	; 0x2198 <__ultoa_invert+0x58>
    21c4:	b4 e0       	ldi	r27, 0x04	; 4
    21c6:	a6 95       	lsr	r26
    21c8:	97 95       	ror	r25
    21ca:	87 95       	ror	r24
    21cc:	77 95       	ror	r23
    21ce:	67 95       	ror	r22
    21d0:	ba 95       	dec	r27
    21d2:	c9 f7       	brne	.-14     	; 0x21c6 <__ultoa_invert+0x86>
    21d4:	00 97       	sbiw	r24, 0x00	; 0
    21d6:	61 05       	cpc	r22, r1
    21d8:	71 05       	cpc	r23, r1
    21da:	08 95       	ret
    21dc:	9b 01       	movw	r18, r22
    21de:	ac 01       	movw	r20, r24
    21e0:	0a 2e       	mov	r0, r26
    21e2:	06 94       	lsr	r0
    21e4:	57 95       	ror	r21
    21e6:	47 95       	ror	r20
    21e8:	37 95       	ror	r19
    21ea:	27 95       	ror	r18
    21ec:	ba 95       	dec	r27
    21ee:	c9 f7       	brne	.-14     	; 0x21e2 <__ultoa_invert+0xa2>
    21f0:	62 0f       	add	r22, r18
    21f2:	73 1f       	adc	r23, r19
    21f4:	84 1f       	adc	r24, r20
    21f6:	95 1f       	adc	r25, r21
    21f8:	a0 1d       	adc	r26, r0
    21fa:	08 95       	ret

000021fc <__prologue_saves__>:
    21fc:	2f 92       	push	r2
    21fe:	3f 92       	push	r3
    2200:	4f 92       	push	r4
    2202:	5f 92       	push	r5
    2204:	6f 92       	push	r6
    2206:	7f 92       	push	r7
    2208:	8f 92       	push	r8
    220a:	9f 92       	push	r9
    220c:	af 92       	push	r10
    220e:	bf 92       	push	r11
    2210:	cf 92       	push	r12
    2212:	df 92       	push	r13
    2214:	ef 92       	push	r14
    2216:	ff 92       	push	r15
    2218:	0f 93       	push	r16
    221a:	1f 93       	push	r17
    221c:	cf 93       	push	r28
    221e:	df 93       	push	r29
    2220:	cd b7       	in	r28, 0x3d	; 61
    2222:	de b7       	in	r29, 0x3e	; 62
    2224:	ca 1b       	sub	r28, r26
    2226:	db 0b       	sbc	r29, r27
    2228:	0f b6       	in	r0, 0x3f	; 63
    222a:	f8 94       	cli
    222c:	de bf       	out	0x3e, r29	; 62
    222e:	0f be       	out	0x3f, r0	; 63
    2230:	cd bf       	out	0x3d, r28	; 61
    2232:	09 94       	ijmp

00002234 <__epilogue_restores__>:
    2234:	2a 88       	ldd	r2, Y+18	; 0x12
    2236:	39 88       	ldd	r3, Y+17	; 0x11
    2238:	48 88       	ldd	r4, Y+16	; 0x10
    223a:	5f 84       	ldd	r5, Y+15	; 0x0f
    223c:	6e 84       	ldd	r6, Y+14	; 0x0e
    223e:	7d 84       	ldd	r7, Y+13	; 0x0d
    2240:	8c 84       	ldd	r8, Y+12	; 0x0c
    2242:	9b 84       	ldd	r9, Y+11	; 0x0b
    2244:	aa 84       	ldd	r10, Y+10	; 0x0a
    2246:	b9 84       	ldd	r11, Y+9	; 0x09
    2248:	c8 84       	ldd	r12, Y+8	; 0x08
    224a:	df 80       	ldd	r13, Y+7	; 0x07
    224c:	ee 80       	ldd	r14, Y+6	; 0x06
    224e:	fd 80       	ldd	r15, Y+5	; 0x05
    2250:	0c 81       	ldd	r16, Y+4	; 0x04
    2252:	1b 81       	ldd	r17, Y+3	; 0x03
    2254:	aa 81       	ldd	r26, Y+2	; 0x02
    2256:	b9 81       	ldd	r27, Y+1	; 0x01
    2258:	ce 0f       	add	r28, r30
    225a:	d1 1d       	adc	r29, r1
    225c:	0f b6       	in	r0, 0x3f	; 63
    225e:	f8 94       	cli
    2260:	de bf       	out	0x3e, r29	; 62
    2262:	0f be       	out	0x3f, r0	; 63
    2264:	cd bf       	out	0x3d, r28	; 61
    2266:	ed 01       	movw	r28, r26
    2268:	08 95       	ret

0000226a <_exit>:
    226a:	f8 94       	cli

0000226c <__stop_program>:
    226c:	ff cf       	rjmp	.-2      	; 0x226c <__stop_program>
